Microsoft (R) COFF/PE Dumper Version 14.33.31629.0
Copyright (C) Microsoft Corporation.  All rights reserved.


Dump of file fixupdemo.dll

File Type: DLL

  10001000: 55                 push        ebp
  10001001: 8B EC              mov         ebp,esp
  10001003: 8B 45 08           mov         eax,dword ptr [ebp+8]
  10001006: A3 00 10 01 10     mov         dword ptr ds:[10011000h],eax
  1000100B: 5D                 pop         ebp
  1000100C: C3                 ret
  1000100D: 55                 push        ebp
  1000100E: 8B EC              mov         ebp,esp
  10001010: 8B 45 0C           mov         eax,dword ptr [ebp+0Ch]
  10001013: 83 E8 00           sub         eax,0
  10001016: 74 33              je          1000104B
  10001018: 83 E8 01           sub         eax,1
  1000101B: 74 20              je          1000103D
  1000101D: 83 E8 01           sub         eax,1
  10001020: 74 11              je          10001033
  10001022: 83 E8 01           sub         eax,1
  10001025: 74 05              je          1000102C
  10001027: 33 C0              xor         eax,eax
  10001029: 40                 inc         eax
  1000102A: EB 30              jmp         1000105C
  1000102C: E8 EC 04 00 00     call        1000151D
  10001031: EB 05              jmp         10001038
  10001033: E8 C6 04 00 00     call        100014FE
  10001038: 0F B6 C0           movzx       eax,al
  1000103B: EB 1F              jmp         1000105C
  1000103D: FF 75 10           push        dword ptr [ebp+10h]
  10001040: FF 75 08           push        dword ptr [ebp+8]
  10001043: E8 18 00 00 00     call        10001060
  10001048: 59                 pop         ecx
  10001049: EB 10              jmp         1000105B
  1000104B: 83 7D 10 00        cmp         dword ptr [ebp+10h],0
  1000104F: 0F 95 C0           setne       al
  10001052: 0F B6 C0           movzx       eax,al
  10001055: 50                 push        eax
  10001056: E8 0C 01 00 00     call        10001167
  1000105B: 59                 pop         ecx
  1000105C: 5D                 pop         ebp
  1000105D: C2 0C 00           ret         0Ch
  10001060: 6A 10              push        10h
  10001062: 68 F8 FF 00 10     push        1000FFF8h
  10001067: E8 44 08 00 00     call        100018B0
  1000106C: 6A 00              push        0
  1000106E: E8 1B 05 00 00     call        1000158E
  10001073: 59                 pop         ecx
  10001074: 84 C0              test        al,al
  10001076: 0F 84 D1 00 00 00  je          1000114D
  1000107C: E8 12 04 00 00     call        10001493
  10001081: 88 45 E3           mov         byte ptr [ebp-1Dh],al
  10001084: B3 01              mov         bl,1
  10001086: 88 5D E7           mov         byte ptr [ebp-19h],bl
  10001089: 83 65 FC 00        and         dword ptr [ebp-4],0
  1000108D: 83 3D 90 18 01 10  cmp         dword ptr ds:[10011890h],0
            00
  10001094: 0F 85 C5 00 00 00  jne         1000115F
  1000109A: C7 05 90 18 01 10  mov         dword ptr ds:[10011890h],1
            01 00 00 00
  100010A4: E8 47 04 00 00     call        100014F0
  100010A9: 84 C0              test        al,al
  100010AB: 74 4D              je          100010FA
  100010AD: E8 9E 07 00 00     call        10001850
  100010B2: E8 57 03 00 00     call        1000140E
  100010B7: E8 76 03 00 00     call        10001432
  100010BC: 68 24 B1 00 10     push        1000B124h
  100010C1: 68 14 B1 00 10     push        1000B114h
  100010C6: E8 2A 1B 00 00     call        10002BF5
  100010CB: 59                 pop         ecx
  100010CC: 59                 pop         ecx
  100010CD: 85 C0              test        eax,eax
  100010CF: 75 29              jne         100010FA
  100010D1: E8 EF 03 00 00     call        100014C5
  100010D6: 84 C0              test        al,al
  100010D8: 74 20              je          100010FA
  100010DA: 68 10 B1 00 10     push        1000B110h
  100010DF: 68 0C B1 00 10     push        1000B10Ch
  100010E4: E8 C7 1A 00 00     call        10002BB0
  100010E9: 59                 pop         ecx
  100010EA: 59                 pop         ecx
  100010EB: C7 05 90 18 01 10  mov         dword ptr ds:[10011890h],2
            02 00 00 00
  100010F5: 32 DB              xor         bl,bl
  100010F7: 88 5D E7           mov         byte ptr [ebp-19h],bl
  100010FA: C7 45 FC FE FF FF  mov         dword ptr [ebp-4],0FFFFFFFEh
            FF
  10001101: E8 3D 00 00 00     call        10001143
  10001106: 84 DB              test        bl,bl
  10001108: 75 43              jne         1000114D
  1000110A: E8 18 06 00 00     call        10001727
  1000110F: 8B F0              mov         esi,eax
  10001111: 83 3E 00           cmp         dword ptr [esi],0
  10001114: 74 1F              je          10001135
  10001116: 56                 push        esi
  10001117: E8 32 05 00 00     call        1000164E
  1000111C: 59                 pop         ecx
  1000111D: 84 C0              test        al,al
  1000111F: 74 14              je          10001135
  10001121: FF 75 0C           push        dword ptr [ebp+0Ch]
  10001124: 6A 02              push        2
  10001126: FF 75 08           push        dword ptr [ebp+8]
  10001129: 8B 36              mov         esi,dword ptr [esi]
  1000112B: 8B CE              mov         ecx,esi
  1000112D: FF 15 04 B1 00 10  call        dword ptr ds:[1000B104h]
  10001133: FF D6              call        esi
  10001135: FF 05 70 18 01 10  inc         dword ptr ds:[10011870h]
  1000113B: 33 C0              xor         eax,eax
  1000113D: 40                 inc         eax
  1000113E: EB 0F              jmp         1000114F
  10001140: 8A 5D E7           mov         bl,byte ptr [ebp-19h]
  10001143: FF 75 E3           push        dword ptr [ebp-1Dh]
  10001146: E8 97 05 00 00     call        100016E2
  1000114B: 59                 pop         ecx
  1000114C: C3                 ret
  1000114D: 33 C0              xor         eax,eax
  1000114F: 8B 4D F0           mov         ecx,dword ptr [ebp-10h]
  10001152: 64 89 0D 00 00 00  mov         dword ptr fs:[00000000h],ecx
            00
  10001159: 59                 pop         ecx
  1000115A: 5F                 pop         edi
  1000115B: 5E                 pop         esi
  1000115C: 5B                 pop         ebx
  1000115D: C9                 leave
  1000115E: C3                 ret
  1000115F: 6A 07              push        7
  10001161: E8 C7 05 00 00     call        1000172D
  10001166: CC                 int         3
  10001167: 6A 10              push        10h
  10001169: 68 18 00 01 10     push        10010018h
  1000116E: E8 3D 07 00 00     call        100018B0
  10001173: A1 70 18 01 10     mov         eax,dword ptr ds:[10011870h]
  10001178: 85 C0              test        eax,eax
  1000117A: 7F 04              jg          10001180
  1000117C: 33 C0              xor         eax,eax
  1000117E: EB 69              jmp         100011E9
  10001180: 48                 dec         eax
  10001181: A3 70 18 01 10     mov         dword ptr ds:[10011870h],eax
  10001186: 33 FF              xor         edi,edi
  10001188: 47                 inc         edi
  10001189: 89 7D E4           mov         dword ptr [ebp-1Ch],edi
  1000118C: 83 65 FC 00        and         dword ptr [ebp-4],0
  10001190: E8 FE 02 00 00     call        10001493
  10001195: 88 45 E0           mov         byte ptr [ebp-20h],al
  10001198: 89 7D FC           mov         dword ptr [ebp-4],edi
  1000119B: 83 3D 90 18 01 10  cmp         dword ptr ds:[10011890h],2
            02
  100011A2: 75 6B              jne         1000120F
  100011A4: E8 B5 03 00 00     call        1000155E
  100011A9: E8 6C 02 00 00     call        1000141A
  100011AE: E8 C9 06 00 00     call        1000187C
  100011B3: 83 25 90 18 01 10  and         dword ptr ds:[10011890h],0
            00
  100011BA: 83 65 FC 00        and         dword ptr [ebp-4],0
  100011BE: E8 39 00 00 00     call        100011FC
  100011C3: 6A 00              push        0
  100011C5: FF 75 08           push        dword ptr [ebp+8]
  100011C8: E8 32 05 00 00     call        100016FF
  100011CD: 59                 pop         ecx
  100011CE: 59                 pop         ecx
  100011CF: 0F B6 F0           movzx       esi,al
  100011D2: F7 DE              neg         esi
  100011D4: 1B F6              sbb         esi,esi
  100011D6: 23 F7              and         esi,edi
  100011D8: 89 75 E4           mov         dword ptr [ebp-1Ch],esi
  100011DB: C7 45 FC FE FF FF  mov         dword ptr [ebp-4],0FFFFFFFEh
            FF
  100011E2: E8 22 00 00 00     call        10001209
  100011E7: 8B C6              mov         eax,esi
  100011E9: 8B 4D F0           mov         ecx,dword ptr [ebp-10h]
  100011EC: 64 89 0D 00 00 00  mov         dword ptr fs:[00000000h],ecx
            00
  100011F3: 59                 pop         ecx
  100011F4: 5F                 pop         edi
  100011F5: 5E                 pop         esi
  100011F6: 5B                 pop         ebx
  100011F7: C9                 leave
  100011F8: C3                 ret
  100011F9: 8B 7D E4           mov         edi,dword ptr [ebp-1Ch]
  100011FC: FF 75 E0           push        dword ptr [ebp-20h]
  100011FF: E8 DE 04 00 00     call        100016E2
  10001204: 59                 pop         ecx
  10001205: C3                 ret
  10001206: 8B 75 E4           mov         esi,dword ptr [ebp-1Ch]
  10001209: E8 73 03 00 00     call        10001581
  1000120E: C3                 ret
  1000120F: 6A 07              push        7
  10001211: E8 17 05 00 00     call        1000172D
  10001216: CC                 int         3
  10001217: 6A 0C              push        0Ch
  10001219: 68 40 00 01 10     push        10010040h
  1000121E: E8 8D 06 00 00     call        100018B0
  10001223: 8B 7D 0C           mov         edi,dword ptr [ebp+0Ch]
  10001226: 85 FF              test        edi,edi
  10001228: 75 0F              jne         10001239
  1000122A: 39 3D 70 18 01 10  cmp         dword ptr ds:[10011870h],edi
  10001230: 7F 07              jg          10001239
  10001232: 33 C0              xor         eax,eax
  10001234: E9 D9 00 00 00     jmp         10001312
  10001239: 83 65 FC 00        and         dword ptr [ebp-4],0
  1000123D: 83 FF 01           cmp         edi,1
  10001240: 74 0A              je          1000124C
  10001242: 83 FF 02           cmp         edi,2
  10001245: 74 05              je          1000124C
  10001247: 8B 5D 10           mov         ebx,dword ptr [ebp+10h]
  1000124A: EB 31              jmp         1000127D
  1000124C: 8B 5D 10           mov         ebx,dword ptr [ebp+10h]
  1000124F: 53                 push        ebx
  10001250: 57                 push        edi
  10001251: FF 75 08           push        dword ptr [ebp+8]
  10001254: E8 C9 00 00 00     call        10001322
  10001259: 8B F0              mov         esi,eax
  1000125B: 89 75 E4           mov         dword ptr [ebp-1Ch],esi
  1000125E: 85 F6              test        esi,esi
  10001260: 0F 84 A3 00 00 00  je          10001309
  10001266: 53                 push        ebx
  10001267: 57                 push        edi
  10001268: FF 75 08           push        dword ptr [ebp+8]
  1000126B: E8 9D FD FF FF     call        1000100D
  10001270: 8B F0              mov         esi,eax
  10001272: 89 75 E4           mov         dword ptr [ebp-1Ch],esi
  10001275: 85 F6              test        esi,esi
  10001277: 0F 84 8C 00 00 00  je          10001309
  1000127D: 53                 push        ebx
  1000127E: 57                 push        edi
  1000127F: FF 75 08           push        dword ptr [ebp+8]
  10001282: E8 81 01 00 00     call        10001408
  10001287: 8B F0              mov         esi,eax
  10001289: 89 75 E4           mov         dword ptr [ebp-1Ch],esi
  1000128C: 83 FF 01           cmp         edi,1
  1000128F: 75 27              jne         100012B8
  10001291: 85 F6              test        esi,esi
  10001293: 75 23              jne         100012B8
  10001295: 53                 push        ebx
  10001296: 50                 push        eax
  10001297: FF 75 08           push        dword ptr [ebp+8]
  1000129A: E8 69 01 00 00     call        10001408
  1000129F: 85 DB              test        ebx,ebx
  100012A1: 0F 95 C0           setne       al
  100012A4: 0F B6 C0           movzx       eax,al
  100012A7: 50                 push        eax
  100012A8: E8 BA FE FF FF     call        10001167
  100012AD: 59                 pop         ecx
  100012AE: 53                 push        ebx
  100012AF: 56                 push        esi
  100012B0: FF 75 08           push        dword ptr [ebp+8]
  100012B3: E8 6A 00 00 00     call        10001322
  100012B8: 85 FF              test        edi,edi
  100012BA: 74 05              je          100012C1
  100012BC: 83 FF 03           cmp         edi,3
  100012BF: 75 48              jne         10001309
  100012C1: 53                 push        ebx
  100012C2: 57                 push        edi
  100012C3: FF 75 08           push        dword ptr [ebp+8]
  100012C6: E8 42 FD FF FF     call        1000100D
  100012CB: 8B F0              mov         esi,eax
  100012CD: 89 75 E4           mov         dword ptr [ebp-1Ch],esi
  100012D0: 85 F6              test        esi,esi
  100012D2: 74 35              je          10001309
  100012D4: 53                 push        ebx
  100012D5: 57                 push        edi
  100012D6: FF 75 08           push        dword ptr [ebp+8]
  100012D9: E8 44 00 00 00     call        10001322
  100012DE: 8B F0              mov         esi,eax
  100012E0: EB 24              jmp         10001306
  100012E2: 8B 4D EC           mov         ecx,dword ptr [ebp-14h]
  100012E5: 8B 01              mov         eax,dword ptr [ecx]
  100012E7: 51                 push        ecx
  100012E8: FF 30              push        dword ptr [eax]
  100012EA: 68 0D 10 00 10     push        1000100Dh
  100012EF: FF 75 10           push        dword ptr [ebp+10h]
  100012F2: FF 75 0C           push        dword ptr [ebp+0Ch]
  100012F5: FF 75 08           push        dword ptr [ebp+8]
  100012F8: E8 2D 02 00 00     call        1000152A
  100012FD: 83 C4 18           add         esp,18h
  10001300: C3                 ret
  10001301: 8B 65 E8           mov         esp,dword ptr [ebp-18h]
  10001304: 33 F6              xor         esi,esi
  10001306: 89 75 E4           mov         dword ptr [ebp-1Ch],esi
  10001309: C7 45 FC FE FF FF  mov         dword ptr [ebp-4],0FFFFFFFEh
            FF
  10001310: 8B C6              mov         eax,esi
  10001312: 8B 4D F0           mov         ecx,dword ptr [ebp-10h]
  10001315: 64 89 0D 00 00 00  mov         dword ptr fs:[00000000h],ecx
            00
  1000131C: 59                 pop         ecx
  1000131D: 5F                 pop         edi
  1000131E: 5E                 pop         esi
  1000131F: 5B                 pop         ebx
  10001320: C9                 leave
  10001321: C3                 ret
  10001322: 55                 push        ebp
  10001323: 8B EC              mov         ebp,esp
  10001325: 56                 push        esi
  10001326: 8B 35 50 B1 00 10  mov         esi,dword ptr ds:[1000B150h]
  1000132C: 85 F6              test        esi,esi
  1000132E: 75 05              jne         10001335
  10001330: 33 C0              xor         eax,eax
  10001332: 40                 inc         eax
  10001333: EB 13              jmp         10001348
  10001335: FF 75 10           push        dword ptr [ebp+10h]
  10001338: 8B CE              mov         ecx,esi
  1000133A: FF 75 0C           push        dword ptr [ebp+0Ch]
  1000133D: FF 75 08           push        dword ptr [ebp+8]
  10001340: FF 15 04 B1 00 10  call        dword ptr ds:[1000B104h]
  10001346: FF D6              call        esi
  10001348: 5E                 pop         esi
  10001349: 5D                 pop         ebp
  1000134A: C2 0C 00           ret         0Ch
  1000134D: 55                 push        ebp
  1000134E: 8B EC              mov         ebp,esp
  10001350: 83 7D 0C 01        cmp         dword ptr [ebp+0Ch],1
  10001354: 75 05              jne         1000135B
  10001356: E8 62 00 00 00     call        100013BD
  1000135B: FF 75 10           push        dword ptr [ebp+10h]
  1000135E: FF 75 0C           push        dword ptr [ebp+0Ch]
  10001361: FF 75 08           push        dword ptr [ebp+8]
  10001364: E8 AE FE FF FF     call        10001217
  10001369: 83 C4 0C           add         esp,0Ch
  1000136C: 5D                 pop         ebp
  1000136D: C2 0C 00           ret         0Ch
  10001370: 55                 push        ebp
  10001371: 8B EC              mov         ebp,esp
  10001373: 83 EC 14           sub         esp,14h
  10001376: 83 65 F4 00        and         dword ptr [ebp-0Ch],0
  1000137A: 8D 45 F4           lea         eax,[ebp-0Ch]
  1000137D: 83 65 F8 00        and         dword ptr [ebp-8],0
  10001381: 50                 push        eax
  10001382: FF 15 0C B0 00 10  call        dword ptr ds:[1000B00Ch]
  10001388: 8B 45 F8           mov         eax,dword ptr [ebp-8]
  1000138B: 33 45 F4           xor         eax,dword ptr [ebp-0Ch]
  1000138E: 89 45 FC           mov         dword ptr [ebp-4],eax
  10001391: FF 15 08 B0 00 10  call        dword ptr ds:[1000B008h]
  10001397: 31 45 FC           xor         dword ptr [ebp-4],eax
  1000139A: FF 15 04 B0 00 10  call        dword ptr ds:[1000B004h]
  100013A0: 31 45 FC           xor         dword ptr [ebp-4],eax
  100013A3: 8D 45 EC           lea         eax,[ebp-14h]
  100013A6: 50                 push        eax
  100013A7: FF 15 00 B0 00 10  call        dword ptr ds:[1000B000h]
  100013AD: 8B 45 F0           mov         eax,dword ptr [ebp-10h]
  100013B0: 8D 4D FC           lea         ecx,[ebp-4]
  100013B3: 33 45 EC           xor         eax,dword ptr [ebp-14h]
  100013B6: 33 45 FC           xor         eax,dword ptr [ebp-4]
  100013B9: 33 C1              xor         eax,ecx
  100013BB: C9                 leave
  100013BC: C3                 ret
  100013BD: 8B 0D 10 10 01 10  mov         ecx,dword ptr ds:[10011010h]
  100013C3: 56                 push        esi
  100013C4: 57                 push        edi
  100013C5: BF 4E E6 40 BB     mov         edi,0BB40E64Eh
  100013CA: BE 00 00 FF FF     mov         esi,0FFFF0000h
  100013CF: 3B CF              cmp         ecx,edi
  100013D1: 74 04              je          100013D7
  100013D3: 85 CE              test        esi,ecx
  100013D5: 75 26              jne         100013FD
  100013D7: E8 94 FF FF FF     call        10001370
  100013DC: 8B C8              mov         ecx,eax
  100013DE: 3B CF              cmp         ecx,edi
  100013E0: 75 07              jne         100013E9
  100013E2: B9 4F E6 40 BB     mov         ecx,0BB40E64Fh
  100013E7: EB 0E              jmp         100013F7
  100013E9: 85 CE              test        esi,ecx
  100013EB: 75 0A              jne         100013F7
  100013ED: 0D 11 47 00 00     or          eax,4711h
  100013F2: C1 E0 10           shl         eax,10h
  100013F5: 0B C8              or          ecx,eax
  100013F7: 89 0D 10 10 01 10  mov         dword ptr ds:[10011010h],ecx
  100013FD: F7 D1              not         ecx
  100013FF: 5F                 pop         edi
  10001400: 89 0D 14 10 01 10  mov         dword ptr ds:[10011014h],ecx
  10001406: 5E                 pop         esi
  10001407: C3                 ret
  10001408: 33 C0              xor         eax,eax
  1000140A: 40                 inc         eax
  1000140B: C2 0C 00           ret         0Ch
  1000140E: 68 78 18 01 10     push        10011878h
  10001413: FF 15 10 B0 00 10  call        dword ptr ds:[1000B010h]
  10001419: C3                 ret
  1000141A: 68 78 18 01 10     push        10011878h
  1000141F: E8 8A 09 00 00     call        10001DAE
  10001424: 59                 pop         ecx
  10001425: C3                 ret
  10001426: B8 80 18 01 10     mov         eax,10011880h
  1000142B: C3                 ret
  1000142C: B8 88 18 01 10     mov         eax,10011888h
  10001431: C3                 ret
  10001432: E8 EF FF FF FF     call        10001426
  10001437: 8B 48 04           mov         ecx,dword ptr [eax+4]
  1000143A: 83 08 24           or          dword ptr [eax],24h
  1000143D: 89 48 04           mov         dword ptr [eax+4],ecx
  10001440: E8 E7 FF FF FF     call        1000142C
  10001445: 8B 48 04           mov         ecx,dword ptr [eax+4]
  10001448: 83 08 02           or          dword ptr [eax],2
  1000144B: 89 48 04           mov         dword ptr [eax+4],ecx
  1000144E: C3                 ret
  1000144F: 55                 push        ebp
  10001450: 8B EC              mov         ebp,esp
  10001452: 8B 45 08           mov         eax,dword ptr [ebp+8]
  10001455: 56                 push        esi
  10001456: 8B 48 3C           mov         ecx,dword ptr [eax+3Ch]
  10001459: 03 C8              add         ecx,eax
  1000145B: 0F B7 41 14        movzx       eax,word ptr [ecx+14h]
  1000145F: 8D 51 18           lea         edx,[ecx+18h]
  10001462: 03 D0              add         edx,eax
  10001464: 0F B7 41 06        movzx       eax,word ptr [ecx+6]
  10001468: 6B F0 28           imul        esi,eax,28h
  1000146B: 03 F2              add         esi,edx
  1000146D: 3B D6              cmp         edx,esi
  1000146F: 74 19              je          1000148A
  10001471: 8B 4D 0C           mov         ecx,dword ptr [ebp+0Ch]
  10001474: 3B 4A 0C           cmp         ecx,dword ptr [edx+0Ch]
  10001477: 72 0A              jb          10001483
  10001479: 8B 42 08           mov         eax,dword ptr [edx+8]
  1000147C: 03 42 0C           add         eax,dword ptr [edx+0Ch]
  1000147F: 3B C8              cmp         ecx,eax
  10001481: 72 0C              jb          1000148F
  10001483: 83 C2 28           add         edx,28h
  10001486: 3B D6              cmp         edx,esi
  10001488: 75 EA              jne         10001474
  1000148A: 33 C0              xor         eax,eax
  1000148C: 5E                 pop         esi
  1000148D: 5D                 pop         ebp
  1000148E: C3                 ret
  1000148F: 8B C2              mov         eax,edx
  10001491: EB F9              jmp         1000148C
  10001493: 56                 push        esi
  10001494: E8 37 06 00 00     call        10001AD0
  10001499: 85 C0              test        eax,eax
  1000149B: 74 20              je          100014BD
  1000149D: 64 A1 18 00 00 00  mov         eax,dword ptr fs:[00000018h]
  100014A3: BE 94 18 01 10     mov         esi,10011894h
  100014A8: 8B 50 04           mov         edx,dword ptr [eax+4]
  100014AB: EB 04              jmp         100014B1
  100014AD: 3B D0              cmp         edx,eax
  100014AF: 74 10              je          100014C1
  100014B1: 33 C0              xor         eax,eax
  100014B3: 8B CA              mov         ecx,edx
  100014B5: F0 0F B1 0E        lock cmpxchg dword ptr [esi],ecx
  100014B9: 85 C0              test        eax,eax
  100014BB: 75 F0              jne         100014AD
  100014BD: 32 C0              xor         al,al
  100014BF: 5E                 pop         esi
  100014C0: C3                 ret
  100014C1: B0 01              mov         al,1
  100014C3: 5E                 pop         esi
  100014C4: C3                 ret
  100014C5: E8 06 06 00 00     call        10001AD0
  100014CA: 85 C0              test        eax,eax
  100014CC: 74 07              je          100014D5
  100014CE: E8 25 04 00 00     call        100018F8
  100014D3: EB 18              jmp         100014ED
  100014D5: E8 F2 05 00 00     call        10001ACC
  100014DA: 50                 push        eax
  100014DB: E8 65 1E 00 00     call        10003345
  100014E0: 59                 pop         ecx
  100014E1: 85 C0              test        eax,eax
  100014E3: 74 03              je          100014E8
  100014E5: 32 C0              xor         al,al
  100014E7: C3                 ret
  100014E8: E8 4B 20 00 00     call        10003538
  100014ED: B0 01              mov         al,1
  100014EF: C3                 ret
  100014F0: 6A 00              push        0
  100014F2: E8 D0 00 00 00     call        100015C7
  100014F7: 84 C0              test        al,al
  100014F9: 59                 pop         ecx
  100014FA: 0F 95 C0           setne       al
  100014FD: C3                 ret
  100014FE: E8 ED 08 00 00     call        10001DF0
  10001503: 84 C0              test        al,al
  10001505: 75 03              jne         1000150A
  10001507: 32 C0              xor         al,al
  10001509: C3                 ret
  1000150A: E8 E8 22 00 00     call        100037F7
  1000150F: 84 C0              test        al,al
  10001511: 75 07              jne         1000151A
  10001513: E8 E3 08 00 00     call        10001DFB
  10001518: EB ED              jmp         10001507
  1000151A: B0 01              mov         al,1
  1000151C: C3                 ret
  1000151D: E8 E0 22 00 00     call        10003802
  10001522: E8 D4 08 00 00     call        10001DFB
  10001527: B0 01              mov         al,1
  10001529: C3                 ret
  1000152A: 55                 push        ebp
  1000152B: 8B EC              mov         ebp,esp
  1000152D: E8 9E 05 00 00     call        10001AD0
  10001532: 85 C0              test        eax,eax
  10001534: 75 19              jne         1000154F
  10001536: 83 7D 0C 01        cmp         dword ptr [ebp+0Ch],1
  1000153A: 75 13              jne         1000154F
  1000153C: FF 75 10           push        dword ptr [ebp+10h]
  1000153F: 8B 4D 14           mov         ecx,dword ptr [ebp+14h]
  10001542: 50                 push        eax
  10001543: FF 75 08           push        dword ptr [ebp+8]
  10001546: FF 15 04 B1 00 10  call        dword ptr ds:[1000B104h]
  1000154C: FF 55 14           call        dword ptr [ebp+14h]
  1000154F: FF 75 1C           push        dword ptr [ebp+1Ch]
  10001552: FF 75 18           push        dword ptr [ebp+18h]
  10001555: E8 C9 16 00 00     call        10002C23
  1000155A: 59                 pop         ecx
  1000155B: 59                 pop         ecx
  1000155C: 5D                 pop         ebp
  1000155D: C3                 ret
  1000155E: E8 6D 05 00 00     call        10001AD0
  10001563: 85 C0              test        eax,eax
  10001565: 74 0C              je          10001573
  10001567: 68 9C 18 01 10     push        1001189Ch
  1000156C: E8 01 21 00 00     call        10003672
  10001571: 59                 pop         ecx
  10001572: C3                 ret
  10001573: E8 CD 1A 00 00     call        10003045
  10001578: 85 C0              test        eax,eax
  1000157A: 0F 84 A0 1A 00 00  je          10003020
  10001580: C3                 ret
  10001581: 6A 00              push        0
  10001583: E8 B2 22 00 00     call        1000383A
  10001588: 59                 pop         ecx
  10001589: E9 8F 08 00 00     jmp         10001E1D
  1000158E: 55                 push        ebp
  1000158F: 8B EC              mov         ebp,esp
  10001591: 83 7D 08 00        cmp         dword ptr [ebp+8],0
  10001595: 75 07              jne         1000159E
  10001597: C6 05 98 18 01 10  mov         byte ptr ds:[10011898h],1
            01
  1000159E: E8 55 03 00 00     call        100018F8
  100015A3: E8 29 08 00 00     call        10001DD1
  100015A8: 84 C0              test        al,al
  100015AA: 75 04              jne         100015B0
  100015AC: 32 C0              xor         al,al
  100015AE: 5D                 pop         ebp
  100015AF: C3                 ret
  100015B0: E8 30 22 00 00     call        100037E5
  100015B5: 84 C0              test        al,al
  100015B7: 75 0A              jne         100015C3
  100015B9: 6A 00              push        0
  100015BB: E8 46 08 00 00     call        10001E06
  100015C0: 59                 pop         ecx
  100015C1: EB E9              jmp         100015AC
  100015C3: B0 01              mov         al,1
  100015C5: 5D                 pop         ebp
  100015C6: C3                 ret
  100015C7: 55                 push        ebp
  100015C8: 8B EC              mov         ebp,esp
  100015CA: 80 3D 99 18 01 10  cmp         byte ptr ds:[10011899h],0
            00
  100015D1: 74 04              je          100015D7
  100015D3: B0 01              mov         al,1
  100015D5: 5D                 pop         ebp
  100015D6: C3                 ret
  100015D7: 56                 push        esi
  100015D8: 8B 75 08           mov         esi,dword ptr [ebp+8]
  100015DB: 85 F6              test        esi,esi
  100015DD: 74 05              je          100015E4
  100015DF: 83 FE 01           cmp         esi,1
  100015E2: 75 62              jne         10001646
  100015E4: E8 E7 04 00 00     call        10001AD0
  100015E9: 85 C0              test        eax,eax
  100015EB: 74 26              je          10001613
  100015ED: 85 F6              test        esi,esi
  100015EF: 75 22              jne         10001613
  100015F1: 68 9C 18 01 10     push        1001189Ch
  100015F6: E8 A4 20 00 00     call        1000369F
  100015FB: 59                 pop         ecx
  100015FC: 85 C0              test        eax,eax
  100015FE: 75 0F              jne         1000160F
  10001600: 68 A8 18 01 10     push        100118A8h
  10001605: E8 95 20 00 00     call        1000369F
  1000160A: 59                 pop         ecx
  1000160B: 85 C0              test        eax,eax
  1000160D: 74 2B              je          1000163A
  1000160F: 32 C0              xor         al,al
  10001611: EB 30              jmp         10001643
  10001613: 83 C9 FF           or          ecx,0FFFFFFFFh
  10001616: 89 0D 9C 18 01 10  mov         dword ptr ds:[1001189Ch],ecx
  1000161C: 89 0D A0 18 01 10  mov         dword ptr ds:[100118A0h],ecx
  10001622: 89 0D A4 18 01 10  mov         dword ptr ds:[100118A4h],ecx
  10001628: 89 0D A8 18 01 10  mov         dword ptr ds:[100118A8h],ecx
  1000162E: 89 0D AC 18 01 10  mov         dword ptr ds:[100118ACh],ecx
  10001634: 89 0D B0 18 01 10  mov         dword ptr ds:[100118B0h],ecx
  1000163A: C6 05 99 18 01 10  mov         byte ptr ds:[10011899h],1
            01
  10001641: B0 01              mov         al,1
  10001643: 5E                 pop         esi
  10001644: 5D                 pop         ebp
  10001645: C3                 ret
  10001646: 6A 05              push        5
  10001648: E8 E0 00 00 00     call        1000172D
  1000164D: CC                 int         3
  1000164E: 6A 08              push        8
  10001650: 68 60 00 01 10     push        10010060h
  10001655: E8 56 02 00 00     call        100018B0
  1000165A: 83 65 FC 00        and         dword ptr [ebp-4],0
  1000165E: B8 4D 5A 00 00     mov         eax,5A4Dh
  10001663: 66 39 05 00 00 00  cmp         word ptr ds:[10000000h],ax
            10
  1000166A: 75 5D              jne         100016C9
  1000166C: A1 3C 00 00 10     mov         eax,dword ptr ds:[1000003Ch]
  10001671: 81 B8 00 00 00 10  cmp         dword ptr [eax+10000000h],4550h
            50 45 00 00
  1000167B: 75 4C              jne         100016C9
  1000167D: B9 0B 01 00 00     mov         ecx,10Bh
  10001682: 66 39 88 18 00 00  cmp         word ptr [eax+10000018h],cx
            10
  10001689: 75 3E              jne         100016C9
  1000168B: 8B 45 08           mov         eax,dword ptr [ebp+8]
  1000168E: B9 00 00 00 10     mov         ecx,10000000h
  10001693: 2B C1              sub         eax,ecx
  10001695: 50                 push        eax
  10001696: 51                 push        ecx
  10001697: E8 B3 FD FF FF     call        1000144F
  1000169C: 59                 pop         ecx
  1000169D: 59                 pop         ecx
  1000169E: 85 C0              test        eax,eax
  100016A0: 74 27              je          100016C9
  100016A2: 83 78 24 00        cmp         dword ptr [eax+24h],0
  100016A6: 7C 21              jl          100016C9
  100016A8: C7 45 FC FE FF FF  mov         dword ptr [ebp-4],0FFFFFFFEh
            FF
  100016AF: B0 01              mov         al,1
  100016B1: EB 1F              jmp         100016D2
  100016B3: 8B 45 EC           mov         eax,dword ptr [ebp-14h]
  100016B6: 8B 00              mov         eax,dword ptr [eax]
  100016B8: 33 C9              xor         ecx,ecx
  100016BA: 81 38 05 00 00 C0  cmp         dword ptr [eax],0C0000005h
  100016C0: 0F 94 C1           sete        cl
  100016C3: 8B C1              mov         eax,ecx
  100016C5: C3                 ret
  100016C6: 8B 65 E8           mov         esp,dword ptr [ebp-18h]
  100016C9: C7 45 FC FE FF FF  mov         dword ptr [ebp-4],0FFFFFFFEh
            FF
  100016D0: 32 C0              xor         al,al
  100016D2: 8B 4D F0           mov         ecx,dword ptr [ebp-10h]
  100016D5: 64 89 0D 00 00 00  mov         dword ptr fs:[00000000h],ecx
            00
  100016DC: 59                 pop         ecx
  100016DD: 5F                 pop         edi
  100016DE: 5E                 pop         esi
  100016DF: 5B                 pop         ebx
  100016E0: C9                 leave
  100016E1: C3                 ret
  100016E2: 55                 push        ebp
  100016E3: 8B EC              mov         ebp,esp
  100016E5: E8 E6 03 00 00     call        10001AD0
  100016EA: 85 C0              test        eax,eax
  100016EC: 74 0F              je          100016FD
  100016EE: 80 7D 08 00        cmp         byte ptr [ebp+8],0
  100016F2: 75 09              jne         100016FD
  100016F4: 33 C0              xor         eax,eax
  100016F6: B9 94 18 01 10     mov         ecx,10011894h
  100016FB: 87 01              xchg        eax,dword ptr [ecx]
  100016FD: 5D                 pop         ebp
  100016FE: C3                 ret
  100016FF: 55                 push        ebp
  10001700: 8B EC              mov         ebp,esp
  10001702: 80 3D 98 18 01 10  cmp         byte ptr ds:[10011898h],0
            00
  10001709: 74 06              je          10001711
  1000170B: 80 7D 0C 00        cmp         byte ptr [ebp+0Ch],0
  1000170F: 75 12              jne         10001723
  10001711: FF 75 08           push        dword ptr [ebp+8]
  10001714: E8 F1 20 00 00     call        1000380A
  10001719: FF 75 08           push        dword ptr [ebp+8]
  1000171C: E8 E5 06 00 00     call        10001E06
  10001721: 59                 pop         ecx
  10001722: 59                 pop         ecx
  10001723: B0 01              mov         al,1
  10001725: 5D                 pop         ebp
  10001726: C3                 ret
  10001727: B8 88 22 01 10     mov         eax,10012288h
  1000172C: C3                 ret
  1000172D: 55                 push        ebp
  1000172E: 8B EC              mov         ebp,esp
  10001730: 81 EC 24 03 00 00  sub         esp,324h
  10001736: 53                 push        ebx
  10001737: 6A 17              push        17h
  10001739: FF 15 24 B0 00 10  call        dword ptr ds:[1000B024h]
  1000173F: 85 C0              test        eax,eax
  10001741: 74 05              je          10001748
  10001743: 8B 4D 08           mov         ecx,dword ptr [ebp+8]
  10001746: CD 29              int         29h
  10001748: 6A 03              push        3
  1000174A: E8 F9 00 00 00     call        10001848
  1000174F: C7 04 24 CC 02 00  mov         dword ptr [esp],2CCh
            00
  10001756: 8D 85 DC FC FF FF  lea         eax,[ebp+FFFFFCDCh]
  1000175C: 6A 00              push        0
  1000175E: 50                 push        eax
  1000175F: E8 CC 07 00 00     call        10001F30
  10001764: 83 C4 0C           add         esp,0Ch
  10001767: 89 85 8C FD FF FF  mov         dword ptr [ebp+FFFFFD8Ch],eax
  1000176D: 89 8D 88 FD FF FF  mov         dword ptr [ebp+FFFFFD88h],ecx
  10001773: 89 95 84 FD FF FF  mov         dword ptr [ebp+FFFFFD84h],edx
  10001779: 89 9D 80 FD FF FF  mov         dword ptr [ebp+FFFFFD80h],ebx
  1000177F: 89 B5 7C FD FF FF  mov         dword ptr [ebp+FFFFFD7Ch],esi
  10001785: 89 BD 78 FD FF FF  mov         dword ptr [ebp+FFFFFD78h],edi
  1000178B: 66 8C 95 A4 FD FF  mov         word ptr [ebp+FFFFFDA4h],ss
            FF
  10001792: 66 8C 8D 98 FD FF  mov         word ptr [ebp+FFFFFD98h],cs
            FF
  10001799: 66 8C 9D 74 FD FF  mov         word ptr [ebp+FFFFFD74h],ds
            FF
  100017A0: 66 8C 85 70 FD FF  mov         word ptr [ebp+FFFFFD70h],es
            FF
  100017A7: 66 8C A5 6C FD FF  mov         word ptr [ebp+FFFFFD6Ch],fs
            FF
  100017AE: 66 8C AD 68 FD FF  mov         word ptr [ebp+FFFFFD68h],gs
            FF
  100017B5: 9C                 pushfd
  100017B6: 8F 85 9C FD FF FF  pop         dword ptr [ebp+FFFFFD9Ch]
  100017BC: 8B 45 04           mov         eax,dword ptr [ebp+4]
  100017BF: 89 85 94 FD FF FF  mov         dword ptr [ebp+FFFFFD94h],eax
  100017C5: 8D 45 04           lea         eax,[ebp+4]
  100017C8: 89 85 A0 FD FF FF  mov         dword ptr [ebp+FFFFFDA0h],eax
  100017CE: C7 85 DC FC FF FF  mov         dword ptr [ebp+FFFFFCDCh],10001h
            01 00 01 00
  100017D8: 8B 40 FC           mov         eax,dword ptr [eax-4]
  100017DB: 6A 50              push        50h
  100017DD: 89 85 90 FD FF FF  mov         dword ptr [ebp+FFFFFD90h],eax
  100017E3: 8D 45 A8           lea         eax,[ebp-58h]
  100017E6: 6A 00              push        0
  100017E8: 50                 push        eax
  100017E9: E8 42 07 00 00     call        10001F30
  100017EE: 8B 45 04           mov         eax,dword ptr [ebp+4]
  100017F1: 83 C4 0C           add         esp,0Ch
  100017F4: C7 45 A8 15 00 00  mov         dword ptr [ebp-58h],40000015h
            40
  100017FB: C7 45 AC 01 00 00  mov         dword ptr [ebp-54h],1
            00
  10001802: 89 45 B4           mov         dword ptr [ebp-4Ch],eax
  10001805: FF 15 14 B0 00 10  call        dword ptr ds:[1000B014h]
  1000180B: 6A 00              push        0
  1000180D: 8D 58 FF           lea         ebx,[eax-1]
  10001810: F7 DB              neg         ebx
  10001812: 8D 45 A8           lea         eax,[ebp-58h]
  10001815: 89 45 F8           mov         dword ptr [ebp-8],eax
  10001818: 8D 85 DC FC FF FF  lea         eax,[ebp+FFFFFCDCh]
  1000181E: 1A DB              sbb         bl,bl
  10001820: 89 45 FC           mov         dword ptr [ebp-4],eax
  10001823: FE C3              inc         bl
  10001825: FF 15 1C B0 00 10  call        dword ptr ds:[1000B01Ch]
  1000182B: 8D 45 F8           lea         eax,[ebp-8]
  1000182E: 50                 push        eax
  1000182F: FF 15 18 B0 00 10  call        dword ptr ds:[1000B018h]
  10001835: 85 C0              test        eax,eax
  10001837: 75 0C              jne         10001845
  10001839: 84 DB              test        bl,bl
  1000183B: 75 08              jne         10001845
  1000183D: 6A 03              push        3
  1000183F: E8 04 00 00 00     call        10001848
  10001844: 59                 pop         ecx
  10001845: 5B                 pop         ebx
  10001846: C9                 leave
  10001847: C3                 ret
  10001848: 83 25 B4 18 01 10  and         dword ptr ds:[100118B4h],0
            00
  1000184F: C3                 ret
  10001850: 53                 push        ebx
  10001851: 56                 push        esi
  10001852: BE E8 FF 00 10     mov         esi,1000FFE8h
  10001857: BB E8 FF 00 10     mov         ebx,1000FFE8h
  1000185C: 3B F3              cmp         esi,ebx
  1000185E: 73 19              jae         10001879
  10001860: 57                 push        edi
  10001861: 8B 3E              mov         edi,dword ptr [esi]
  10001863: 85 FF              test        edi,edi
  10001865: 74 0A              je          10001871
  10001867: 8B CF              mov         ecx,edi
  10001869: FF 15 04 B1 00 10  call        dword ptr ds:[1000B104h]
  1000186F: FF D7              call        edi
  10001871: 83 C6 04           add         esi,4
  10001874: 3B F3              cmp         esi,ebx
  10001876: 72 E9              jb          10001861
  10001878: 5F                 pop         edi
  10001879: 5E                 pop         esi
  1000187A: 5B                 pop         ebx
  1000187B: C3                 ret
  1000187C: 53                 push        ebx
  1000187D: 56                 push        esi
  1000187E: BE F0 FF 00 10     mov         esi,1000FFF0h
  10001883: BB F0 FF 00 10     mov         ebx,1000FFF0h
  10001888: 3B F3              cmp         esi,ebx
  1000188A: 73 19              jae         100018A5
  1000188C: 57                 push        edi
  1000188D: 8B 3E              mov         edi,dword ptr [esi]
  1000188F: 85 FF              test        edi,edi
  10001891: 74 0A              je          1000189D
  10001893: 8B CF              mov         ecx,edi
  10001895: FF 15 04 B1 00 10  call        dword ptr ds:[1000B104h]
  1000189B: FF D7              call        edi
  1000189D: 83 C6 04           add         esi,4
  100018A0: 3B F3              cmp         esi,ebx
  100018A2: 72 E9              jb          1000188D
  100018A4: 5F                 pop         edi
  100018A5: 5E                 pop         esi
  100018A6: 5B                 pop         ebx
  100018A7: C3                 ret
  100018A8: CC                 int         3
  100018A9: CC                 int         3
  100018AA: CC                 int         3
  100018AB: CC                 int         3
  100018AC: CC                 int         3
  100018AD: CC                 int         3
  100018AE: CC                 int         3
  100018AF: CC                 int         3
  100018B0: 68 50 1C 00 10     push        10001C50h
  100018B5: 64 FF 35 00 00 00  push        dword ptr fs:[00000000h]
            00
  100018BC: 8B 44 24 10        mov         eax,dword ptr [esp+10h]
  100018C0: 89 6C 24 10        mov         dword ptr [esp+10h],ebp
  100018C4: 8D 6C 24 10        lea         ebp,[esp+10h]
  100018C8: 2B E0              sub         esp,eax
  100018CA: 53                 push        ebx
  100018CB: 56                 push        esi
  100018CC: 57                 push        edi
  100018CD: A1 10 10 01 10     mov         eax,dword ptr ds:[10011010h]
  100018D2: 31 45 FC           xor         dword ptr [ebp-4],eax
  100018D5: 33 C5              xor         eax,ebp
  100018D7: 50                 push        eax
  100018D8: 89 65 E8           mov         dword ptr [ebp-18h],esp
  100018DB: FF 75 F8           push        dword ptr [ebp-8]
  100018DE: 8B 45 FC           mov         eax,dword ptr [ebp-4]
  100018E1: C7 45 FC FE FF FF  mov         dword ptr [ebp-4],0FFFFFFFEh
            FF
  100018E8: 89 45 F8           mov         dword ptr [ebp-8],eax
  100018EB: 8D 45 F0           lea         eax,[ebp-10h]
  100018EE: 64 A3 00 00 00 00  mov         dword ptr fs:[00000000h],eax
  100018F4: C3                 ret
  100018F5: C2 00 00           ret         0
  100018F8: 55                 push        ebp
  100018F9: 8B EC              mov         ebp,esp
  100018FB: 83 25 B8 18 01 10  and         dword ptr ds:[100118B8h],0
            00
  10001902: 83 EC 24           sub         esp,24h
  10001905: 83 0D 18 10 01 10  or          dword ptr ds:[10011018h],1
            01
  1000190C: 6A 0A              push        0Ah
  1000190E: FF 15 24 B0 00 10  call        dword ptr ds:[1000B024h]
  10001914: 85 C0              test        eax,eax
  10001916: 0F 84 AC 01 00 00  je          10001AC8
  1000191C: 83 65 F0 00        and         dword ptr [ebp-10h],0
  10001920: 33 C0              xor         eax,eax
  10001922: 53                 push        ebx
  10001923: 56                 push        esi
  10001924: 57                 push        edi
  10001925: 33 C9              xor         ecx,ecx
  10001927: 8D 7D DC           lea         edi,[ebp-24h]
  1000192A: 53                 push        ebx
  1000192B: 0F A2              cpuid
  1000192D: 8B F3              mov         esi,ebx
  1000192F: 5B                 pop         ebx
  10001930: 90                 nop
  10001931: 89 07              mov         dword ptr [edi],eax
  10001933: 89 77 04           mov         dword ptr [edi+4],esi
  10001936: 89 4F 08           mov         dword ptr [edi+8],ecx
  10001939: 33 C9              xor         ecx,ecx
  1000193B: 89 57 0C           mov         dword ptr [edi+0Ch],edx
  1000193E: 8B 45 DC           mov         eax,dword ptr [ebp-24h]
  10001941: 8B 7D E0           mov         edi,dword ptr [ebp-20h]
  10001944: 89 45 F4           mov         dword ptr [ebp-0Ch],eax
  10001947: 81 F7 47 65 6E 75  xor         edi,756E6547h
  1000194D: 8B 45 E8           mov         eax,dword ptr [ebp-18h]
  10001950: 35 69 6E 65 49     xor         eax,49656E69h
  10001955: 89 45 FC           mov         dword ptr [ebp-4],eax
  10001958: 8B 45 E4           mov         eax,dword ptr [ebp-1Ch]
  1000195B: 35 6E 74 65 6C     xor         eax,6C65746Eh
  10001960: 89 45 F8           mov         dword ptr [ebp-8],eax
  10001963: 33 C0              xor         eax,eax
  10001965: 40                 inc         eax
  10001966: 53                 push        ebx
  10001967: 0F A2              cpuid
  10001969: 8B F3              mov         esi,ebx
  1000196B: 5B                 pop         ebx
  1000196C: 90                 nop
  1000196D: 8D 5D DC           lea         ebx,[ebp-24h]
  10001970: 89 03              mov         dword ptr [ebx],eax
  10001972: 8B 45 FC           mov         eax,dword ptr [ebp-4]
  10001975: 0B 45 F8           or          eax,dword ptr [ebp-8]
  10001978: 0B C7              or          eax,edi
  1000197A: 89 73 04           mov         dword ptr [ebx+4],esi
  1000197D: 89 4B 08           mov         dword ptr [ebx+8],ecx
  10001980: 89 53 0C           mov         dword ptr [ebx+0Ch],edx
  10001983: 75 43              jne         100019C8
  10001985: 8B 45 DC           mov         eax,dword ptr [ebp-24h]
  10001988: 25 F0 3F FF 0F     and         eax,0FFF3FF0h
  1000198D: 3D C0 06 01 00     cmp         eax,106C0h
  10001992: 74 23              je          100019B7
  10001994: 3D 60 06 02 00     cmp         eax,20660h
  10001999: 74 1C              je          100019B7
  1000199B: 3D 70 06 02 00     cmp         eax,20670h
  100019A0: 74 15              je          100019B7
  100019A2: 3D 50 06 03 00     cmp         eax,30650h
  100019A7: 74 0E              je          100019B7
  100019A9: 3D 60 06 03 00     cmp         eax,30660h
  100019AE: 74 07              je          100019B7
  100019B0: 3D 70 06 03 00     cmp         eax,30670h
  100019B5: 75 11              jne         100019C8
  100019B7: 8B 3D BC 18 01 10  mov         edi,dword ptr ds:[100118BCh]
  100019BD: 83 CF 01           or          edi,1
  100019C0: 89 3D BC 18 01 10  mov         dword ptr ds:[100118BCh],edi
  100019C6: EB 06              jmp         100019CE
  100019C8: 8B 3D BC 18 01 10  mov         edi,dword ptr ds:[100118BCh]
  100019CE: 8B 4D E4           mov         ecx,dword ptr [ebp-1Ch]
  100019D1: 6A 07              push        7
  100019D3: 58                 pop         eax
  100019D4: 89 4D FC           mov         dword ptr [ebp-4],ecx
  100019D7: 39 45 F4           cmp         dword ptr [ebp-0Ch],eax
  100019DA: 7C 30              jl          10001A0C
  100019DC: 33 C9              xor         ecx,ecx
  100019DE: 53                 push        ebx
  100019DF: 0F A2              cpuid
  100019E1: 8B F3              mov         esi,ebx
  100019E3: 5B                 pop         ebx
  100019E4: 90                 nop
  100019E5: 8D 5D DC           lea         ebx,[ebp-24h]
  100019E8: 89 03              mov         dword ptr [ebx],eax
  100019EA: 89 73 04           mov         dword ptr [ebx+4],esi
  100019ED: 89 4B 08           mov         dword ptr [ebx+8],ecx
  100019F0: 8B 4D FC           mov         ecx,dword ptr [ebp-4]
  100019F3: 89 53 0C           mov         dword ptr [ebx+0Ch],edx
  100019F6: 8B 5D E0           mov         ebx,dword ptr [ebp-20h]
  100019F9: F7 C3 00 02 00 00  test        ebx,200h
  100019FF: 74 0E              je          10001A0F
  10001A01: 83 CF 02           or          edi,2
  10001A04: 89 3D BC 18 01 10  mov         dword ptr ds:[100118BCh],edi
  10001A0A: EB 03              jmp         10001A0F
  10001A0C: 8B 5D F0           mov         ebx,dword ptr [ebp-10h]
  10001A0F: A1 18 10 01 10     mov         eax,dword ptr ds:[10011018h]
  10001A14: 83 C8 02           or          eax,2
  10001A17: C7 05 B8 18 01 10  mov         dword ptr ds:[100118B8h],1
            01 00 00 00
  10001A21: A3 18 10 01 10     mov         dword ptr ds:[10011018h],eax
  10001A26: F7 C1 00 00 10 00  test        ecx,100000h
  10001A2C: 0F 84 93 00 00 00  je          10001AC5
  10001A32: 83 C8 04           or          eax,4
  10001A35: C7 05 B8 18 01 10  mov         dword ptr ds:[100118B8h],2
            02 00 00 00
  10001A3F: A3 18 10 01 10     mov         dword ptr ds:[10011018h],eax
  10001A44: F7 C1 00 00 00 08  test        ecx,8000000h
  10001A4A: 74 79              je          10001AC5
  10001A4C: F7 C1 00 00 00 10  test        ecx,10000000h
  10001A52: 74 71              je          10001AC5
  10001A54: 33 C9              xor         ecx,ecx
  10001A56: 0F 01 D0           xgetbv
  10001A59: 89 45 EC           mov         dword ptr [ebp-14h],eax
  10001A5C: 89 55 F0           mov         dword ptr [ebp-10h],edx
  10001A5F: 8B 45 EC           mov         eax,dword ptr [ebp-14h]
  10001A62: 8B 4D F0           mov         ecx,dword ptr [ebp-10h]
  10001A65: 6A 06              push        6
  10001A67: 5E                 pop         esi
  10001A68: 23 C6              and         eax,esi
  10001A6A: 3B C6              cmp         eax,esi
  10001A6C: 75 57              jne         10001AC5
  10001A6E: A1 18 10 01 10     mov         eax,dword ptr ds:[10011018h]
  10001A73: 83 C8 08           or          eax,8
  10001A76: C7 05 B8 18 01 10  mov         dword ptr ds:[100118B8h],3
            03 00 00 00
  10001A80: A3 18 10 01 10     mov         dword ptr ds:[10011018h],eax
  10001A85: F6 C3 20           test        bl,20h
  10001A88: 74 3B              je          10001AC5
  10001A8A: 83 C8 20           or          eax,20h
  10001A8D: C7 05 B8 18 01 10  mov         dword ptr ds:[100118B8h],5
            05 00 00 00
  10001A97: A3 18 10 01 10     mov         dword ptr ds:[10011018h],eax
  10001A9C: B8 00 00 03 D0     mov         eax,0D0030000h
  10001AA1: 23 D8              and         ebx,eax
  10001AA3: 3B D8              cmp         ebx,eax
  10001AA5: 75 1E              jne         10001AC5
  10001AA7: 8B 45 EC           mov         eax,dword ptr [ebp-14h]
  10001AAA: BA E0 00 00 00     mov         edx,0E0h
  10001AAF: 8B 4D F0           mov         ecx,dword ptr [ebp-10h]
  10001AB2: 23 C2              and         eax,edx
  10001AB4: 3B C2              cmp         eax,edx
  10001AB6: 75 0D              jne         10001AC5
  10001AB8: 83 0D 18 10 01 10  or          dword ptr ds:[10011018h],40h
            40
  10001ABF: 89 35 B8 18 01 10  mov         dword ptr ds:[100118B8h],esi
  10001AC5: 5F                 pop         edi
  10001AC6: 5E                 pop         esi
  10001AC7: 5B                 pop         ebx
  10001AC8: 33 C0              xor         eax,eax
  10001ACA: C9                 leave
  10001ACB: C3                 ret
  10001ACC: 33 C0              xor         eax,eax
  10001ACE: 40                 inc         eax
  10001ACF: C3                 ret
  10001AD0: 33 C0              xor         eax,eax
  10001AD2: 39 05 84 22 01 10  cmp         dword ptr ds:[10012284h],eax
  10001AD8: 0F 95 C0           setne       al
  10001ADB: C3                 ret
  10001ADC: 3B 0D 10 10 01 10  cmp         ecx,dword ptr ds:[10011010h]
  10001AE2: 75 01              jne         10001AE5
  10001AE4: C3                 ret
  10001AE5: E9 28 00 00 00     jmp         10001B12
  10001AEA: 55                 push        ebp
  10001AEB: 8B EC              mov         ebp,esp
  10001AED: 6A 00              push        0
  10001AEF: FF 15 1C B0 00 10  call        dword ptr ds:[1000B01Ch]
  10001AF5: FF 75 08           push        dword ptr [ebp+8]
  10001AF8: FF 15 18 B0 00 10  call        dword ptr ds:[1000B018h]
  10001AFE: 68 09 04 00 C0     push        0C0000409h
  10001B03: FF 15 2C B0 00 10  call        dword ptr ds:[1000B02Ch]
  10001B09: 50                 push        eax
  10001B0A: FF 15 30 B0 00 10  call        dword ptr ds:[1000B030h]
  10001B10: 5D                 pop         ebp
  10001B11: C3                 ret
  10001B12: 55                 push        ebp
  10001B13: 8B EC              mov         ebp,esp
  10001B15: 81 EC 24 03 00 00  sub         esp,324h
  10001B1B: 6A 17              push        17h
  10001B1D: FF 15 24 B0 00 10  call        dword ptr ds:[1000B024h]
  10001B23: 85 C0              test        eax,eax
  10001B25: 74 05              je          10001B2C
  10001B27: 6A 02              push        2
  10001B29: 59                 pop         ecx
  10001B2A: CD 29              int         29h
  10001B2C: A3 C0 19 01 10     mov         dword ptr ds:[100119C0h],eax
  10001B31: 89 0D BC 19 01 10  mov         dword ptr ds:[100119BCh],ecx
  10001B37: 89 15 B8 19 01 10  mov         dword ptr ds:[100119B8h],edx
  10001B3D: 89 1D B4 19 01 10  mov         dword ptr ds:[100119B4h],ebx
  10001B43: 89 35 B0 19 01 10  mov         dword ptr ds:[100119B0h],esi
  10001B49: 89 3D AC 19 01 10  mov         dword ptr ds:[100119ACh],edi
  10001B4F: 66 8C 15 D8 19 01  mov         word ptr ds:[100119D8h],ss
            10
  10001B56: 66 8C 0D CC 19 01  mov         word ptr ds:[100119CCh],cs
            10
  10001B5D: 66 8C 1D A8 19 01  mov         word ptr ds:[100119A8h],ds
            10
  10001B64: 66 8C 05 A4 19 01  mov         word ptr ds:[100119A4h],es
            10
  10001B6B: 66 8C 25 A0 19 01  mov         word ptr ds:[100119A0h],fs
            10
  10001B72: 66 8C 2D 9C 19 01  mov         word ptr ds:[1001199Ch],gs
            10
  10001B79: 9C                 pushfd
  10001B7A: 8F 05 D0 19 01 10  pop         dword ptr ds:[100119D0h]
  10001B80: 8B 45 00           mov         eax,dword ptr [ebp]
  10001B83: A3 C4 19 01 10     mov         dword ptr ds:[100119C4h],eax
  10001B88: 8B 45 04           mov         eax,dword ptr [ebp+4]
  10001B8B: A3 C8 19 01 10     mov         dword ptr ds:[100119C8h],eax
  10001B90: 8D 45 08           lea         eax,[ebp+8]
  10001B93: A3 D4 19 01 10     mov         dword ptr ds:[100119D4h],eax
  10001B98: 8B 85 DC FC FF FF  mov         eax,dword ptr [ebp+FFFFFCDCh]
  10001B9E: C7 05 10 19 01 10  mov         dword ptr ds:[10011910h],10001h
            01 00 01 00
  10001BA8: A1 C8 19 01 10     mov         eax,dword ptr ds:[100119C8h]
  10001BAD: A3 CC 18 01 10     mov         dword ptr ds:[100118CCh],eax
  10001BB2: C7 05 C0 18 01 10  mov         dword ptr ds:[100118C0h],0C0000409h
            09 04 00 C0
  10001BBC: C7 05 C4 18 01 10  mov         dword ptr ds:[100118C4h],1
            01 00 00 00
  10001BC6: C7 05 D0 18 01 10  mov         dword ptr ds:[100118D0h],1
            01 00 00 00
  10001BD0: 6A 04              push        4
  10001BD2: 58                 pop         eax
  10001BD3: 6B C0 00           imul        eax,eax,0
  10001BD6: C7 80 D4 18 01 10  mov         dword ptr [eax+100118D4h],2
            02 00 00 00
  10001BE0: 6A 04              push        4
  10001BE2: 58                 pop         eax
  10001BE3: 6B C0 00           imul        eax,eax,0
  10001BE6: 8B 0D 10 10 01 10  mov         ecx,dword ptr ds:[10011010h]
  10001BEC: 89 4C 05 F8        mov         dword ptr [ebp+eax-8],ecx
  10001BF0: 6A 04              push        4
  10001BF2: 58                 pop         eax
  10001BF3: C1 E0 00           shl         eax,0
  10001BF6: 8B 0D 14 10 01 10  mov         ecx,dword ptr ds:[10011014h]
  10001BFC: 89 4C 05 F8        mov         dword ptr [ebp+eax-8],ecx
  10001C00: 68 54 B1 00 10     push        1000B154h
  10001C05: E8 E0 FE FF FF     call        10001AEA
  10001C0A: C9                 leave
  10001C0B: C3                 ret
  10001C0C: CC                 int         3
  10001C0D: CC                 int         3
  10001C0E: CC                 int         3
  10001C0F: CC                 int         3
  10001C10: 55                 push        ebp
  10001C11: 8B EC              mov         ebp,esp
  10001C13: 56                 push        esi
  10001C14: 8B 75 08           mov         esi,dword ptr [ebp+8]
  10001C17: 57                 push        edi
  10001C18: 8B 7D 0C           mov         edi,dword ptr [ebp+0Ch]
  10001C1B: 8B 06              mov         eax,dword ptr [esi]
  10001C1D: 83 F8 FE           cmp         eax,0FFFFFFFEh
  10001C20: 74 0D              je          10001C2F
  10001C22: 8B 4E 04           mov         ecx,dword ptr [esi+4]
  10001C25: 03 CF              add         ecx,edi
  10001C27: 33 0C 38           xor         ecx,dword ptr [eax+edi]
  10001C2A: E8 AD FE FF FF     call        10001ADC
  10001C2F: 8B 46 08           mov         eax,dword ptr [esi+8]
  10001C32: 8B 4E 0C           mov         ecx,dword ptr [esi+0Ch]
  10001C35: 03 CF              add         ecx,edi
  10001C37: 33 0C 38           xor         ecx,dword ptr [eax+edi]
  10001C3A: 5F                 pop         edi
  10001C3B: 5E                 pop         esi
  10001C3C: 5D                 pop         ebp
  10001C3D: E9 9A FE FF FF     jmp         10001ADC
  10001C42: CC                 int         3
  10001C43: CC                 int         3
  10001C44: CC                 int         3
  10001C45: CC                 int         3
  10001C46: CC                 int         3
  10001C47: CC                 int         3
  10001C48: CC                 int         3
  10001C49: CC                 int         3
  10001C4A: CC                 int         3
  10001C4B: CC                 int         3
  10001C4C: CC                 int         3
  10001C4D: CC                 int         3
  10001C4E: CC                 int         3
  10001C4F: CC                 int         3
  10001C50: 55                 push        ebp
  10001C51: 8B EC              mov         ebp,esp
  10001C53: 83 EC 1C           sub         esp,1Ch
  10001C56: 53                 push        ebx
  10001C57: 8B 5D 08           mov         ebx,dword ptr [ebp+8]
  10001C5A: 56                 push        esi
  10001C5B: 57                 push        edi
  10001C5C: C6 45 FF 00        mov         byte ptr [ebp-1],0
  10001C60: FF 33              push        dword ptr [ebx]
  10001C62: C7 45 F4 01 00 00  mov         dword ptr [ebp-0Ch],1
            00
  10001C69: E8 D2 92 00 00     call        1000AF40
  10001C6E: 89 03              mov         dword ptr [ebx],eax
  10001C70: 8B 5D 0C           mov         ebx,dword ptr [ebp+0Ch]
  10001C73: 8B 43 08           mov         eax,dword ptr [ebx+8]
  10001C76: 8D 73 10           lea         esi,[ebx+10h]
  10001C79: 33 05 10 10 01 10  xor         eax,dword ptr ds:[10011010h]
  10001C7F: 56                 push        esi
  10001C80: 50                 push        eax
  10001C81: 89 75 F0           mov         dword ptr [ebp-10h],esi
  10001C84: 89 45 F8           mov         dword ptr [ebp-8],eax
  10001C87: E8 84 FF FF FF     call        10001C10
  10001C8C: FF 75 10           push        dword ptr [ebp+10h]
  10001C8F: E8 63 05 00 00     call        100021F7
  10001C94: 8B 45 08           mov         eax,dword ptr [ebp+8]
  10001C97: 83 C4 10           add         esp,10h
  10001C9A: 8B 7B 0C           mov         edi,dword ptr [ebx+0Ch]
  10001C9D: F6 40 04 66        test        byte ptr [eax+4],66h
  10001CA1: 75 5A              jne         10001CFD
  10001CA3: 89 45 E4           mov         dword ptr [ebp-1Ch],eax
  10001CA6: 8B 45 10           mov         eax,dword ptr [ebp+10h]
  10001CA9: 89 45 E8           mov         dword ptr [ebp-18h],eax
  10001CAC: 8D 45 E4           lea         eax,[ebp-1Ch]
  10001CAF: 89 43 FC           mov         dword ptr [ebx-4],eax
  10001CB2: 83 FF FE           cmp         edi,0FFFFFFFEh
  10001CB5: 74 69              je          10001D20
  10001CB7: 8B 4D F8           mov         ecx,dword ptr [ebp-8]
  10001CBA: 8D 47 02           lea         eax,[edi+2]
  10001CBD: 8D 04 47           lea         eax,[edi+eax*2]
  10001CC0: 8B 1C 81           mov         ebx,dword ptr [ecx+eax*4]
  10001CC3: 8D 04 81           lea         eax,[ecx+eax*4]
  10001CC6: 8B 48 04           mov         ecx,dword ptr [eax+4]
  10001CC9: 89 45 EC           mov         dword ptr [ebp-14h],eax
  10001CCC: 85 C9              test        ecx,ecx
  10001CCE: 74 14              je          10001CE4
  10001CD0: 8B D6              mov         edx,esi
  10001CD2: E8 A9 04 00 00     call        10002180
  10001CD7: B1 01              mov         cl,1
  10001CD9: 88 4D FF           mov         byte ptr [ebp-1],cl
  10001CDC: 85 C0              test        eax,eax
  10001CDE: 78 14              js          10001CF4
  10001CE0: 7F 48              jg          10001D2A
  10001CE2: EB 03              jmp         10001CE7
  10001CE4: 8A 4D FF           mov         cl,byte ptr [ebp-1]
  10001CE7: 8B FB              mov         edi,ebx
  10001CE9: 83 FB FE           cmp         ebx,0FFFFFFFEh
  10001CEC: 75 C9              jne         10001CB7
  10001CEE: 84 C9              test        cl,cl
  10001CF0: 74 2E              je          10001D20
  10001CF2: EB 20              jmp         10001D14
  10001CF4: C7 45 F4 00 00 00  mov         dword ptr [ebp-0Ch],0
            00
  10001CFB: EB 17              jmp         10001D14
  10001CFD: 83 FF FE           cmp         edi,0FFFFFFFEh
  10001D00: 74 1E              je          10001D20
  10001D02: 68 10 10 01 10     push        10011010h
  10001D07: 56                 push        esi
  10001D08: BA FE FF FF FF     mov         edx,0FFFFFFFEh
  10001D0D: 8B CB              mov         ecx,ebx
  10001D0F: E8 CC 04 00 00     call        100021E0
  10001D14: 56                 push        esi
  10001D15: FF 75 F8           push        dword ptr [ebp-8]
  10001D18: E8 F3 FE FF FF     call        10001C10
  10001D1D: 83 C4 08           add         esp,8
  10001D20: 8B 45 F4           mov         eax,dword ptr [ebp-0Ch]
  10001D23: 5F                 pop         edi
  10001D24: 5E                 pop         esi
  10001D25: 5B                 pop         ebx
  10001D26: 8B E5              mov         esp,ebp
  10001D28: 5D                 pop         ebp
  10001D29: C3                 ret
  10001D2A: 8B 45 08           mov         eax,dword ptr [ebp+8]
  10001D2D: 81 38 63 73 6D E0  cmp         dword ptr [eax],0E06D7363h
  10001D33: 75 38              jne         10001D6D
  10001D35: 83 3D 5C B1 00 10  cmp         dword ptr ds:[1000B15Ch],0
            00
  10001D3C: 74 2F              je          10001D6D
  10001D3E: 68 5C B1 00 10     push        1000B15Ch
  10001D43: E8 98 90 00 00     call        1000ADE0
  10001D48: 83 C4 04           add         esp,4
  10001D4B: 85 C0              test        eax,eax
  10001D4D: 74 1B              je          10001D6A
  10001D4F: 8B 35 5C B1 00 10  mov         esi,dword ptr ds:[1000B15Ch]
  10001D55: 8B CE              mov         ecx,esi
  10001D57: 6A 01              push        1
  10001D59: FF 75 08           push        dword ptr [ebp+8]
  10001D5C: FF 15 04 B1 00 10  call        dword ptr ds:[1000B104h]
  10001D62: FF D6              call        esi
  10001D64: 8B 75 F0           mov         esi,dword ptr [ebp-10h]
  10001D67: 83 C4 08           add         esp,8
  10001D6A: 8B 45 08           mov         eax,dword ptr [ebp+8]
  10001D6D: 8B 4D 0C           mov         ecx,dword ptr [ebp+0Ch]
  10001D70: 8B D0              mov         edx,eax
  10001D72: E8 49 04 00 00     call        100021C0
  10001D77: 8B 45 0C           mov         eax,dword ptr [ebp+0Ch]
  10001D7A: 39 78 0C           cmp         dword ptr [eax+0Ch],edi
  10001D7D: 74 12              je          10001D91
  10001D7F: 68 10 10 01 10     push        10011010h
  10001D84: 56                 push        esi
  10001D85: 8B D7              mov         edx,edi
  10001D87: 8B C8              mov         ecx,eax
  10001D89: E8 52 04 00 00     call        100021E0
  10001D8E: 8B 45 0C           mov         eax,dword ptr [ebp+0Ch]
  10001D91: 56                 push        esi
  10001D92: FF 75 F8           push        dword ptr [ebp-8]
  10001D95: 89 58 0C           mov         dword ptr [eax+0Ch],ebx
  10001D98: E8 73 FE FF FF     call        10001C10
  10001D9D: 8B 4D EC           mov         ecx,dword ptr [ebp-14h]
  10001DA0: 83 C4 08           add         esp,8
  10001DA3: 8B D6              mov         edx,esi
  10001DA5: 8B 49 08           mov         ecx,dword ptr [ecx+8]
  10001DA8: E8 F3 03 00 00     call        100021A0
  10001DAD: CC                 int         3
  10001DAE: 55                 push        ebp
  10001DAF: 8B EC              mov         ebp,esp
  10001DB1: FF 75 08           push        dword ptr [ebp+8]
  10001DB4: FF 15 38 B0 00 10  call        dword ptr ds:[1000B038h]
  10001DBA: 85 C0              test        eax,eax
  10001DBC: 74 11              je          10001DCF
  10001DBE: 56                 push        esi
  10001DBF: 8B 30              mov         esi,dword ptr [eax]
  10001DC1: 50                 push        eax
  10001DC2: E8 C1 1A 00 00     call        10003888
  10001DC7: 8B C6              mov         eax,esi
  10001DC9: 59                 pop         ecx
  10001DCA: 85 F6              test        esi,esi
  10001DCC: 75 F1              jne         10001DBF
  10001DCE: 5E                 pop         esi
  10001DCF: 5D                 pop         ebp
  10001DD0: C3                 ret
  10001DD1: E8 91 05 00 00     call        10002367
  10001DD6: 84 C0              test        al,al
  10001DD8: 75 03              jne         10001DDD
  10001DDA: 32 C0              xor         al,al
  10001DDC: C3                 ret
  10001DDD: E8 37 05 00 00     call        10002319
  10001DE2: 84 C0              test        al,al
  10001DE4: 75 07              jne         10001DED
  10001DE6: E8 B8 05 00 00     call        100023A3
  10001DEB: EB ED              jmp         10001DDA
  10001DED: B0 01              mov         al,1
  10001DEF: C3                 ret
  10001DF0: E8 92 04 00 00     call        10002287
  10001DF5: 85 C0              test        eax,eax
  10001DF7: 0F 95 C0           setne       al
  10001DFA: C3                 ret
  10001DFB: 6A 00              push        0
  10001DFD: E8 41 04 00 00     call        10002243
  10001E02: 59                 pop         ecx
  10001E03: B0 01              mov         al,1
  10001E05: C3                 ret
  10001E06: 55                 push        ebp
  10001E07: 8B EC              mov         ebp,esp
  10001E09: 80 7D 08 00        cmp         byte ptr [ebp+8],0
  10001E0D: 75 0A              jne         10001E19
  10001E0F: E8 38 05 00 00     call        1000234C
  10001E14: E8 8A 05 00 00     call        100023A3
  10001E19: B0 01              mov         al,1
  10001E1B: 5D                 pop         ebp
  10001E1C: C3                 ret
  10001E1D: E8 2A 05 00 00     call        1000234C
  10001E22: B0 01              mov         al,1
  10001E24: C3                 ret
  10001E25: 6A 08              push        8
  10001E27: 68 80 00 01 10     push        10010080h
  10001E2C: E8 7F FA FF FF     call        100018B0
  10001E31: 8B 45 08           mov         eax,dword ptr [ebp+8]
  10001E34: 85 C0              test        eax,eax
  10001E36: 74 7E              je          10001EB6
  10001E38: 81 38 63 73 6D E0  cmp         dword ptr [eax],0E06D7363h
  10001E3E: 75 76              jne         10001EB6
  10001E40: 83 78 10 03        cmp         dword ptr [eax+10h],3
  10001E44: 75 70              jne         10001EB6
  10001E46: 81 78 14 20 05 93  cmp         dword ptr [eax+14h],19930520h
            19
  10001E4D: 74 12              je          10001E61
  10001E4F: 81 78 14 21 05 93  cmp         dword ptr [eax+14h],19930521h
            19
  10001E56: 74 09              je          10001E61
  10001E58: 81 78 14 22 05 93  cmp         dword ptr [eax+14h],19930522h
            19
  10001E5F: 75 55              jne         10001EB6
  10001E61: 8B 48 1C           mov         ecx,dword ptr [eax+1Ch]
  10001E64: 85 C9              test        ecx,ecx
  10001E66: 74 4E              je          10001EB6
  10001E68: 8B 51 04           mov         edx,dword ptr [ecx+4]
  10001E6B: 85 D2              test        edx,edx
  10001E6D: 74 29              je          10001E98
  10001E6F: 83 65 FC 00        and         dword ptr [ebp-4],0
  10001E73: 52                 push        edx
  10001E74: FF 70 18           push        dword ptr [eax+18h]
  10001E77: E8 4A 00 00 00     call        10001EC6
  10001E7C: C7 45 FC FE FF FF  mov         dword ptr [ebp-4],0FFFFFFFEh
            FF
  10001E83: EB 31              jmp         10001EB6
  10001E85: FF 75 0C           push        dword ptr [ebp+0Ch]
  10001E88: FF 75 EC           push        dword ptr [ebp-14h]
  10001E8B: E8 43 00 00 00     call        10001ED3
  10001E90: 59                 pop         ecx
  10001E91: 59                 pop         ecx
  10001E92: C3                 ret
  10001E93: 8B 65 E8           mov         esp,dword ptr [ebp-18h]
  10001E96: EB E4              jmp         10001E7C
  10001E98: F6 01 10           test        byte ptr [ecx],10h
  10001E9B: 74 19              je          10001EB6
  10001E9D: 8B 40 18           mov         eax,dword ptr [eax+18h]
  10001EA0: 8B 08              mov         ecx,dword ptr [eax]
  10001EA2: 85 C9              test        ecx,ecx
  10001EA4: 74 10              je          10001EB6
  10001EA6: 8B 01              mov         eax,dword ptr [ecx]
  10001EA8: 51                 push        ecx
  10001EA9: 8B 70 08           mov         esi,dword ptr [eax+8]
  10001EAC: 8B CE              mov         ecx,esi
  10001EAE: FF 15 04 B1 00 10  call        dword ptr ds:[1000B104h]
  10001EB4: FF D6              call        esi
  10001EB6: 8B 4D F0           mov         ecx,dword ptr [ebp-10h]
  10001EB9: 64 89 0D 00 00 00  mov         dword ptr fs:[00000000h],ecx
            00
  10001EC0: 59                 pop         ecx
  10001EC1: 5F                 pop         edi
  10001EC2: 5E                 pop         esi
  10001EC3: 5B                 pop         ebx
  10001EC4: C9                 leave
  10001EC5: C3                 ret
  10001EC6: 55                 push        ebp
  10001EC7: 8B EC              mov         ebp,esp
  10001EC9: 8B 4D 08           mov         ecx,dword ptr [ebp+8]
  10001ECC: FF 55 0C           call        dword ptr [ebp+0Ch]
  10001ECF: 5D                 pop         ebp
  10001ED0: C2 08 00           ret         8
  10001ED3: 55                 push        ebp
  10001ED4: 8B EC              mov         ebp,esp
  10001ED6: 80 7D 0C 00        cmp         byte ptr [ebp+0Ch],0
  10001EDA: 74 32              je          10001F0E
  10001EDC: 56                 push        esi
  10001EDD: 57                 push        edi
  10001EDE: 8B 7D 08           mov         edi,dword ptr [ebp+8]
  10001EE1: 8B 37              mov         esi,dword ptr [edi]
  10001EE3: 81 3E 63 73 6D E0  cmp         dword ptr [esi],0E06D7363h
  10001EE9: 75 21              jne         10001F0C
  10001EEB: 83 7E 10 03        cmp         dword ptr [esi+10h],3
  10001EEF: 75 1B              jne         10001F0C
  10001EF1: 81 7E 14 20 05 93  cmp         dword ptr [esi+14h],19930520h
            19
  10001EF8: 74 18              je          10001F12
  10001EFA: 81 7E 14 21 05 93  cmp         dword ptr [esi+14h],19930521h
            19
  10001F01: 74 0F              je          10001F12
  10001F03: 81 7E 14 22 05 93  cmp         dword ptr [esi+14h],19930522h
            19
  10001F0A: 74 06              je          10001F12
  10001F0C: 5F                 pop         edi
  10001F0D: 5E                 pop         esi
  10001F0E: 33 C0              xor         eax,eax
  10001F10: 5D                 pop         ebp
  10001F11: C3                 ret
  10001F12: E8 62 03 00 00     call        10002279
  10001F17: 89 70 10           mov         dword ptr [eax+10h],esi
  10001F1A: 8B 77 04           mov         esi,dword ptr [edi+4]
  10001F1D: E8 57 03 00 00     call        10002279
  10001F22: 89 70 14           mov         dword ptr [eax+14h],esi
  10001F25: E8 22 19 00 00     call        1000384C
  10001F2A: CC                 int         3
  10001F2B: CC                 int         3
  10001F2C: CC                 int         3
  10001F2D: CC                 int         3
  10001F2E: CC                 int         3
  10001F2F: CC                 int         3
  10001F30: 8B 4C 24 0C        mov         ecx,dword ptr [esp+0Ch]
  10001F34: 0F B6 44 24 08     movzx       eax,byte ptr [esp+8]
  10001F39: 8B D7              mov         edx,edi
  10001F3B: 8B 7C 24 04        mov         edi,dword ptr [esp+4]
  10001F3F: 85 C9              test        ecx,ecx
  10001F41: 0F 84 3C 01 00 00  je          10002083
  10001F47: 69 C0 01 01 01 01  imul        eax,eax,1010101h
  10001F4D: 83 F9 20           cmp         ecx,20h
  10001F50: 0F 86 DF 00 00 00  jbe         10002035
  10001F56: 81 F9 80 00 00 00  cmp         ecx,80h
  10001F5C: 0F 82 8B 00 00 00  jb          10001FED
  10001F62: 0F BA 25 BC 18 01  bt          dword ptr ds:[100118BCh],1
            10 01
  10001F6A: 73 09              jae         10001F75
  10001F6C: F3 AA              rep stos    byte ptr es:[edi]
  10001F6E: 8B 44 24 04        mov         eax,dword ptr [esp+4]
  10001F72: 8B FA              mov         edi,edx
  10001F74: C3                 ret
  10001F75: 0F BA 25 18 10 01  bt          dword ptr ds:[10011018h],1
            10 01
  10001F7D: 0F 83 B2 00 00 00  jae         10002035
  10001F83: 66 0F 6E C0        movd        xmm0,eax
  10001F87: 66 0F 70 C0 00     pshufd      xmm0,xmm0,0
  10001F8C: 03 CF              add         ecx,edi
  10001F8E: 0F 11 07           movups      xmmword ptr [edi],xmm0
  10001F91: 83 C7 10           add         edi,10h
  10001F94: 83 E7 F0           and         edi,0FFFFFFF0h
  10001F97: 2B CF              sub         ecx,edi
  10001F99: 81 F9 80 00 00 00  cmp         ecx,80h
  10001F9F: 76 4C              jbe         10001FED
  10001FA1: 8D A4 24 00 00 00  lea         esp,[esp+00000000h]
            00
  10001FA8: 8D A4 24 00 00 00  lea         esp,[esp+00000000h]
            00
  10001FAF: 90                 nop
  10001FB0: 66 0F 7F 07        movdqa      xmmword ptr [edi],xmm0
  10001FB4: 66 0F 7F 47 10     movdqa      xmmword ptr [edi+10h],xmm0
  10001FB9: 66 0F 7F 47 20     movdqa      xmmword ptr [edi+20h],xmm0
  10001FBE: 66 0F 7F 47 30     movdqa      xmmword ptr [edi+30h],xmm0
  10001FC3: 66 0F 7F 47 40     movdqa      xmmword ptr [edi+40h],xmm0
  10001FC8: 66 0F 7F 47 50     movdqa      xmmword ptr [edi+50h],xmm0
  10001FCD: 66 0F 7F 47 60     movdqa      xmmword ptr [edi+60h],xmm0
  10001FD2: 66 0F 7F 47 70     movdqa      xmmword ptr [edi+70h],xmm0
  10001FD7: 8D BF 80 00 00 00  lea         edi,[edi+00000080h]
  10001FDD: 81 E9 80 00 00 00  sub         ecx,80h
  10001FE3: F7 C1 00 FF FF FF  test        ecx,0FFFFFF00h
  10001FE9: 75 C5              jne         10001FB0
  10001FEB: EB 13              jmp         10002000
  10001FED: 0F BA 25 18 10 01  bt          dword ptr ds:[10011018h],1
            10 01
  10001FF5: 73 3E              jae         10002035
  10001FF7: 66 0F 6E C0        movd        xmm0,eax
  10001FFB: 66 0F 70 C0 00     pshufd      xmm0,xmm0,0
  10002000: 83 F9 20           cmp         ecx,20h
  10002003: 72 1C              jb          10002021
  10002005: F3 0F 7F 07        movdqu      xmmword ptr [edi],xmm0
  10002009: F3 0F 7F 47 10     movdqu      xmmword ptr [edi+10h],xmm0
  1000200E: 83 C7 20           add         edi,20h
  10002011: 83 E9 20           sub         ecx,20h
  10002014: 83 F9 20           cmp         ecx,20h
  10002017: 73 EC              jae         10002005
  10002019: F7 C1 1F 00 00 00  test        ecx,1Fh
  1000201F: 74 62              je          10002083
  10002021: 8D 7C 0F E0        lea         edi,[edi+ecx-20h]
  10002025: F3 0F 7F 07        movdqu      xmmword ptr [edi],xmm0
  10002029: F3 0F 7F 47 10     movdqu      xmmword ptr [edi+10h],xmm0
  1000202E: 8B 44 24 04        mov         eax,dword ptr [esp+4]
  10002032: 8B FA              mov         edi,edx
  10002034: C3                 ret
  10002035: F7 C1 03 00 00 00  test        ecx,3
  1000203B: 74 0E              je          1000204B
  1000203D: 88 07              mov         byte ptr [edi],al
  1000203F: 47                 inc         edi
  10002040: 83 E9 01           sub         ecx,1
  10002043: F7 C1 03 00 00 00  test        ecx,3
  10002049: 75 F2              jne         1000203D
  1000204B: F7 C1 04 00 00 00  test        ecx,4
  10002051: 74 08              je          1000205B
  10002053: 89 07              mov         dword ptr [edi],eax
  10002055: 83 C7 04           add         edi,4
  10002058: 83 E9 04           sub         ecx,4
  1000205B: F7 C1 F8 FF FF FF  test        ecx,0FFFFFFF8h
  10002061: 74 20              je          10002083
  10002063: 8D A4 24 00 00 00  lea         esp,[esp+00000000h]
            00
  1000206A: 8D 9B 00 00 00 00  lea         ebx,[ebx+00000000h]
  10002070: 89 07              mov         dword ptr [edi],eax
  10002072: 89 47 04           mov         dword ptr [edi+4],eax
  10002075: 83 C7 08           add         edi,8
  10002078: 83 E9 08           sub         ecx,8
  1000207B: F7 C1 F8 FF FF FF  test        ecx,0FFFFFFF8h
  10002081: 75 ED              jne         10002070
  10002083: 8B 44 24 04        mov         eax,dword ptr [esp+4]
  10002087: 8B FA              mov         edi,edx
  10002089: C3                 ret
  1000208A: CC                 int         3
  1000208B: CC                 int         3
  1000208C: CC                 int         3
  1000208D: CC                 int         3
  1000208E: CC                 int         3
  1000208F: CC                 int         3
  10002090: 53                 push        ebx
  10002091: 56                 push        esi
  10002092: 57                 push        edi
  10002093: 8B 54 24 10        mov         edx,dword ptr [esp+10h]
  10002097: 8B 44 24 14        mov         eax,dword ptr [esp+14h]
  1000209B: 8B 4C 24 18        mov         ecx,dword ptr [esp+18h]
  1000209F: 55                 push        ebp
  100020A0: 52                 push        edx
  100020A1: 50                 push        eax
  100020A2: 51                 push        ecx
  100020A3: 51                 push        ecx
  100020A4: 68 30 21 00 10     push        10002130h
  100020A9: 64 FF 35 00 00 00  push        dword ptr fs:[00000000h]
            00
  100020B0: A1 10 10 01 10     mov         eax,dword ptr ds:[10011010h]
  100020B5: 33 C4              xor         eax,esp
  100020B7: 89 44 24 08        mov         dword ptr [esp+8],eax
  100020BB: 64 89 25 00 00 00  mov         dword ptr fs:[00000000h],esp
            00
  100020C2: 8B 44 24 30        mov         eax,dword ptr [esp+30h]
  100020C6: 8B 58 08           mov         ebx,dword ptr [eax+8]
  100020C9: 8B 4C 24 2C        mov         ecx,dword ptr [esp+2Ch]
  100020CD: 33 19              xor         ebx,dword ptr [ecx]
  100020CF: 8B 70 0C           mov         esi,dword ptr [eax+0Ch]
  100020D2: 83 FE FE           cmp         esi,0FFFFFFFEh
  100020D5: 0F 84 46 00 00 00  je          10002121
  100020DB: 8B 54 24 34        mov         edx,dword ptr [esp+34h]
  100020DF: 83 FA FE           cmp         edx,0FFFFFFFEh
  100020E2: 74 08              je          100020EC
  100020E4: 3B F2              cmp         esi,edx
  100020E6: 0F 86 35 00 00 00  jbe         10002121
  100020EC: 8D 34 76           lea         esi,[esi+esi*2]
  100020EF: 8D 5C B3 10        lea         ebx,[ebx+esi*4+10h]
  100020F3: 8B 0B              mov         ecx,dword ptr [ebx]
  100020F5: 89 48 0C           mov         dword ptr [eax+0Ch],ecx
  100020F8: 83 7B 04 00        cmp         dword ptr [ebx+4],0
  100020FC: 0F 85 C0 FF FF FF  jne         100020C2
  10002102: 68 01 01 00 00     push        101h
  10002107: 8B 43 08           mov         eax,dword ptr [ebx+8]
  1000210A: E8 D1 02 00 00     call        100023E0
  1000210F: B9 01 00 00 00     mov         ecx,1
  10002114: 8B 43 08           mov         eax,dword ptr [ebx+8]
  10002117: E8 E4 02 00 00     call        10002400
  1000211C: E9 A1 FF FF FF     jmp         100020C2
  10002121: 64 8F 05 00 00 00  pop         dword ptr fs:[00000000h]
            00
  10002128: 83 C4 18           add         esp,18h
  1000212B: 5F                 pop         edi
  1000212C: 5E                 pop         esi
  1000212D: 5B                 pop         ebx
  1000212E: C3                 ret
  1000212F: CC                 int         3
  10002130: 8B 4C 24 04        mov         ecx,dword ptr [esp+4]
  10002134: F7 41 04 06 00 00  test        dword ptr [ecx+4],6
            00
  1000213B: B8 01 00 00 00     mov         eax,1
  10002140: 74 33              je          10002175
  10002142: 8B 44 24 08        mov         eax,dword ptr [esp+8]
  10002146: 8B 48 08           mov         ecx,dword ptr [eax+8]
  10002149: 33 C8              xor         ecx,eax
  1000214B: E8 8C F9 FF FF     call        10001ADC
  10002150: 55                 push        ebp
  10002151: 8B 68 18           mov         ebp,dword ptr [eax+18h]
  10002154: FF 70 0C           push        dword ptr [eax+0Ch]
  10002157: FF 70 10           push        dword ptr [eax+10h]
  1000215A: FF 70 14           push        dword ptr [eax+14h]
  1000215D: E8 2E FF FF FF     call        10002090
  10002162: 83 C4 0C           add         esp,0Ch
  10002165: 5D                 pop         ebp
  10002166: 8B 44 24 08        mov         eax,dword ptr [esp+8]
  1000216A: 8B 54 24 10        mov         edx,dword ptr [esp+10h]
  1000216E: 89 02              mov         dword ptr [edx],eax
  10002170: B8 03 00 00 00     mov         eax,3
  10002175: C3                 ret
  10002176: CC                 int         3
  10002177: CC                 int         3
  10002178: CC                 int         3
  10002179: CC                 int         3
  1000217A: CC                 int         3
  1000217B: CC                 int         3
  1000217C: CC                 int         3
  1000217D: CC                 int         3
  1000217E: CC                 int         3
  1000217F: CC                 int         3
  10002180: 55                 push        ebp
  10002181: 56                 push        esi
  10002182: 57                 push        edi
  10002183: 53                 push        ebx
  10002184: 8B EA              mov         ebp,edx
  10002186: 33 C0              xor         eax,eax
  10002188: 33 DB              xor         ebx,ebx
  1000218A: 33 D2              xor         edx,edx
  1000218C: 33 F6              xor         esi,esi
  1000218E: 33 FF              xor         edi,edi
  10002190: FF D1              call        ecx
  10002192: 5B                 pop         ebx
  10002193: 5F                 pop         edi
  10002194: 5E                 pop         esi
  10002195: 5D                 pop         ebp
  10002196: C3                 ret
  10002197: CC                 int         3
  10002198: CC                 int         3
  10002199: CC                 int         3
  1000219A: CC                 int         3
  1000219B: CC                 int         3
  1000219C: CC                 int         3
  1000219D: CC                 int         3
  1000219E: CC                 int         3
  1000219F: CC                 int         3
  100021A0: 8B EA              mov         ebp,edx
  100021A2: 8B F1              mov         esi,ecx
  100021A4: 8B C1              mov         eax,ecx
  100021A6: 6A 01              push        1
  100021A8: E8 33 02 00 00     call        100023E0
  100021AD: 33 C0              xor         eax,eax
  100021AF: 33 DB              xor         ebx,ebx
  100021B1: 33 C9              xor         ecx,ecx
  100021B3: 33 D2              xor         edx,edx
  100021B5: 33 FF              xor         edi,edi
  100021B7: FF E6              jmp         esi
  100021B9: CC                 int         3
  100021BA: CC                 int         3
  100021BB: CC                 int         3
  100021BC: CC                 int         3
  100021BD: CC                 int         3
  100021BE: CC                 int         3
  100021BF: CC                 int         3
  100021C0: 55                 push        ebp
  100021C1: 8B EC              mov         ebp,esp
  100021C3: 53                 push        ebx
  100021C4: 56                 push        esi
  100021C5: 57                 push        edi
  100021C6: 6A 00              push        0
  100021C8: 52                 push        edx
  100021C9: 68 D5 21 00 10     push        100021D5h
  100021CE: 51                 push        ecx
  100021CF: FF 15 3C B0 00 10  call        dword ptr ds:[1000B03Ch]
  100021D5: 5F                 pop         edi
  100021D6: 5E                 pop         esi
  100021D7: 5B                 pop         ebx
  100021D8: 5D                 pop         ebp
  100021D9: C3                 ret
  100021DA: CC                 int         3
  100021DB: CC                 int         3
  100021DC: CC                 int         3
  100021DD: CC                 int         3
  100021DE: CC                 int         3
  100021DF: CC                 int         3
  100021E0: 55                 push        ebp
  100021E1: 8B 6C 24 08        mov         ebp,dword ptr [esp+8]
  100021E5: 52                 push        edx
  100021E6: 51                 push        ecx
  100021E7: FF 74 24 14        push        dword ptr [esp+14h]
  100021EB: E8 A0 FE FF FF     call        10002090
  100021F0: 83 C4 0C           add         esp,0Ch
  100021F3: 5D                 pop         ebp
  100021F4: C2 08 00           ret         8
  100021F7: 55                 push        ebp
  100021F8: 8B EC              mov         ebp,esp
  100021FA: A1 04 B1 00 10     mov         eax,dword ptr ds:[1000B104h]
  100021FF: 3D F5 18 00 10     cmp         eax,100018F5h
  10002204: 74 1F              je          10002225
  10002206: 64 8B 0D 18 00 00  mov         ecx,dword ptr fs:[00000018h]
            00
  1000220D: 8B 45 08           mov         eax,dword ptr [ebp+8]
  10002210: 8B 80 C4 00 00 00  mov         eax,dword ptr [eax+000000C4h]
  10002216: 3B 41 08           cmp         eax,dword ptr [ecx+8]
  10002219: 72 05              jb          10002220
  1000221B: 3B 41 04           cmp         eax,dword ptr [ecx+4]
  1000221E: 76 05              jbe         10002225
  10002220: 6A 0D              push        0Dh
  10002222: 59                 pop         ecx
  10002223: CD 29              int         29h
  10002225: 5D                 pop         ebp
  10002226: C3                 ret
  10002227: 55                 push        ebp
  10002228: 8B EC              mov         ebp,esp
  1000222A: 8B 45 08           mov         eax,dword ptr [ebp+8]
  1000222D: 85 C0              test        eax,eax
  1000222F: 74 0E              je          1000223F
  10002231: 3D 1C 1C 01 10     cmp         eax,10011C1Ch
  10002236: 74 07              je          1000223F
  10002238: 50                 push        eax
  10002239: E8 4A 16 00 00     call        10003888
  1000223E: 59                 pop         ecx
  1000223F: 5D                 pop         ebp
  10002240: C2 04 00           ret         4
  10002243: 55                 push        ebp
  10002244: 8B EC              mov         ebp,esp
  10002246: A1 20 10 01 10     mov         eax,dword ptr ds:[10011020h]
  1000224B: 83 F8 FF           cmp         eax,0FFFFFFFFh
  1000224E: 74 27              je          10002277
  10002250: 56                 push        esi
  10002251: 8B 75 08           mov         esi,dword ptr [ebp+8]
  10002254: 85 F6              test        esi,esi
  10002256: 75 0E              jne         10002266
  10002258: 50                 push        eax
  10002259: E8 87 08 00 00     call        10002AE5
  1000225E: 8B F0              mov         esi,eax
  10002260: A1 20 10 01 10     mov         eax,dword ptr ds:[10011020h]
  10002265: 59                 pop         ecx
  10002266: 6A 00              push        0
  10002268: 50                 push        eax
  10002269: E8 B2 08 00 00     call        10002B20
  1000226E: 59                 pop         ecx
  1000226F: 59                 pop         ecx
  10002270: 56                 push        esi
  10002271: E8 B1 FF FF FF     call        10002227
  10002276: 5E                 pop         esi
  10002277: 5D                 pop         ebp
  10002278: C3                 ret
  10002279: E8 09 00 00 00     call        10002287
  1000227E: 85 C0              test        eax,eax
  10002280: 0F 84 77 16 00 00  je          100038FD
  10002286: C3                 ret
  10002287: 83 3D 20 10 01 10  cmp         dword ptr ds:[10011020h],0FFFFFFFFh
            FF
  1000228E: 75 03              jne         10002293
  10002290: 33 C0              xor         eax,eax
  10002292: C3                 ret
  10002293: 53                 push        ebx
  10002294: 57                 push        edi
  10002295: FF 15 40 B0 00 10  call        dword ptr ds:[1000B040h]
  1000229B: FF 35 20 10 01 10  push        dword ptr ds:[10011020h]
  100022A1: 8B F8              mov         edi,eax
  100022A3: E8 3D 08 00 00     call        10002AE5
  100022A8: 8B D8              mov         ebx,eax
  100022AA: 59                 pop         ecx
  100022AB: 83 FB FF           cmp         ebx,0FFFFFFFFh
  100022AE: 74 17              je          100022C7
  100022B0: 85 DB              test        ebx,ebx
  100022B2: 75 59              jne         1000230D
  100022B4: 6A FF              push        0FFFFFFFFh
  100022B6: FF 35 20 10 01 10  push        dword ptr ds:[10011020h]
  100022BC: E8 5F 08 00 00     call        10002B20
  100022C1: 59                 pop         ecx
  100022C2: 59                 pop         ecx
  100022C3: 85 C0              test        eax,eax
  100022C5: 75 04              jne         100022CB
  100022C7: 33 DB              xor         ebx,ebx
  100022C9: EB 42              jmp         1000230D
  100022CB: 56                 push        esi
  100022CC: 6A 28              push        28h
  100022CE: 6A 01              push        1
  100022D0: E8 93 17 00 00     call        10003A68
  100022D5: 8B F0              mov         esi,eax
  100022D7: 59                 pop         ecx
  100022D8: 59                 pop         ecx
  100022D9: 85 F6              test        esi,esi
  100022DB: 74 12              je          100022EF
  100022DD: 56                 push        esi
  100022DE: FF 35 20 10 01 10  push        dword ptr ds:[10011020h]
  100022E4: E8 37 08 00 00     call        10002B20
  100022E9: 59                 pop         ecx
  100022EA: 59                 pop         ecx
  100022EB: 85 C0              test        eax,eax
  100022ED: 75 12              jne         10002301
  100022EF: 33 DB              xor         ebx,ebx
  100022F1: 53                 push        ebx
  100022F2: FF 35 20 10 01 10  push        dword ptr ds:[10011020h]
  100022F8: E8 23 08 00 00     call        10002B20
  100022FD: 59                 pop         ecx
  100022FE: 59                 pop         ecx
  100022FF: EB 04              jmp         10002305
  10002301: 8B DE              mov         ebx,esi
  10002303: 33 F6              xor         esi,esi
  10002305: 56                 push        esi
  10002306: E8 7D 15 00 00     call        10003888
  1000230B: 59                 pop         ecx
  1000230C: 5E                 pop         esi
  1000230D: 57                 push        edi
  1000230E: FF 15 44 B0 00 10  call        dword ptr ds:[1000B044h]
  10002314: 5F                 pop         edi
  10002315: 8B C3              mov         eax,ebx
  10002317: 5B                 pop         ebx
  10002318: C3                 ret
  10002319: 68 27 22 00 10     push        10002227h
  1000231E: E8 4C 07 00 00     call        10002A6F
  10002323: A3 20 10 01 10     mov         dword ptr ds:[10011020h],eax
  10002328: 59                 pop         ecx
  10002329: 83 F8 FF           cmp         eax,0FFFFFFFFh
  1000232C: 75 03              jne         10002331
  1000232E: 32 C0              xor         al,al
  10002330: C3                 ret
  10002331: 68 1C 1C 01 10     push        10011C1Ch
  10002336: 50                 push        eax
  10002337: E8 E4 07 00 00     call        10002B20
  1000233C: 59                 pop         ecx
  1000233D: 59                 pop         ecx
  1000233E: 85 C0              test        eax,eax
  10002340: 75 07              jne         10002349
  10002342: E8 05 00 00 00     call        1000234C
  10002347: EB E5              jmp         1000232E
  10002349: B0 01              mov         al,1
  1000234B: C3                 ret
  1000234C: A1 20 10 01 10     mov         eax,dword ptr ds:[10011020h]
  10002351: 83 F8 FF           cmp         eax,0FFFFFFFFh
  10002354: 74 0E              je          10002364
  10002356: 50                 push        eax
  10002357: E8 4E 07 00 00     call        10002AAA
  1000235C: 83 0D 20 10 01 10  or          dword ptr ds:[10011020h],0FFFFFFFFh
            FF
  10002363: 59                 pop         ecx
  10002364: B0 01              mov         al,1
  10002366: C3                 ret
  10002367: 56                 push        esi
  10002368: 57                 push        edi
  10002369: BF 44 1C 01 10     mov         edi,10011C44h
  1000236E: 33 F6              xor         esi,esi
  10002370: 6A 00              push        0
  10002372: 68 A0 0F 00 00     push        0FA0h
  10002377: 57                 push        edi
  10002378: E8 E1 07 00 00     call        10002B5E
  1000237D: 83 C4 0C           add         esp,0Ch
  10002380: 85 C0              test        eax,eax
  10002382: 74 15              je          10002399
  10002384: FF 05 5C 1C 01 10  inc         dword ptr ds:[10011C5Ch]
  1000238A: 83 C6 18           add         esi,18h
  1000238D: 83 C7 18           add         edi,18h
  10002390: 83 FE 18           cmp         esi,18h
  10002393: 72 DB              jb          10002370
  10002395: B0 01              mov         al,1
  10002397: EB 07              jmp         100023A0
  10002399: E8 05 00 00 00     call        100023A3
  1000239E: 32 C0              xor         al,al
  100023A0: 5F                 pop         edi
  100023A1: 5E                 pop         esi
  100023A2: C3                 ret
  100023A3: 56                 push        esi
  100023A4: 8B 35 5C 1C 01 10  mov         esi,dword ptr ds:[10011C5Ch]
  100023AA: 85 F6              test        esi,esi
  100023AC: 74 20              je          100023CE
  100023AE: 6B C6 18           imul        eax,esi,18h
  100023B1: 57                 push        edi
  100023B2: 8D B8 2C 1C 01 10  lea         edi,[eax+10011C2Ch]
  100023B8: 57                 push        edi
  100023B9: FF 15 50 B0 00 10  call        dword ptr ds:[1000B050h]
  100023BF: FF 0D 5C 1C 01 10  dec         dword ptr ds:[10011C5Ch]
  100023C5: 83 EF 18           sub         edi,18h
  100023C8: 83 EE 01           sub         esi,1
  100023CB: 75 EB              jne         100023B8
  100023CD: 5F                 pop         edi
  100023CE: B0 01              mov         al,1
  100023D0: 5E                 pop         esi
  100023D1: C3                 ret
  100023D2: CC                 int         3
  100023D3: CC                 int         3
  100023D4: CC                 int         3
  100023D5: CC                 int         3
  100023D6: CC                 int         3
  100023D7: CC                 int         3
  100023D8: CC                 int         3
  100023D9: CC                 int         3
  100023DA: CC                 int         3
  100023DB: CC                 int         3
  100023DC: CC                 int         3
  100023DD: CC                 int         3
  100023DE: CC                 int         3
  100023DF: CC                 int         3
  100023E0: 53                 push        ebx
  100023E1: 51                 push        ecx
  100023E2: BB 30 10 01 10     mov         ebx,10011030h
  100023E7: 8B 4C 24 0C        mov         ecx,dword ptr [esp+0Ch]
  100023EB: 89 4B 08           mov         dword ptr [ebx+8],ecx
  100023EE: 89 43 04           mov         dword ptr [ebx+4],eax
  100023F1: 89 6B 0C           mov         dword ptr [ebx+0Ch],ebp
  100023F4: 55                 push        ebp
  100023F5: 51                 push        ecx
  100023F6: 50                 push        eax
  100023F7: 58                 pop         eax
  100023F8: 59                 pop         ecx
  100023F9: 5D                 pop         ebp
  100023FA: 59                 pop         ecx
  100023FB: 5B                 pop         ebx
  100023FC: C2 04 00           ret         4
  100023FF: CC                 int         3
  10002400: FF D0              call        eax
  10002402: C3                 ret
  10002403: CC                 int         3
  10002404: CC                 int         3
  10002405: CC                 int         3
  10002406: CC                 int         3
  10002407: CC                 int         3
  10002408: CC                 int         3
  10002409: CC                 int         3
  1000240A: CC                 int         3
  1000240B: CC                 int         3
  1000240C: CC                 int         3
  1000240D: CC                 int         3
  1000240E: CC                 int         3
  1000240F: CC                 int         3
  10002410: 57                 push        edi
  10002411: 56                 push        esi
  10002412: 8B 74 24 10        mov         esi,dword ptr [esp+10h]
  10002416: 8B 4C 24 14        mov         ecx,dword ptr [esp+14h]
  1000241A: 8B 7C 24 0C        mov         edi,dword ptr [esp+0Ch]
  1000241E: 8B C1              mov         eax,ecx
  10002420: 8B D1              mov         edx,ecx
  10002422: 03 C6              add         eax,esi
  10002424: 3B FE              cmp         edi,esi
  10002426: 76 08              jbe         10002430
  10002428: 3B F8              cmp         edi,eax
  1000242A: 0F 82 94 02 00 00  jb          100026C4
  10002430: 83 F9 20           cmp         ecx,20h
  10002433: 0F 82 D2 04 00 00  jb          1000290B
  10002439: 81 F9 80 00 00 00  cmp         ecx,80h
  1000243F: 73 13              jae         10002454
  10002441: 0F BA 25 18 10 01  bt          dword ptr ds:[10011018h],1
            10 01
  10002449: 0F 82 8E 04 00 00  jb          100028DD
  1000244F: E9 E3 01 00 00     jmp         10002637
  10002454: 0F BA 25 BC 18 01  bt          dword ptr ds:[100118BCh],1
            10 01
  1000245C: 73 09              jae         10002467
  1000245E: F3 A4              rep movs    byte ptr es:[edi],byte ptr [esi]
  10002460: 8B 44 24 0C        mov         eax,dword ptr [esp+0Ch]
  10002464: 5E                 pop         esi
  10002465: 5F                 pop         edi
  10002466: C3                 ret
  10002467: 8B C7              mov         eax,edi
  10002469: 33 C6              xor         eax,esi
  1000246B: A9 0F 00 00 00     test        eax,0Fh
  10002470: 75 0E              jne         10002480
  10002472: 0F BA 25 18 10 01  bt          dword ptr ds:[10011018h],1
            10 01
  1000247A: 0F 82 E0 03 00 00  jb          10002860
  10002480: 0F BA 25 BC 18 01  bt          dword ptr ds:[100118BCh],0
            10 00
  10002488: 0F 83 A9 01 00 00  jae         10002637
  1000248E: F7 C7 03 00 00 00  test        edi,3
  10002494: 0F 85 9D 01 00 00  jne         10002637
  1000249A: F7 C6 03 00 00 00  test        esi,3
  100024A0: 0F 85 AC 01 00 00  jne         10002652
  100024A6: 0F BA E7 02        bt          edi,2
  100024AA: 73 0D              jae         100024B9
  100024AC: 8B 06              mov         eax,dword ptr [esi]
  100024AE: 83 E9 04           sub         ecx,4
  100024B1: 8D 76 04           lea         esi,[esi+4]
  100024B4: 89 07              mov         dword ptr [edi],eax
  100024B6: 8D 7F 04           lea         edi,[edi+4]
  100024B9: 0F BA E7 03        bt          edi,3
  100024BD: 73 11              jae         100024D0
  100024BF: F3 0F 7E 0E        movq        xmm1,mmword ptr [esi]
  100024C3: 83 E9 08           sub         ecx,8
  100024C6: 8D 76 08           lea         esi,[esi+8]
  100024C9: 66 0F D6 0F        movq        mmword ptr [edi],xmm1
  100024CD: 8D 7F 08           lea         edi,[edi+8]
  100024D0: F7 C6 07 00 00 00  test        esi,7
  100024D6: 74 65              je          1000253D
  100024D8: 0F BA E6 03        bt          esi,3
  100024DC: 0F 83 B4 00 00 00  jae         10002596
  100024E2: 66 0F 6F 4E F4     movdqa      xmm1,xmmword ptr [esi-0Ch]
  100024E7: 8D 76 F4           lea         esi,[esi-0Ch]
  100024EA: 8B FF              mov         edi,edi
  100024EC: 66 0F 6F 5E 10     movdqa      xmm3,xmmword ptr [esi+10h]
  100024F1: 83 E9 30           sub         ecx,30h
  100024F4: 66 0F 6F 46 20     movdqa      xmm0,xmmword ptr [esi+20h]
  100024F9: 66 0F 6F 6E 30     movdqa      xmm5,xmmword ptr [esi+30h]
  100024FE: 8D 76 30           lea         esi,[esi+30h]
  10002501: 83 F9 30           cmp         ecx,30h
  10002504: 66 0F 6F D3        movdqa      xmm2,xmm3
  10002508: 66 0F 3A 0F D9 0C  palignr     xmm3,xmm1,0Ch
  1000250E: 66 0F 7F 1F        movdqa      xmmword ptr [edi],xmm3
  10002512: 66 0F 6F E0        movdqa      xmm4,xmm0
  10002516: 66 0F 3A 0F C2 0C  palignr     xmm0,xmm2,0Ch
  1000251C: 66 0F 7F 47 10     movdqa      xmmword ptr [edi+10h],xmm0
  10002521: 66 0F 6F CD        movdqa      xmm1,xmm5
  10002525: 66 0F 3A 0F EC 0C  palignr     xmm5,xmm4,0Ch
  1000252B: 66 0F 7F 6F 20     movdqa      xmmword ptr [edi+20h],xmm5
  10002530: 8D 7F 30           lea         edi,[edi+30h]
  10002533: 73 B7              jae         100024EC
  10002535: 8D 76 0C           lea         esi,[esi+0Ch]
  10002538: E9 AF 00 00 00     jmp         100025EC
  1000253D: 66 0F 6F 4E F8     movdqa      xmm1,xmmword ptr [esi-8]
  10002542: 8D 76 F8           lea         esi,[esi-8]
  10002545: 8D 49 00           lea         ecx,[ecx]
  10002548: 66 0F 6F 5E 10     movdqa      xmm3,xmmword ptr [esi+10h]
  1000254D: 83 E9 30           sub         ecx,30h
  10002550: 66 0F 6F 46 20     movdqa      xmm0,xmmword ptr [esi+20h]
  10002555: 66 0F 6F 6E 30     movdqa      xmm5,xmmword ptr [esi+30h]
  1000255A: 8D 76 30           lea         esi,[esi+30h]
  1000255D: 83 F9 30           cmp         ecx,30h
  10002560: 66 0F 6F D3        movdqa      xmm2,xmm3
  10002564: 66 0F 3A 0F D9 08  palignr     xmm3,xmm1,8
  1000256A: 66 0F 7F 1F        movdqa      xmmword ptr [edi],xmm3
  1000256E: 66 0F 6F E0        movdqa      xmm4,xmm0
  10002572: 66 0F 3A 0F C2 08  palignr     xmm0,xmm2,8
  10002578: 66 0F 7F 47 10     movdqa      xmmword ptr [edi+10h],xmm0
  1000257D: 66 0F 6F CD        movdqa      xmm1,xmm5
  10002581: 66 0F 3A 0F EC 08  palignr     xmm5,xmm4,8
  10002587: 66 0F 7F 6F 20     movdqa      xmmword ptr [edi+20h],xmm5
  1000258C: 8D 7F 30           lea         edi,[edi+30h]
  1000258F: 73 B7              jae         10002548
  10002591: 8D 76 08           lea         esi,[esi+8]
  10002594: EB 56              jmp         100025EC
  10002596: 66 0F 6F 4E FC     movdqa      xmm1,xmmword ptr [esi-4]
  1000259B: 8D 76 FC           lea         esi,[esi-4]
  1000259E: 8B FF              mov         edi,edi
  100025A0: 66 0F 6F 5E 10     movdqa      xmm3,xmmword ptr [esi+10h]
  100025A5: 83 E9 30           sub         ecx,30h
  100025A8: 66 0F 6F 46 20     movdqa      xmm0,xmmword ptr [esi+20h]
  100025AD: 66 0F 6F 6E 30     movdqa      xmm5,xmmword ptr [esi+30h]
  100025B2: 8D 76 30           lea         esi,[esi+30h]
  100025B5: 83 F9 30           cmp         ecx,30h
  100025B8: 66 0F 6F D3        movdqa      xmm2,xmm3
  100025BC: 66 0F 3A 0F D9 04  palignr     xmm3,xmm1,4
  100025C2: 66 0F 7F 1F        movdqa      xmmword ptr [edi],xmm3
  100025C6: 66 0F 6F E0        movdqa      xmm4,xmm0
  100025CA: 66 0F 3A 0F C2 04  palignr     xmm0,xmm2,4
  100025D0: 66 0F 7F 47 10     movdqa      xmmword ptr [edi+10h],xmm0
  100025D5: 66 0F 6F CD        movdqa      xmm1,xmm5
  100025D9: 66 0F 3A 0F EC 04  palignr     xmm5,xmm4,4
  100025DF: 66 0F 7F 6F 20     movdqa      xmmword ptr [edi+20h],xmm5
  100025E4: 8D 7F 30           lea         edi,[edi+30h]
  100025E7: 73 B7              jae         100025A0
  100025E9: 8D 76 04           lea         esi,[esi+4]
  100025EC: 83 F9 10           cmp         ecx,10h
  100025EF: 72 13              jb          10002604
  100025F1: F3 0F 6F 0E        movdqu      xmm1,xmmword ptr [esi]
  100025F5: 83 E9 10           sub         ecx,10h
  100025F8: 8D 76 10           lea         esi,[esi+10h]
  100025FB: 66 0F 7F 0F        movdqa      xmmword ptr [edi],xmm1
  100025FF: 8D 7F 10           lea         edi,[edi+10h]
  10002602: EB E8              jmp         100025EC
  10002604: 0F BA E1 02        bt          ecx,2
  10002608: 73 0D              jae         10002617
  1000260A: 8B 06              mov         eax,dword ptr [esi]
  1000260C: 83 E9 04           sub         ecx,4
  1000260F: 8D 76 04           lea         esi,[esi+4]
  10002612: 89 07              mov         dword ptr [edi],eax
  10002614: 8D 7F 04           lea         edi,[edi+4]
  10002617: 0F BA E1 03        bt          ecx,3
  1000261B: 73 11              jae         1000262E
  1000261D: F3 0F 7E 0E        movq        xmm1,mmword ptr [esi]
  10002621: 83 E9 08           sub         ecx,8
  10002624: 8D 76 08           lea         esi,[esi+8]
  10002627: 66 0F D6 0F        movq        mmword ptr [edi],xmm1
  1000262B: 8D 7F 08           lea         edi,[edi+8]
  1000262E: 8B 04 8D 74 26 00  mov         eax,dword ptr [ecx*4+10002674h]
            10
  10002635: FF E0              jmp         eax
  10002637: F7 C7 03 00 00 00  test        edi,3
  1000263D: 74 13              je          10002652
  1000263F: 8A 06              mov         al,byte ptr [esi]
  10002641: 88 07              mov         byte ptr [edi],al
  10002643: 49                 dec         ecx
  10002644: 83 C6 01           add         esi,1
  10002647: 83 C7 01           add         edi,1
  1000264A: F7 C7 03 00 00 00  test        edi,3
  10002650: 75 ED              jne         1000263F
  10002652: 8B D1              mov         edx,ecx
  10002654: 83 F9 20           cmp         ecx,20h
  10002657: 0F 82 AE 02 00 00  jb          1000290B
  1000265D: C1 E9 02           shr         ecx,2
  10002660: F3 A5              rep movs    dword ptr es:[edi],dword ptr [esi]
  10002662: 83 E2 03           and         edx,3
  10002665: FF 24 95 74 26 00  jmp         dword ptr [edx*4+10002674h]
            10
  1000266C: FF 24 8D 84 26 00  jmp         dword ptr [ecx*4+10002684h]
            10
  10002673: 90                 nop
  10002674: 84 26              test        byte ptr [esi],ah
  10002676: 00 10              add         byte ptr [eax],dl
  10002678: 8C 26              mov         word ptr [esi],fs
  1000267A: 00 10              add         byte ptr [eax],dl
  1000267C: 98                 cwde
  1000267D: 26 00 10           add         byte ptr es:[eax],dl
  10002680: AC                 lods        byte ptr [esi]
  10002681: 26 00 10           add         byte ptr es:[eax],dl
  10002684: 8B 44 24 0C        mov         eax,dword ptr [esp+0Ch]
  10002688: 5E                 pop         esi
  10002689: 5F                 pop         edi
  1000268A: C3                 ret
  1000268B: 90                 nop
  1000268C: 8A 06              mov         al,byte ptr [esi]
  1000268E: 88 07              mov         byte ptr [edi],al
  10002690: 8B 44 24 0C        mov         eax,dword ptr [esp+0Ch]
  10002694: 5E                 pop         esi
  10002695: 5F                 pop         edi
  10002696: C3                 ret
  10002697: 90                 nop
  10002698: 8A 06              mov         al,byte ptr [esi]
  1000269A: 88 07              mov         byte ptr [edi],al
  1000269C: 8A 46 01           mov         al,byte ptr [esi+1]
  1000269F: 88 47 01           mov         byte ptr [edi+1],al
  100026A2: 8B 44 24 0C        mov         eax,dword ptr [esp+0Ch]
  100026A6: 5E                 pop         esi
  100026A7: 5F                 pop         edi
  100026A8: C3                 ret
  100026A9: 8D 49 00           lea         ecx,[ecx]
  100026AC: 8A 06              mov         al,byte ptr [esi]
  100026AE: 88 07              mov         byte ptr [edi],al
  100026B0: 8A 46 01           mov         al,byte ptr [esi+1]
  100026B3: 88 47 01           mov         byte ptr [edi+1],al
  100026B6: 8A 46 02           mov         al,byte ptr [esi+2]
  100026B9: 88 47 02           mov         byte ptr [edi+2],al
  100026BC: 8B 44 24 0C        mov         eax,dword ptr [esp+0Ch]
  100026C0: 5E                 pop         esi
  100026C1: 5F                 pop         edi
  100026C2: C3                 ret
  100026C3: 90                 nop
  100026C4: 8D 34 0E           lea         esi,[esi+ecx]
  100026C7: 8D 3C 0F           lea         edi,[edi+ecx]
  100026CA: 83 F9 20           cmp         ecx,20h
  100026CD: 0F 82 51 01 00 00  jb          10002824
  100026D3: 0F BA 25 18 10 01  bt          dword ptr ds:[10011018h],1
            10 01
  100026DB: 0F 82 94 00 00 00  jb          10002775
  100026E1: F7 C7 03 00 00 00  test        edi,3
  100026E7: 74 14              je          100026FD
  100026E9: 8B D7              mov         edx,edi
  100026EB: 83 E2 03           and         edx,3
  100026EE: 2B CA              sub         ecx,edx
  100026F0: 8A 46 FF           mov         al,byte ptr [esi-1]
  100026F3: 88 47 FF           mov         byte ptr [edi-1],al
  100026F6: 4E                 dec         esi
  100026F7: 4F                 dec         edi
  100026F8: 83 EA 01           sub         edx,1
  100026FB: 75 F3              jne         100026F0
  100026FD: 83 F9 20           cmp         ecx,20h
  10002700: 0F 82 1E 01 00 00  jb          10002824
  10002706: 8B D1              mov         edx,ecx
  10002708: C1 E9 02           shr         ecx,2
  1000270B: 83 E2 03           and         edx,3
  1000270E: 83 EE 04           sub         esi,4
  10002711: 83 EF 04           sub         edi,4
  10002714: FD                 std
  10002715: F3 A5              rep movs    dword ptr es:[edi],dword ptr [esi]
  10002717: FC                 cld
  10002718: FF 24 95 20 27 00  jmp         dword ptr [edx*4+10002720h]
            10
  1000271F: 90                 nop
  10002720: 30 27              xor         byte ptr [edi],ah
  10002722: 00 10              add         byte ptr [eax],dl
  10002724: 38 27              cmp         byte ptr [edi],ah
  10002726: 00 10              add         byte ptr [eax],dl
  10002728: 48                 dec         eax
  10002729: 27                 daa
  1000272A: 00 10              add         byte ptr [eax],dl
  1000272C: 5C                 pop         esp
  1000272D: 27                 daa
  1000272E: 00 10              add         byte ptr [eax],dl
  10002730: 8B 44 24 0C        mov         eax,dword ptr [esp+0Ch]
  10002734: 5E                 pop         esi
  10002735: 5F                 pop         edi
  10002736: C3                 ret
  10002737: 90                 nop
  10002738: 8A 46 03           mov         al,byte ptr [esi+3]
  1000273B: 88 47 03           mov         byte ptr [edi+3],al
  1000273E: 8B 44 24 0C        mov         eax,dword ptr [esp+0Ch]
  10002742: 5E                 pop         esi
  10002743: 5F                 pop         edi
  10002744: C3                 ret
  10002745: 8D 49 00           lea         ecx,[ecx]
  10002748: 8A 46 03           mov         al,byte ptr [esi+3]
  1000274B: 88 47 03           mov         byte ptr [edi+3],al
  1000274E: 8A 46 02           mov         al,byte ptr [esi+2]
  10002751: 88 47 02           mov         byte ptr [edi+2],al
  10002754: 8B 44 24 0C        mov         eax,dword ptr [esp+0Ch]
  10002758: 5E                 pop         esi
  10002759: 5F                 pop         edi
  1000275A: C3                 ret
  1000275B: 90                 nop
  1000275C: 8A 46 03           mov         al,byte ptr [esi+3]
  1000275F: 88 47 03           mov         byte ptr [edi+3],al
  10002762: 8A 46 02           mov         al,byte ptr [esi+2]
  10002765: 88 47 02           mov         byte ptr [edi+2],al
  10002768: 8A 46 01           mov         al,byte ptr [esi+1]
  1000276B: 88 47 01           mov         byte ptr [edi+1],al
  1000276E: 8B 44 24 0C        mov         eax,dword ptr [esp+0Ch]
  10002772: 5E                 pop         esi
  10002773: 5F                 pop         edi
  10002774: C3                 ret
  10002775: F7 C7 0F 00 00 00  test        edi,0Fh
  1000277B: 74 0F              je          1000278C
  1000277D: 49                 dec         ecx
  1000277E: 4E                 dec         esi
  1000277F: 4F                 dec         edi
  10002780: 8A 06              mov         al,byte ptr [esi]
  10002782: 88 07              mov         byte ptr [edi],al
  10002784: F7 C7 0F 00 00 00  test        edi,0Fh
  1000278A: 75 F1              jne         1000277D
  1000278C: 81 F9 80 00 00 00  cmp         ecx,80h
  10002792: 72 68              jb          100027FC
  10002794: 81 EE 80 00 00 00  sub         esi,80h
  1000279A: 81 EF 80 00 00 00  sub         edi,80h
  100027A0: F3 0F 6F 06        movdqu      xmm0,xmmword ptr [esi]
  100027A4: F3 0F 6F 4E 10     movdqu      xmm1,xmmword ptr [esi+10h]
  100027A9: F3 0F 6F 56 20     movdqu      xmm2,xmmword ptr [esi+20h]
  100027AE: F3 0F 6F 5E 30     movdqu      xmm3,xmmword ptr [esi+30h]
  100027B3: F3 0F 6F 66 40     movdqu      xmm4,xmmword ptr [esi+40h]
  100027B8: F3 0F 6F 6E 50     movdqu      xmm5,xmmword ptr [esi+50h]
  100027BD: F3 0F 6F 76 60     movdqu      xmm6,xmmword ptr [esi+60h]
  100027C2: F3 0F 6F 7E 70     movdqu      xmm7,xmmword ptr [esi+70h]
  100027C7: F3 0F 7F 07        movdqu      xmmword ptr [edi],xmm0
  100027CB: F3 0F 7F 4F 10     movdqu      xmmword ptr [edi+10h],xmm1
  100027D0: F3 0F 7F 57 20     movdqu      xmmword ptr [edi+20h],xmm2
  100027D5: F3 0F 7F 5F 30     movdqu      xmmword ptr [edi+30h],xmm3
  100027DA: F3 0F 7F 67 40     movdqu      xmmword ptr [edi+40h],xmm4
  100027DF: F3 0F 7F 6F 50     movdqu      xmmword ptr [edi+50h],xmm5
  100027E4: F3 0F 7F 77 60     movdqu      xmmword ptr [edi+60h],xmm6
  100027E9: F3 0F 7F 7F 70     movdqu      xmmword ptr [edi+70h],xmm7
  100027EE: 81 E9 80 00 00 00  sub         ecx,80h
  100027F4: F7 C1 80 FF FF FF  test        ecx,0FFFFFF80h
  100027FA: 75 90              jne         1000278C
  100027FC: 83 F9 20           cmp         ecx,20h
  100027FF: 72 23              jb          10002824
  10002801: 83 EE 20           sub         esi,20h
  10002804: 83 EF 20           sub         edi,20h
  10002807: F3 0F 6F 06        movdqu      xmm0,xmmword ptr [esi]
  1000280B: F3 0F 6F 4E 10     movdqu      xmm1,xmmword ptr [esi+10h]
  10002810: F3 0F 7F 07        movdqu      xmmword ptr [edi],xmm0
  10002814: F3 0F 7F 4F 10     movdqu      xmmword ptr [edi+10h],xmm1
  10002819: 83 E9 20           sub         ecx,20h
  1000281C: F7 C1 E0 FF FF FF  test        ecx,0FFFFFFE0h
  10002822: 75 DD              jne         10002801
  10002824: F7 C1 FC FF FF FF  test        ecx,0FFFFFFFCh
  1000282A: 74 15              je          10002841
  1000282C: 83 EF 04           sub         edi,4
  1000282F: 83 EE 04           sub         esi,4
  10002832: 8B 06              mov         eax,dword ptr [esi]
  10002834: 89 07              mov         dword ptr [edi],eax
  10002836: 83 E9 04           sub         ecx,4
  10002839: F7 C1 FC FF FF FF  test        ecx,0FFFFFFFCh
  1000283F: 75 EB              jne         1000282C
  10002841: 85 C9              test        ecx,ecx
  10002843: 74 0F              je          10002854
  10002845: 83 EF 01           sub         edi,1
  10002848: 83 EE 01           sub         esi,1
  1000284B: 8A 06              mov         al,byte ptr [esi]
  1000284D: 88 07              mov         byte ptr [edi],al
  1000284F: 83 E9 01           sub         ecx,1
  10002852: 75 F1              jne         10002845
  10002854: 8B 44 24 0C        mov         eax,dword ptr [esp+0Ch]
  10002858: 5E                 pop         esi
  10002859: 5F                 pop         edi
  1000285A: C3                 ret
  1000285B: EB 03              jmp         10002860
  1000285D: CC                 int         3
  1000285E: CC                 int         3
  1000285F: CC                 int         3
  10002860: 8B C6              mov         eax,esi
  10002862: 83 E0 0F           and         eax,0Fh
  10002865: 85 C0              test        eax,eax
  10002867: 0F 85 E3 00 00 00  jne         10002950
  1000286D: 8B D1              mov         edx,ecx
  1000286F: 83 E1 7F           and         ecx,7Fh
  10002872: C1 EA 07           shr         edx,7
  10002875: 74 66              je          100028DD
  10002877: 8D A4 24 00 00 00  lea         esp,[esp+00000000h]
            00
  1000287E: 8B FF              mov         edi,edi
  10002880: 66 0F 6F 06        movdqa      xmm0,xmmword ptr [esi]
  10002884: 66 0F 6F 4E 10     movdqa      xmm1,xmmword ptr [esi+10h]
  10002889: 66 0F 6F 56 20     movdqa      xmm2,xmmword ptr [esi+20h]
  1000288E: 66 0F 6F 5E 30     movdqa      xmm3,xmmword ptr [esi+30h]
  10002893: 66 0F 7F 07        movdqa      xmmword ptr [edi],xmm0
  10002897: 66 0F 7F 4F 10     movdqa      xmmword ptr [edi+10h],xmm1
  1000289C: 66 0F 7F 57 20     movdqa      xmmword ptr [edi+20h],xmm2
  100028A1: 66 0F 7F 5F 30     movdqa      xmmword ptr [edi+30h],xmm3
  100028A6: 66 0F 6F 66 40     movdqa      xmm4,xmmword ptr [esi+40h]
  100028AB: 66 0F 6F 6E 50     movdqa      xmm5,xmmword ptr [esi+50h]
  100028B0: 66 0F 6F 76 60     movdqa      xmm6,xmmword ptr [esi+60h]
  100028B5: 66 0F 6F 7E 70     movdqa      xmm7,xmmword ptr [esi+70h]
  100028BA: 66 0F 7F 67 40     movdqa      xmmword ptr [edi+40h],xmm4
  100028BF: 66 0F 7F 6F 50     movdqa      xmmword ptr [edi+50h],xmm5
  100028C4: 66 0F 7F 77 60     movdqa      xmmword ptr [edi+60h],xmm6
  100028C9: 66 0F 7F 7F 70     movdqa      xmmword ptr [edi+70h],xmm7
  100028CE: 8D B6 80 00 00 00  lea         esi,[esi+00000080h]
  100028D4: 8D BF 80 00 00 00  lea         edi,[edi+00000080h]
  100028DA: 4A                 dec         edx
  100028DB: 75 A3              jne         10002880
  100028DD: 85 C9              test        ecx,ecx
  100028DF: 74 5F              je          10002940
  100028E1: 8B D1              mov         edx,ecx
  100028E3: C1 EA 05           shr         edx,5
  100028E6: 85 D2              test        edx,edx
  100028E8: 74 21              je          1000290B
  100028EA: 8D 9B 00 00 00 00  lea         ebx,[ebx+00000000h]
  100028F0: F3 0F 6F 06        movdqu      xmm0,xmmword ptr [esi]
  100028F4: F3 0F 6F 4E 10     movdqu      xmm1,xmmword ptr [esi+10h]
  100028F9: F3 0F 7F 07        movdqu      xmmword ptr [edi],xmm0
  100028FD: F3 0F 7F 4F 10     movdqu      xmmword ptr [edi+10h],xmm1
  10002902: 8D 76 20           lea         esi,[esi+20h]
  10002905: 8D 7F 20           lea         edi,[edi+20h]
  10002908: 4A                 dec         edx
  10002909: 75 E5              jne         100028F0
  1000290B: 83 E1 1F           and         ecx,1Fh
  1000290E: 74 30              je          10002940
  10002910: 8B C1              mov         eax,ecx
  10002912: C1 E9 02           shr         ecx,2
  10002915: 74 0F              je          10002926
  10002917: 8B 16              mov         edx,dword ptr [esi]
  10002919: 89 17              mov         dword ptr [edi],edx
  1000291B: 83 C7 04           add         edi,4
  1000291E: 83 C6 04           add         esi,4
  10002921: 83 E9 01           sub         ecx,1
  10002924: 75 F1              jne         10002917
  10002926: 8B C8              mov         ecx,eax
  10002928: 83 E1 03           and         ecx,3
  1000292B: 74 13              je          10002940
  1000292D: 8A 06              mov         al,byte ptr [esi]
  1000292F: 88 07              mov         byte ptr [edi],al
  10002931: 46                 inc         esi
  10002932: 47                 inc         edi
  10002933: 49                 dec         ecx
  10002934: 75 F7              jne         1000292D
  10002936: 8D A4 24 00 00 00  lea         esp,[esp+00000000h]
            00
  1000293D: 8D 49 00           lea         ecx,[ecx]
  10002940: 8B 44 24 0C        mov         eax,dword ptr [esp+0Ch]
  10002944: 5E                 pop         esi
  10002945: 5F                 pop         edi
  10002946: C3                 ret
  10002947: 8D A4 24 00 00 00  lea         esp,[esp+00000000h]
            00
  1000294E: 8B FF              mov         edi,edi
  10002950: BA 10 00 00 00     mov         edx,10h
  10002955: 2B D0              sub         edx,eax
  10002957: 2B CA              sub         ecx,edx
  10002959: 51                 push        ecx
  1000295A: 8B C2              mov         eax,edx
  1000295C: 8B C8              mov         ecx,eax
  1000295E: 83 E1 03           and         ecx,3
  10002961: 74 09              je          1000296C
  10002963: 8A 16              mov         dl,byte ptr [esi]
  10002965: 88 17              mov         byte ptr [edi],dl
  10002967: 46                 inc         esi
  10002968: 47                 inc         edi
  10002969: 49                 dec         ecx
  1000296A: 75 F7              jne         10002963
  1000296C: C1 E8 02           shr         eax,2
  1000296F: 74 0D              je          1000297E
  10002971: 8B 16              mov         edx,dword ptr [esi]
  10002973: 89 17              mov         dword ptr [edi],edx
  10002975: 8D 76 04           lea         esi,[esi+4]
  10002978: 8D 7F 04           lea         edi,[edi+4]
  1000297B: 48                 dec         eax
  1000297C: 75 F3              jne         10002971
  1000297E: 59                 pop         ecx
  1000297F: E9 E9 FE FF FF     jmp         1000286D
  10002984: 55                 push        ebp
  10002985: 8B EC              mov         ebp,esp
  10002987: 51                 push        ecx
  10002988: 51                 push        ecx
  10002989: 8B 45 08           mov         eax,dword ptr [ebp+8]
  1000298C: 57                 push        edi
  1000298D: 8D 04 85 6C 1C 01  lea         eax,[eax*4+10011C6Ch]
            10
  10002994: 89 45 F8           mov         dword ptr [ebp-8],eax
  10002997: 8B 00              mov         eax,dword ptr [eax]
  10002999: 90                 nop
  1000299A: 83 CF FF           or          edi,0FFFFFFFFh
  1000299D: 3B C7              cmp         eax,edi
  1000299F: 75 04              jne         100029A5
  100029A1: 33 C0              xor         eax,eax
  100029A3: EB 56              jmp         100029FB
  100029A5: 85 C0              test        eax,eax
  100029A7: 75 52              jne         100029FB
  100029A9: 53                 push        ebx
  100029AA: 8B 5D 10           mov         ebx,dword ptr [ebp+10h]
  100029AD: 56                 push        esi
  100029AE: EB 3D              jmp         100029ED
  100029B0: 8B 0B              mov         ecx,dword ptr [ebx]
  100029B2: 89 4D FC           mov         dword ptr [ebp-4],ecx
  100029B5: 8D 04 8D 60 1C 01  lea         eax,[ecx*4+10011C60h]
            10
  100029BC: 8B 30              mov         esi,dword ptr [eax]
  100029BE: 90                 nop
  100029BF: 85 F6              test        esi,esi
  100029C1: 74 06              je          100029C9
  100029C3: 3B F7              cmp         esi,edi
  100029C5: 75 46              jne         10002A0D
  100029C7: EB 21              jmp         100029EA
  100029C9: FF 34 8D 14 BB 00  push        dword ptr [ecx*4+1000BB14h]
            10
  100029D0: E8 4F 00 00 00     call        10002A24
  100029D5: 8B 55 FC           mov         edx,dword ptr [ebp-4]
  100029D8: 8B F0              mov         esi,eax
  100029DA: 59                 pop         ecx
  100029DB: 8D 0C 95 60 1C 01  lea         ecx,[edx*4+10011C60h]
            10
  100029E2: 85 F6              test        esi,esi
  100029E4: 75 18              jne         100029FE
  100029E6: 8B C7              mov         eax,edi
  100029E8: 87 01              xchg        eax,dword ptr [ecx]
  100029EA: 83 C3 04           add         ebx,4
  100029ED: 3B 5D 14           cmp         ebx,dword ptr [ebp+14h]
  100029F0: 75 BE              jne         100029B0
  100029F2: 8B 55 F8           mov         edx,dword ptr [ebp-8]
  100029F5: 87 3A              xchg        edi,dword ptr [edx]
  100029F7: 33 C0              xor         eax,eax
  100029F9: 5E                 pop         esi
  100029FA: 5B                 pop         ebx
  100029FB: 5F                 pop         edi
  100029FC: C9                 leave
  100029FD: C3                 ret
  100029FE: 8B C6              mov         eax,esi
  10002A00: 87 01              xchg        eax,dword ptr [ecx]
  10002A02: 85 C0              test        eax,eax
  10002A04: 74 07              je          10002A0D
  10002A06: 56                 push        esi
  10002A07: FF 15 68 B0 00 10  call        dword ptr ds:[1000B068h]
  10002A0D: FF 75 0C           push        dword ptr [ebp+0Ch]
  10002A10: 56                 push        esi
  10002A11: FF 15 6C B0 00 10  call        dword ptr ds:[1000B06Ch]
  10002A17: 85 C0              test        eax,eax
  10002A19: 74 D7              je          100029F2
  10002A1B: 8B 55 F8           mov         edx,dword ptr [ebp-8]
  10002A1E: 8B C8              mov         ecx,eax
  10002A20: 87 0A              xchg        ecx,dword ptr [edx]
  10002A22: EB D5              jmp         100029F9
  10002A24: 55                 push        ebp
  10002A25: 8B EC              mov         ebp,esp
  10002A27: 68 00 08 00 00     push        800h
  10002A2C: 6A 00              push        0
  10002A2E: FF 75 08           push        dword ptr [ebp+8]
  10002A31: FF 15 70 B0 00 10  call        dword ptr ds:[1000B070h]
  10002A37: 85 C0              test        eax,eax
  10002A39: 75 32              jne         10002A6D
  10002A3B: FF 15 40 B0 00 10  call        dword ptr ds:[1000B040h]
  10002A41: 83 F8 57           cmp         eax,57h
  10002A44: 75 25              jne         10002A6B
  10002A46: 6A 07              push        7
  10002A48: 68 AC BB 00 10     push        1000BBACh
  10002A4D: FF 75 08           push        dword ptr [ebp+8]
  10002A50: E8 1E 10 00 00     call        10003A73
  10002A55: 83 C4 0C           add         esp,0Ch
  10002A58: 85 C0              test        eax,eax
  10002A5A: 74 0F              je          10002A6B
  10002A5C: 6A 00              push        0
  10002A5E: 6A 00              push        0
  10002A60: FF 75 08           push        dword ptr [ebp+8]
  10002A63: FF 15 70 B0 00 10  call        dword ptr ds:[1000B070h]
  10002A69: 5D                 pop         ebp
  10002A6A: C3                 ret
  10002A6B: 33 C0              xor         eax,eax
  10002A6D: 5D                 pop         ebp
  10002A6E: C3                 ret
  10002A6F: 55                 push        ebp
  10002A70: 8B EC              mov         ebp,esp
  10002A72: 56                 push        esi
  10002A73: 68 C4 BB 00 10     push        1000BBC4h
  10002A78: 68 BC BB 00 10     push        1000BBBCh
  10002A7D: 68 C4 BB 00 10     push        1000BBC4h
  10002A82: 6A 00              push        0
  10002A84: E8 FB FE FF FF     call        10002984
  10002A89: 8B F0              mov         esi,eax
  10002A8B: 83 C4 10           add         esp,10h
  10002A8E: 85 F6              test        esi,esi
  10002A90: 74 10              je          10002AA2
  10002A92: FF 75 08           push        dword ptr [ebp+8]
  10002A95: 8B CE              mov         ecx,esi
  10002A97: FF 15 04 B1 00 10  call        dword ptr ds:[1000B104h]
  10002A9D: FF D6              call        esi
  10002A9F: 5E                 pop         esi
  10002AA0: 5D                 pop         ebp
  10002AA1: C3                 ret
  10002AA2: 5E                 pop         esi
  10002AA3: 5D                 pop         ebp
  10002AA4: FF 25 58 B0 00 10  jmp         dword ptr ds:[1000B058h]
  10002AAA: 55                 push        ebp
  10002AAB: 8B EC              mov         ebp,esp
  10002AAD: 56                 push        esi
  10002AAE: 68 D8 BB 00 10     push        1000BBD8h
  10002AB3: 68 D0 BB 00 10     push        1000BBD0h
  10002AB8: 68 D8 BB 00 10     push        1000BBD8h
  10002ABD: 6A 01              push        1
  10002ABF: E8 C0 FE FF FF     call        10002984
  10002AC4: 83 C4 10           add         esp,10h
  10002AC7: 8B F0              mov         esi,eax
  10002AC9: FF 75 08           push        dword ptr [ebp+8]
  10002ACC: 85 F6              test        esi,esi
  10002ACE: 74 0C              je          10002ADC
  10002AD0: 8B CE              mov         ecx,esi
  10002AD2: FF 15 04 B1 00 10  call        dword ptr ds:[1000B104h]
  10002AD8: FF D6              call        esi
  10002ADA: EB 06              jmp         10002AE2
  10002ADC: FF 15 64 B0 00 10  call        dword ptr ds:[1000B064h]
  10002AE2: 5E                 pop         esi
  10002AE3: 5D                 pop         ebp
  10002AE4: C3                 ret
  10002AE5: 55                 push        ebp
  10002AE6: 8B EC              mov         ebp,esp
  10002AE8: 56                 push        esi
  10002AE9: 68 E8 BB 00 10     push        1000BBE8h
  10002AEE: 68 E0 BB 00 10     push        1000BBE0h
  10002AF3: 68 E8 BB 00 10     push        1000BBE8h
  10002AF8: 6A 02              push        2
  10002AFA: E8 85 FE FF FF     call        10002984
  10002AFF: 83 C4 10           add         esp,10h
  10002B02: 8B F0              mov         esi,eax
  10002B04: FF 75 08           push        dword ptr [ebp+8]
  10002B07: 85 F6              test        esi,esi
  10002B09: 74 0C              je          10002B17
  10002B0B: 8B CE              mov         ecx,esi
  10002B0D: FF 15 04 B1 00 10  call        dword ptr ds:[1000B104h]
  10002B13: FF D6              call        esi
  10002B15: EB 06              jmp         10002B1D
  10002B17: FF 15 5C B0 00 10  call        dword ptr ds:[1000B05Ch]
  10002B1D: 5E                 pop         esi
  10002B1E: 5D                 pop         ebp
  10002B1F: C3                 ret
  10002B20: 55                 push        ebp
  10002B21: 8B EC              mov         ebp,esp
  10002B23: 56                 push        esi
  10002B24: 68 FC BB 00 10     push        1000BBFCh
  10002B29: 68 F4 BB 00 10     push        1000BBF4h
  10002B2E: 68 FC BB 00 10     push        1000BBFCh
  10002B33: 6A 03              push        3
  10002B35: E8 4A FE FF FF     call        10002984
  10002B3A: 83 C4 10           add         esp,10h
  10002B3D: 8B F0              mov         esi,eax
  10002B3F: FF 75 0C           push        dword ptr [ebp+0Ch]
  10002B42: FF 75 08           push        dword ptr [ebp+8]
  10002B45: 85 F6              test        esi,esi
  10002B47: 74 0C              je          10002B55
  10002B49: 8B CE              mov         ecx,esi
  10002B4B: FF 15 04 B1 00 10  call        dword ptr ds:[1000B104h]
  10002B51: FF D6              call        esi
  10002B53: EB 06              jmp         10002B5B
  10002B55: FF 15 60 B0 00 10  call        dword ptr ds:[1000B060h]
  10002B5B: 5E                 pop         esi
  10002B5C: 5D                 pop         ebp
  10002B5D: C3                 ret
  10002B5E: 55                 push        ebp
  10002B5F: 8B EC              mov         ebp,esp
  10002B61: 56                 push        esi
  10002B62: 68 10 BC 00 10     push        1000BC10h
  10002B67: 68 08 BC 00 10     push        1000BC08h
  10002B6C: 68 10 BC 00 10     push        1000BC10h
  10002B71: 6A 04              push        4
  10002B73: E8 0C FE FF FF     call        10002984
  10002B78: 8B F0              mov         esi,eax
  10002B7A: 83 C4 10           add         esp,10h
  10002B7D: 85 F6              test        esi,esi
  10002B7F: 74 15              je          10002B96
  10002B81: FF 75 10           push        dword ptr [ebp+10h]
  10002B84: 8B CE              mov         ecx,esi
  10002B86: FF 75 0C           push        dword ptr [ebp+0Ch]
  10002B89: FF 75 08           push        dword ptr [ebp+8]
  10002B8C: FF 15 04 B1 00 10  call        dword ptr ds:[1000B104h]
  10002B92: FF D6              call        esi
  10002B94: EB 0C              jmp         10002BA2
  10002B96: FF 75 0C           push        dword ptr [ebp+0Ch]
  10002B99: FF 75 08           push        dword ptr [ebp+8]
  10002B9C: FF 15 54 B0 00 10  call        dword ptr ds:[1000B054h]
  10002BA2: 5E                 pop         esi
  10002BA3: 5D                 pop         ebp
  10002BA4: C3                 ret
  10002BA5: CC                 int         3
  10002BA6: CC                 int         3
  10002BA7: CC                 int         3
  10002BA8: CC                 int         3
  10002BA9: CC                 int         3
  10002BAA: CC                 int         3
  10002BAB: CC                 int         3
  10002BAC: CC                 int         3
  10002BAD: CC                 int         3
  10002BAE: CC                 int         3
  10002BAF: CC                 int         3
  10002BB0: 8B FF              mov         edi,edi
  10002BB2: 55                 push        ebp
  10002BB3: 8B EC              mov         ebp,esp
  10002BB5: 51                 push        ecx
  10002BB6: 8B 45 0C           mov         eax,dword ptr [ebp+0Ch]
  10002BB9: 53                 push        ebx
  10002BBA: 56                 push        esi
  10002BBB: 8B 75 08           mov         esi,dword ptr [ebp+8]
  10002BBE: 2B C6              sub         eax,esi
  10002BC0: 83 C0 03           add         eax,3
  10002BC3: 57                 push        edi
  10002BC4: 33 FF              xor         edi,edi
  10002BC6: C1 E8 02           shr         eax,2
  10002BC9: 39 75 0C           cmp         dword ptr [ebp+0Ch],esi
  10002BCC: 1B DB              sbb         ebx,ebx
  10002BCE: F7 D3              not         ebx
  10002BD0: 23 D8              and         ebx,eax
  10002BD2: 74 1C              je          10002BF0
  10002BD4: 8B 06              mov         eax,dword ptr [esi]
  10002BD6: 89 45 FC           mov         dword ptr [ebp-4],eax
  10002BD9: 85 C0              test        eax,eax
  10002BDB: 74 0B              je          10002BE8
  10002BDD: 8B C8              mov         ecx,eax
  10002BDF: FF 15 04 B1 00 10  call        dword ptr ds:[1000B104h]
  10002BE5: FF 55 FC           call        dword ptr [ebp-4]
  10002BE8: 83 C6 04           add         esi,4
  10002BEB: 47                 inc         edi
  10002BEC: 3B FB              cmp         edi,ebx
  10002BEE: 75 E4              jne         10002BD4
  10002BF0: 5F                 pop         edi
  10002BF1: 5E                 pop         esi
  10002BF2: 5B                 pop         ebx
  10002BF3: C9                 leave
  10002BF4: C3                 ret
  10002BF5: 8B FF              mov         edi,edi
  10002BF7: 55                 push        ebp
  10002BF8: 8B EC              mov         ebp,esp
  10002BFA: 56                 push        esi
  10002BFB: 8B 75 08           mov         esi,dword ptr [ebp+8]
  10002BFE: 57                 push        edi
  10002BFF: EB 17              jmp         10002C18
  10002C01: 8B 3E              mov         edi,dword ptr [esi]
  10002C03: 85 FF              test        edi,edi
  10002C05: 74 0E              je          10002C15
  10002C07: 8B CF              mov         ecx,edi
  10002C09: FF 15 04 B1 00 10  call        dword ptr ds:[1000B104h]
  10002C0F: FF D7              call        edi
  10002C11: 85 C0              test        eax,eax
  10002C13: 75 0A              jne         10002C1F
  10002C15: 83 C6 04           add         esi,4
  10002C18: 3B 75 0C           cmp         esi,dword ptr [ebp+0Ch]
  10002C1B: 75 E4              jne         10002C01
  10002C1D: 33 C0              xor         eax,eax
  10002C1F: 5F                 pop         edi
  10002C20: 5E                 pop         esi
  10002C21: 5D                 pop         ebp
  10002C22: C3                 ret
  10002C23: 8B FF              mov         edi,edi
  10002C25: 55                 push        ebp
  10002C26: 8B EC              mov         ebp,esp
  10002C28: B8 63 73 6D E0     mov         eax,0E06D7363h
  10002C2D: 39 45 08           cmp         dword ptr [ebp+8],eax
  10002C30: 74 04              je          10002C36
  10002C32: 33 C0              xor         eax,eax
  10002C34: 5D                 pop         ebp
  10002C35: C3                 ret
  10002C36: FF 75 0C           push        dword ptr [ebp+0Ch]
  10002C39: 50                 push        eax
  10002C3A: E8 04 00 00 00     call        10002C43
  10002C3F: 59                 pop         ecx
  10002C40: 59                 pop         ecx
  10002C41: 5D                 pop         ebp
  10002C42: C3                 ret
  10002C43: 8B FF              mov         edi,edi
  10002C45: 55                 push        ebp
  10002C46: 8B EC              mov         ebp,esp
  10002C48: 51                 push        ecx
  10002C49: 53                 push        ebx
  10002C4A: 56                 push        esi
  10002C4B: 57                 push        edi
  10002C4C: E8 1D 13 00 00     call        10003F6E
  10002C51: 8B F0              mov         esi,eax
  10002C53: 85 F6              test        esi,esi
  10002C55: 0F 84 39 01 00 00  je          10002D94
  10002C5B: 8B 16              mov         edx,dword ptr [esi]
  10002C5D: 33 DB              xor         ebx,ebx
  10002C5F: 8B CA              mov         ecx,edx
  10002C61: 8D 82 90 00 00 00  lea         eax,[edx+00000090h]
  10002C67: 3B D0              cmp         edx,eax
  10002C69: 74 0E              je          10002C79
  10002C6B: 8B 7D 08           mov         edi,dword ptr [ebp+8]
  10002C6E: 39 39              cmp         dword ptr [ecx],edi
  10002C70: 74 09              je          10002C7B
  10002C72: 83 C1 0C           add         ecx,0Ch
  10002C75: 3B C8              cmp         ecx,eax
  10002C77: 75 F5              jne         10002C6E
  10002C79: 8B CB              mov         ecx,ebx
  10002C7B: 85 C9              test        ecx,ecx
  10002C7D: 0F 84 11 01 00 00  je          10002D94
  10002C83: 8B 79 08           mov         edi,dword ptr [ecx+8]
  10002C86: 85 FF              test        edi,edi
  10002C88: 0F 84 06 01 00 00  je          10002D94
  10002C8E: 83 FF 05           cmp         edi,5
  10002C91: 75 0B              jne         10002C9E
  10002C93: 33 C0              xor         eax,eax
  10002C95: 89 59 08           mov         dword ptr [ecx+8],ebx
  10002C98: 40                 inc         eax
  10002C99: E9 F8 00 00 00     jmp         10002D96
  10002C9E: 83 FF 01           cmp         edi,1
  10002CA1: 75 08              jne         10002CAB
  10002CA3: 83 C8 FF           or          eax,0FFFFFFFFh
  10002CA6: E9 EB 00 00 00     jmp         10002D96
  10002CAB: 8B 46 04           mov         eax,dword ptr [esi+4]
  10002CAE: 89 45 FC           mov         dword ptr [ebp-4],eax
  10002CB1: 8B 45 0C           mov         eax,dword ptr [ebp+0Ch]
  10002CB4: 89 46 04           mov         dword ptr [esi+4],eax
  10002CB7: 83 79 04 08        cmp         dword ptr [ecx+4],8
  10002CBB: 0F 85 B7 00 00 00  jne         10002D78
  10002CC1: 8D 42 24           lea         eax,[edx+24h]
  10002CC4: 8D 50 6C           lea         edx,[eax+6Ch]
  10002CC7: EB 06              jmp         10002CCF
  10002CC9: 89 58 08           mov         dword ptr [eax+8],ebx
  10002CCC: 83 C0 0C           add         eax,0Ch
  10002CCF: 3B C2              cmp         eax,edx
  10002CD1: 75 F6              jne         10002CC9
  10002CD3: 8B 5E 08           mov         ebx,dword ptr [esi+8]
  10002CD6: B8 91 00 00 C0     mov         eax,0C0000091h
  10002CDB: 39 01              cmp         dword ptr [ecx],eax
  10002CDD: 77 47              ja          10002D26
  10002CDF: 74 3E              je          10002D1F
  10002CE1: 81 39 8D 00 00 C0  cmp         dword ptr [ecx],0C000008Dh
  10002CE7: 74 2F              je          10002D18
  10002CE9: 81 39 8E 00 00 C0  cmp         dword ptr [ecx],0C000008Eh
  10002CEF: 74 20              je          10002D11
  10002CF1: 81 39 8F 00 00 C0  cmp         dword ptr [ecx],0C000008Fh
  10002CF7: 74 11              je          10002D0A
  10002CF9: 81 39 90 00 00 C0  cmp         dword ptr [ecx],0C0000090h
  10002CFF: 8B C3              mov         eax,ebx
  10002D01: 75 62              jne         10002D65
  10002D03: B8 81 00 00 00     mov         eax,81h
  10002D08: EB 58              jmp         10002D62
  10002D0A: B8 86 00 00 00     mov         eax,86h
  10002D0F: EB 51              jmp         10002D62
  10002D11: B8 83 00 00 00     mov         eax,83h
  10002D16: EB 4A              jmp         10002D62
  10002D18: B8 82 00 00 00     mov         eax,82h
  10002D1D: EB 43              jmp         10002D62
  10002D1F: B8 84 00 00 00     mov         eax,84h
  10002D24: EB 3C              jmp         10002D62
  10002D26: 81 39 92 00 00 C0  cmp         dword ptr [ecx],0C0000092h
  10002D2C: 74 2F              je          10002D5D
  10002D2E: 81 39 93 00 00 C0  cmp         dword ptr [ecx],0C0000093h
  10002D34: 74 20              je          10002D56
  10002D36: 81 39 B4 02 00 C0  cmp         dword ptr [ecx],0C00002B4h
  10002D3C: 74 11              je          10002D4F
  10002D3E: 81 39 B5 02 00 C0  cmp         dword ptr [ecx],0C00002B5h
  10002D44: 8B C3              mov         eax,ebx
  10002D46: 75 1D              jne         10002D65
  10002D48: B8 8D 00 00 00     mov         eax,8Dh
  10002D4D: EB 13              jmp         10002D62
  10002D4F: B8 8E 00 00 00     mov         eax,8Eh
  10002D54: EB 0C              jmp         10002D62
  10002D56: B8 85 00 00 00     mov         eax,85h
  10002D5B: EB 05              jmp         10002D62
  10002D5D: B8 8A 00 00 00     mov         eax,8Ah
  10002D62: 89 46 08           mov         dword ptr [esi+8],eax
  10002D65: 50                 push        eax
  10002D66: 6A 08              push        8
  10002D68: 8B CF              mov         ecx,edi
  10002D6A: FF 15 04 B1 00 10  call        dword ptr ds:[1000B104h]
  10002D70: FF D7              call        edi
  10002D72: 59                 pop         ecx
  10002D73: 89 5E 08           mov         dword ptr [esi+8],ebx
  10002D76: EB 10              jmp         10002D88
  10002D78: FF 71 04           push        dword ptr [ecx+4]
  10002D7B: 89 59 08           mov         dword ptr [ecx+8],ebx
  10002D7E: 8B CF              mov         ecx,edi
  10002D80: FF 15 04 B1 00 10  call        dword ptr ds:[1000B104h]
  10002D86: FF D7              call        edi
  10002D88: 8B 45 FC           mov         eax,dword ptr [ebp-4]
  10002D8B: 59                 pop         ecx
  10002D8C: 89 46 04           mov         dword ptr [esi+4],eax
  10002D8F: E9 0F FF FF FF     jmp         10002CA3
  10002D94: 33 C0              xor         eax,eax
  10002D96: 5F                 pop         edi
  10002D97: 5E                 pop         esi
  10002D98: 5B                 pop         ebx
  10002D99: C9                 leave
  10002D9A: C3                 ret
  10002D9B: 6A 08              push        8
  10002D9D: 68 C0 00 01 10     push        100100C0h
  10002DA2: E8 09 EB FF FF     call        100018B0
  10002DA7: 8B 45 08           mov         eax,dword ptr [ebp+8]
  10002DAA: FF 30              push        dword ptr [eax]
  10002DAC: E8 F9 12 00 00     call        100040AA
  10002DB1: 59                 pop         ecx
  10002DB2: 83 65 FC 00        and         dword ptr [ebp-4],0
  10002DB6: 8B 4D 0C           mov         ecx,dword ptr [ebp+0Ch]
  10002DB9: E8 2A 00 00 00     call        10002DE8
  10002DBE: C7 45 FC FE FF FF  mov         dword ptr [ebp-4],0FFFFFFFEh
            FF
  10002DC5: E8 12 00 00 00     call        10002DDC
  10002DCA: 8B 4D F0           mov         ecx,dword ptr [ebp-10h]
  10002DCD: 64 89 0D 00 00 00  mov         dword ptr fs:[00000000h],ecx
            00
  10002DD4: 59                 pop         ecx
  10002DD5: 5F                 pop         edi
  10002DD6: 5E                 pop         esi
  10002DD7: 5B                 pop         ebx
  10002DD8: C9                 leave
  10002DD9: C2 0C 00           ret         0Ch
  10002DDC: 8B 45 10           mov         eax,dword ptr [ebp+10h]
  10002DDF: FF 30              push        dword ptr [eax]
  10002DE1: E8 0C 13 00 00     call        100040F2
  10002DE6: 59                 pop         ecx
  10002DE7: C3                 ret
  10002DE8: 6A 08              push        8
  10002DEA: 68 A0 00 01 10     push        100100A0h
  10002DEF: E8 BC EA FF FF     call        100018B0
  10002DF4: 8B F1              mov         esi,ecx
  10002DF6: 80 3D 8C 1C 01 10  cmp         byte ptr ds:[10011C8Ch],0
            00
  10002DFD: 0F 85 96 00 00 00  jne         10002E99
  10002E03: 33 C0              xor         eax,eax
  10002E05: 40                 inc         eax
  10002E06: B9 84 1C 01 10     mov         ecx,10011C84h
  10002E0B: 87 01              xchg        eax,dword ptr [ecx]
  10002E0D: 33 DB              xor         ebx,ebx
  10002E0F: 89 5D FC           mov         dword ptr [ebp-4],ebx
  10002E12: 8B 06              mov         eax,dword ptr [esi]
  10002E14: 8B 00              mov         eax,dword ptr [eax]
  10002E16: 85 C0              test        eax,eax
  10002E18: 75 2C              jne         10002E46
  10002E1A: 8B 3D 10 10 01 10  mov         edi,dword ptr ds:[10011010h]
  10002E20: 8B CF              mov         ecx,edi
  10002E22: 83 E1 1F           and         ecx,1Fh
  10002E25: A1 88 1C 01 10     mov         eax,dword ptr ds:[10011C88h]
  10002E2A: 3B C7              cmp         eax,edi
  10002E2C: 74 11              je          10002E3F
  10002E2E: 33 F8              xor         edi,eax
  10002E30: D3 CF              ror         edi,cl
  10002E32: 53                 push        ebx
  10002E33: 53                 push        ebx
  10002E34: 53                 push        ebx
  10002E35: 8B CF              mov         ecx,edi
  10002E37: FF 15 04 B1 00 10  call        dword ptr ds:[1000B104h]
  10002E3D: FF D7              call        edi
  10002E3F: 68 A8 1D 01 10     push        10011DA8h
  10002E44: EB 0A              jmp         10002E50
  10002E46: 83 F8 01           cmp         eax,1
  10002E49: 75 0B              jne         10002E56
  10002E4B: 68 B4 1D 01 10     push        10011DB4h
  10002E50: E8 1D 08 00 00     call        10003672
  10002E55: 59                 pop         ecx
  10002E56: C7 45 FC FE FF FF  mov         dword ptr [ebp-4],0FFFFFFFEh
            FF
  10002E5D: 8B 06              mov         eax,dword ptr [esi]
  10002E5F: 39 18              cmp         dword ptr [eax],ebx
  10002E61: 75 11              jne         10002E74
  10002E63: 68 38 B1 00 10     push        1000B138h
  10002E68: 68 28 B1 00 10     push        1000B128h
  10002E6D: E8 3E FD FF FF     call        10002BB0
  10002E72: 59                 pop         ecx
  10002E73: 59                 pop         ecx
  10002E74: 68 40 B1 00 10     push        1000B140h
  10002E79: 68 3C B1 00 10     push        1000B13Ch
  10002E7E: E8 2D FD FF FF     call        10002BB0
  10002E83: 59                 pop         ecx
  10002E84: 59                 pop         ecx
  10002E85: 8B 46 04           mov         eax,dword ptr [esi+4]
  10002E88: 39 18              cmp         dword ptr [eax],ebx
  10002E8A: 75 0D              jne         10002E99
  10002E8C: C6 05 8C 1C 01 10  mov         byte ptr ds:[10011C8Ch],1
            01
  10002E93: 8B 46 08           mov         eax,dword ptr [esi+8]
  10002E96: C6 00 01           mov         byte ptr [eax],1
  10002E99: 8B 4D F0           mov         ecx,dword ptr [ebp-10h]
  10002E9C: 64 89 0D 00 00 00  mov         dword ptr fs:[00000000h],ecx
            00
  10002EA3: 59                 pop         ecx
  10002EA4: 5F                 pop         edi
  10002EA5: 5E                 pop         esi
  10002EA6: 5B                 pop         ebx
  10002EA7: C9                 leave
  10002EA8: C3                 ret
  10002EA9: 8B 45 EC           mov         eax,dword ptr [ebp-14h]
  10002EAC: 8B 00              mov         eax,dword ptr [eax]
  10002EAE: FF 30              push        dword ptr [eax]
  10002EB0: E8 0D 00 00 00     call        10002EC2
  10002EB5: 83 C4 04           add         esp,4
  10002EB8: C3                 ret
  10002EB9: 8B 65 E8           mov         esp,dword ptr [ebp-18h]
  10002EBC: E8 8B 09 00 00     call        1000384C
  10002EC1: CC                 int         3
  10002EC2: 8B FF              mov         edi,edi
  10002EC4: 55                 push        ebp
  10002EC5: 8B EC              mov         ebp,esp
  10002EC7: 33 C0              xor         eax,eax
  10002EC9: 81 7D 08 63 73 6D  cmp         dword ptr [ebp+8],0E06D7363h
            E0
  10002ED0: 0F 94 C0           sete        al
  10002ED3: 5D                 pop         ebp
  10002ED4: C3                 ret
  10002ED5: 8B FF              mov         edi,edi
  10002ED7: 55                 push        ebp
  10002ED8: 8B EC              mov         ebp,esp
  10002EDA: 83 EC 18           sub         esp,18h
  10002EDD: 83 7D 10 00        cmp         dword ptr [ebp+10h],0
  10002EE1: 75 12              jne         10002EF5
  10002EE3: E8 93 00 00 00     call        10002F7B
  10002EE8: 84 C0              test        al,al
  10002EEA: 74 09              je          10002EF5
  10002EEC: FF 75 08           push        dword ptr [ebp+8]
  10002EEF: E8 CA 00 00 00     call        10002FBE
  10002EF4: 59                 pop         ecx
  10002EF5: 8D 45 0C           lea         eax,[ebp+0Ch]
  10002EF8: C6 45 FF 00        mov         byte ptr [ebp-1],0
  10002EFC: 89 45 E8           mov         dword ptr [ebp-18h],eax
  10002EFF: 8D 4D FE           lea         ecx,[ebp-2]
  10002F02: 8D 45 10           lea         eax,[ebp+10h]
  10002F05: 89 45 EC           mov         dword ptr [ebp-14h],eax
  10002F08: 8D 45 FF           lea         eax,[ebp-1]
  10002F0B: 6A 02              push        2
  10002F0D: 89 45 F0           mov         dword ptr [ebp-10h],eax
  10002F10: 58                 pop         eax
  10002F11: 89 45 F8           mov         dword ptr [ebp-8],eax
  10002F14: 89 45 F4           mov         dword ptr [ebp-0Ch],eax
  10002F17: 8D 45 F8           lea         eax,[ebp-8]
  10002F1A: 50                 push        eax
  10002F1B: 8D 45 E8           lea         eax,[ebp-18h]
  10002F1E: 50                 push        eax
  10002F1F: 8D 45 F4           lea         eax,[ebp-0Ch]
  10002F22: 50                 push        eax
  10002F23: E8 73 FE FF FF     call        10002D9B
  10002F28: 83 7D 10 00        cmp         dword ptr [ebp+10h],0
  10002F2C: 74 02              je          10002F30
  10002F2E: C9                 leave
  10002F2F: C3                 ret
  10002F30: FF 75 08           push        dword ptr [ebp+8]
  10002F33: E8 01 00 00 00     call        10002F39
  10002F38: CC                 int         3
  10002F39: 8B FF              mov         edi,edi
  10002F3B: 55                 push        ebp
  10002F3C: 8B EC              mov         ebp,esp
  10002F3E: E8 C6 11 00 00     call        10004109
  10002F43: 83 F8 01           cmp         eax,1
  10002F46: 74 20              je          10002F68
  10002F48: 64 A1 30 00 00 00  mov         eax,dword ptr fs:[00000030h]
  10002F4E: 8B 40 68           mov         eax,dword ptr [eax+68h]
  10002F51: C1 E8 08           shr         eax,8
  10002F54: A8 01              test        al,1
  10002F56: 75 10              jne         10002F68
  10002F58: FF 75 08           push        dword ptr [ebp+8]
  10002F5B: FF 15 2C B0 00 10  call        dword ptr ds:[1000B02Ch]
  10002F61: 50                 push        eax
  10002F62: FF 15 30 B0 00 10  call        dword ptr ds:[1000B030h]
  10002F68: FF 75 08           push        dword ptr [ebp+8]
  10002F6B: E8 4E 00 00 00     call        10002FBE
  10002F70: 59                 pop         ecx
  10002F71: FF 75 08           push        dword ptr [ebp+8]
  10002F74: FF 15 78 B0 00 10  call        dword ptr ds:[1000B078h]
  10002F7A: CC                 int         3
  10002F7B: 6A 00              push        0
  10002F7D: FF 15 28 B0 00 10  call        dword ptr ds:[1000B028h]
  10002F83: 85 C0              test        eax,eax
  10002F85: 74 34              je          10002FBB
  10002F87: B9 4D 5A 00 00     mov         ecx,5A4Dh
  10002F8C: 66 39 08           cmp         word ptr [eax],cx
  10002F8F: 75 2A              jne         10002FBB
  10002F91: 8B 48 3C           mov         ecx,dword ptr [eax+3Ch]
  10002F94: 03 C8              add         ecx,eax
  10002F96: 81 39 50 45 00 00  cmp         dword ptr [ecx],4550h
  10002F9C: 75 1D              jne         10002FBB
  10002F9E: B8 0B 01 00 00     mov         eax,10Bh
  10002FA3: 66 39 41 18        cmp         word ptr [ecx+18h],ax
  10002FA7: 75 12              jne         10002FBB
  10002FA9: 83 79 74 0E        cmp         dword ptr [ecx+74h],0Eh
  10002FAD: 76 0C              jbe         10002FBB
  10002FAF: 83 B9 E8 00 00 00  cmp         dword ptr [ecx+000000E8h],0
            00
  10002FB6: 74 03              je          10002FBB
  10002FB8: B0 01              mov         al,1
  10002FBA: C3                 ret
  10002FBB: 32 C0              xor         al,al
  10002FBD: C3                 ret
  10002FBE: 8B FF              mov         edi,edi
  10002FC0: 55                 push        ebp
  10002FC1: 8B EC              mov         ebp,esp
  10002FC3: 51                 push        ecx
  10002FC4: 83 65 FC 00        and         dword ptr [ebp-4],0
  10002FC8: 8D 45 FC           lea         eax,[ebp-4]
  10002FCB: 50                 push        eax
  10002FCC: 68 CC BC 00 10     push        1000BCCCh
  10002FD1: 6A 00              push        0
  10002FD3: FF 15 7C B0 00 10  call        dword ptr ds:[1000B07Ch]
  10002FD9: 85 C0              test        eax,eax
  10002FDB: 74 23              je          10003000
  10002FDD: 56                 push        esi
  10002FDE: 68 E4 BC 00 10     push        1000BCE4h
  10002FE3: FF 75 FC           push        dword ptr [ebp-4]
  10002FE6: FF 15 6C B0 00 10  call        dword ptr ds:[1000B06Ch]
  10002FEC: 8B F0              mov         esi,eax
  10002FEE: 85 F6              test        esi,esi
  10002FF0: 74 0D              je          10002FFF
  10002FF2: FF 75 08           push        dword ptr [ebp+8]
  10002FF5: 8B CE              mov         ecx,esi
  10002FF7: FF 15 04 B1 00 10  call        dword ptr ds:[1000B104h]
  10002FFD: FF D6              call        esi
  10002FFF: 5E                 pop         esi
  10003000: 83 7D FC 00        cmp         dword ptr [ebp-4],0
  10003004: 74 09              je          1000300F
  10003006: FF 75 FC           push        dword ptr [ebp-4]
  10003009: FF 15 68 B0 00 10  call        dword ptr ds:[1000B068h]
  1000300F: C9                 leave
  10003010: C3                 ret
  10003011: 8B FF              mov         edi,edi
  10003013: 55                 push        ebp
  10003014: 8B EC              mov         ebp,esp
  10003016: 8B 45 08           mov         eax,dword ptr [ebp+8]
  10003019: A3 88 1C 01 10     mov         dword ptr ds:[10011C88h],eax
  1000301E: 5D                 pop         ebp
  1000301F: C3                 ret
  10003020: 6A 01              push        1
  10003022: 6A 00              push        0
  10003024: 6A 00              push        0
  10003026: E8 AA FE FF FF     call        10002ED5
  1000302B: 83 C4 0C           add         esp,0Ch
  1000302E: C3                 ret
  1000302F: 8B FF              mov         edi,edi
  10003031: 55                 push        ebp
  10003032: 8B EC              mov         ebp,esp
  10003034: 6A 00              push        0
  10003036: 6A 02              push        2
  10003038: FF 75 08           push        dword ptr [ebp+8]
  1000303B: E8 95 FE FF FF     call        10002ED5
  10003040: 83 C4 0C           add         esp,0Ch
  10003043: 5D                 pop         ebp
  10003044: C3                 ret
  10003045: A1 84 1C 01 10     mov         eax,dword ptr ds:[10011C84h]
  1000304A: 90                 nop
  1000304B: C3                 ret
  1000304C: 8B FF              mov         edi,edi
  1000304E: 55                 push        ebp
  1000304F: 8B EC              mov         ebp,esp
  10003051: 83 EC 10           sub         esp,10h
  10003054: 53                 push        ebx
  10003055: 8B 5D 08           mov         ebx,dword ptr [ebp+8]
  10003058: 85 DB              test        ebx,ebx
  1000305A: 75 07              jne         10003063
  1000305C: 33 C0              xor         eax,eax
  1000305E: E9 1C 01 00 00     jmp         1000317F
  10003063: 56                 push        esi
  10003064: 83 FB 02           cmp         ebx,2
  10003067: 74 1B              je          10003084
  10003069: 83 FB 01           cmp         ebx,1
  1000306C: 74 16              je          10003084
  1000306E: E8 30 13 00 00     call        100043A3
  10003073: 6A 16              push        16h
  10003075: 5E                 pop         esi
  10003076: 89 30              mov         dword ptr [eax],esi
  10003078: E8 69 12 00 00     call        100042E6
  1000307D: 8B C6              mov         eax,esi
  1000307F: E9 FA 00 00 00     jmp         1000317E
  10003084: 57                 push        edi
  10003085: E8 B0 22 00 00     call        1000533A
  1000308A: 68 04 01 00 00     push        104h
  1000308F: BE 90 1C 01 10     mov         esi,10011C90h
  10003094: 33 FF              xor         edi,edi
  10003096: 56                 push        esi
  10003097: 57                 push        edi
  10003098: E8 E4 1C 00 00     call        10004D81
  1000309D: A1 3C 1F 01 10     mov         eax,dword ptr ds:[10011F3Ch]
  100030A2: 83 C4 0C           add         esp,0Ch
  100030A5: 89 35 2C 1F 01 10  mov         dword ptr ds:[10011F2Ch],esi
  100030AB: 89 45 F0           mov         dword ptr [ebp-10h],eax
  100030AE: 85 C0              test        eax,eax
  100030B0: 74 05              je          100030B7
  100030B2: 80 38 00           cmp         byte ptr [eax],0
  100030B5: 75 05              jne         100030BC
  100030B7: 8B C6              mov         eax,esi
  100030B9: 89 75 F0           mov         dword ptr [ebp-10h],esi
  100030BC: 8D 4D F4           lea         ecx,[ebp-0Ch]
  100030BF: 89 7D FC           mov         dword ptr [ebp-4],edi
  100030C2: 51                 push        ecx
  100030C3: 8D 4D FC           lea         ecx,[ebp-4]
  100030C6: 89 7D F4           mov         dword ptr [ebp-0Ch],edi
  100030C9: 51                 push        ecx
  100030CA: 57                 push        edi
  100030CB: 57                 push        edi
  100030CC: 50                 push        eax
  100030CD: E8 B0 00 00 00     call        10003182
  100030D2: 6A 01              push        1
  100030D4: FF 75 F4           push        dword ptr [ebp-0Ch]
  100030D7: FF 75 FC           push        dword ptr [ebp-4]
  100030DA: E8 17 02 00 00     call        100032F6
  100030DF: 8B F0              mov         esi,eax
  100030E1: 83 C4 20           add         esp,20h
  100030E4: 85 F6              test        esi,esi
  100030E6: 75 0C              jne         100030F4
  100030E8: E8 B6 12 00 00     call        100043A3
  100030ED: 6A 0C              push        0Ch
  100030EF: 5F                 pop         edi
  100030F0: 89 38              mov         dword ptr [eax],edi
  100030F2: EB 32              jmp         10003126
  100030F4: 8D 45 F4           lea         eax,[ebp-0Ch]
  100030F7: 50                 push        eax
  100030F8: 8D 45 FC           lea         eax,[ebp-4]
  100030FB: 50                 push        eax
  100030FC: 8B 45 FC           mov         eax,dword ptr [ebp-4]
  100030FF: 8D 04 86           lea         eax,[esi+eax*4]
  10003102: 50                 push        eax
  10003103: 56                 push        esi
  10003104: FF 75 F0           push        dword ptr [ebp-10h]
  10003107: E8 76 00 00 00     call        10003182
  1000310C: 83 C4 14           add         esp,14h
  1000310F: 83 FB 01           cmp         ebx,1
  10003112: 75 16              jne         1000312A
  10003114: 8B 45 FC           mov         eax,dword ptr [ebp-4]
  10003117: 48                 dec         eax
  10003118: A3 30 1F 01 10     mov         dword ptr ds:[10011F30h],eax
  1000311D: 8B C6              mov         eax,esi
  1000311F: 8B F7              mov         esi,edi
  10003121: A3 34 1F 01 10     mov         dword ptr ds:[10011F34h],eax
  10003126: 8B DF              mov         ebx,edi
  10003128: EB 4A              jmp         10003174
  1000312A: 8D 45 F8           lea         eax,[ebp-8]
  1000312D: 89 7D F8           mov         dword ptr [ebp-8],edi
  10003130: 50                 push        eax
  10003131: 56                 push        esi
  10003132: E8 3D 1B 00 00     call        10004C74
  10003137: 8B D8              mov         ebx,eax
  10003139: 59                 pop         ecx
  1000313A: 59                 pop         ecx
  1000313B: 85 DB              test        ebx,ebx
  1000313D: 74 05              je          10003144
  1000313F: 8B 45 F8           mov         eax,dword ptr [ebp-8]
  10003142: EB 26              jmp         1000316A
  10003144: 8B 55 F8           mov         edx,dword ptr [ebp-8]
  10003147: 8B CF              mov         ecx,edi
  10003149: 8B C2              mov         eax,edx
  1000314B: 39 3A              cmp         dword ptr [edx],edi
  1000314D: 74 08              je          10003157
  1000314F: 8D 40 04           lea         eax,[eax+4]
  10003152: 41                 inc         ecx
  10003153: 39 38              cmp         dword ptr [eax],edi
  10003155: 75 F8              jne         1000314F
  10003157: 8B C7              mov         eax,edi
  10003159: 89 0D 30 1F 01 10  mov         dword ptr ds:[10011F30h],ecx
  1000315F: 89 45 F8           mov         dword ptr [ebp-8],eax
  10003162: 8B DF              mov         ebx,edi
  10003164: 89 15 34 1F 01 10  mov         dword ptr ds:[10011F34h],edx
  1000316A: 50                 push        eax
  1000316B: E8 A3 12 00 00     call        10004413
  10003170: 59                 pop         ecx
  10003171: 89 7D F8           mov         dword ptr [ebp-8],edi
  10003174: 56                 push        esi
  10003175: E8 99 12 00 00     call        10004413
  1000317A: 59                 pop         ecx
  1000317B: 8B C3              mov         eax,ebx
  1000317D: 5F                 pop         edi
  1000317E: 5E                 pop         esi
  1000317F: 5B                 pop         ebx
  10003180: C9                 leave
  10003181: C3                 ret
  10003182: 8B FF              mov         edi,edi
  10003184: 55                 push        ebp
  10003185: 8B EC              mov         ebp,esp
  10003187: 51                 push        ecx
  10003188: 8B 45 14           mov         eax,dword ptr [ebp+14h]
  1000318B: 53                 push        ebx
  1000318C: 8B 5D 18           mov         ebx,dword ptr [ebp+18h]
  1000318F: 56                 push        esi
  10003190: 8B 75 10           mov         esi,dword ptr [ebp+10h]
  10003193: 57                 push        edi
  10003194: 83 23 00           and         dword ptr [ebx],0
  10003197: 8B 7D 08           mov         edi,dword ptr [ebp+8]
  1000319A: C7 00 01 00 00 00  mov         dword ptr [eax],1
  100031A0: 8B 45 0C           mov         eax,dword ptr [ebp+0Ch]
  100031A3: 85 C0              test        eax,eax
  100031A5: 74 08              je          100031AF
  100031A7: 89 30              mov         dword ptr [eax],esi
  100031A9: 83 C0 04           add         eax,4
  100031AC: 89 45 0C           mov         dword ptr [ebp+0Ch],eax
  100031AF: 32 C9              xor         cl,cl
  100031B1: 88 4D FF           mov         byte ptr [ebp-1],cl
  100031B4: 80 3F 22           cmp         byte ptr [edi],22h
  100031B7: 75 0D              jne         100031C6
  100031B9: 84 C9              test        cl,cl
  100031BB: B0 22              mov         al,22h
  100031BD: 0F 94 C1           sete        cl
  100031C0: 47                 inc         edi
  100031C1: 88 4D FF           mov         byte ptr [ebp-1],cl
  100031C4: EB 35              jmp         100031FB
  100031C6: FF 03              inc         dword ptr [ebx]
  100031C8: 85 F6              test        esi,esi
  100031CA: 74 05              je          100031D1
  100031CC: 8A 07              mov         al,byte ptr [edi]
  100031CE: 88 06              mov         byte ptr [esi],al
  100031D0: 46                 inc         esi
  100031D1: 8A 07              mov         al,byte ptr [edi]
  100031D3: 47                 inc         edi
  100031D4: 88 45 FE           mov         byte ptr [ebp-2],al
  100031D7: 0F BE C0           movsx       eax,al
  100031DA: 50                 push        eax
  100031DB: E8 80 24 00 00     call        10005660
  100031E0: 59                 pop         ecx
  100031E1: 85 C0              test        eax,eax
  100031E3: 74 0C              je          100031F1
  100031E5: FF 03              inc         dword ptr [ebx]
  100031E7: 85 F6              test        esi,esi
  100031E9: 74 05              je          100031F0
  100031EB: 8A 07              mov         al,byte ptr [edi]
  100031ED: 88 06              mov         byte ptr [esi],al
  100031EF: 46                 inc         esi
  100031F0: 47                 inc         edi
  100031F1: 8A 45 FE           mov         al,byte ptr [ebp-2]
  100031F4: 84 C0              test        al,al
  100031F6: 74 19              je          10003211
  100031F8: 8A 4D FF           mov         cl,byte ptr [ebp-1]
  100031FB: 84 C9              test        cl,cl
  100031FD: 75 B5              jne         100031B4
  100031FF: 3C 20              cmp         al,20h
  10003201: 74 04              je          10003207
  10003203: 3C 09              cmp         al,9
  10003205: 75 AD              jne         100031B4
  10003207: 85 F6              test        esi,esi
  10003209: 74 07              je          10003212
  1000320B: C6 46 FF 00        mov         byte ptr [esi-1],0
  1000320F: EB 01              jmp         10003212
  10003211: 4F                 dec         edi
  10003212: C6 45 FF 00        mov         byte ptr [ebp-1],0
  10003216: 8A 07              mov         al,byte ptr [edi]
  10003218: 84 C0              test        al,al
  1000321A: 0F 84 C2 00 00 00  je          100032E2
  10003220: 3C 20              cmp         al,20h
  10003222: 74 04              je          10003228
  10003224: 3C 09              cmp         al,9
  10003226: 75 05              jne         1000322D
  10003228: 47                 inc         edi
  10003229: 8A 07              mov         al,byte ptr [edi]
  1000322B: EB F3              jmp         10003220
  1000322D: 84 C0              test        al,al
  1000322F: 0F 84 AD 00 00 00  je          100032E2
  10003235: 8B 4D 0C           mov         ecx,dword ptr [ebp+0Ch]
  10003238: 85 C9              test        ecx,ecx
  1000323A: 74 08              je          10003244
  1000323C: 89 31              mov         dword ptr [ecx],esi
  1000323E: 83 C1 04           add         ecx,4
  10003241: 89 4D 0C           mov         dword ptr [ebp+0Ch],ecx
  10003244: 8B 45 14           mov         eax,dword ptr [ebp+14h]
  10003247: FF 00              inc         dword ptr [eax]
  10003249: 33 D2              xor         edx,edx
  1000324B: 42                 inc         edx
  1000324C: 33 C0              xor         eax,eax
  1000324E: EB 02              jmp         10003252
  10003250: 47                 inc         edi
  10003251: 40                 inc         eax
  10003252: 8A 0F              mov         cl,byte ptr [edi]
  10003254: 80 F9 5C           cmp         cl,5Ch
  10003257: 74 F7              je          10003250
  10003259: 80 F9 22           cmp         cl,22h
  1000325C: 75 2E              jne         1000328C
  1000325E: A8 01              test        al,1
  10003260: 75 1B              jne         1000327D
  10003262: 8A 4D FF           mov         cl,byte ptr [ebp-1]
  10003265: 84 C9              test        cl,cl
  10003267: 74 0C              je          10003275
  10003269: 80 7F 01 22        cmp         byte ptr [edi+1],22h
  1000326D: 75 03              jne         10003272
  1000326F: 47                 inc         edi
  10003270: EB 0B              jmp         1000327D
  10003272: 8A 4D FF           mov         cl,byte ptr [ebp-1]
  10003275: 33 D2              xor         edx,edx
  10003277: 84 C9              test        cl,cl
  10003279: 0F 94 45 FF        sete        byte ptr [ebp-1]
  1000327D: D1 E8              shr         eax,1
  1000327F: EB 0B              jmp         1000328C
  10003281: 48                 dec         eax
  10003282: 85 F6              test        esi,esi
  10003284: 74 04              je          1000328A
  10003286: C6 06 5C           mov         byte ptr [esi],5Ch
  10003289: 46                 inc         esi
  1000328A: FF 03              inc         dword ptr [ebx]
  1000328C: 85 C0              test        eax,eax
  1000328E: 75 F1              jne         10003281
  10003290: 8A 07              mov         al,byte ptr [edi]
  10003292: 84 C0              test        al,al
  10003294: 74 3D              je          100032D3
  10003296: 80 7D FF 00        cmp         byte ptr [ebp-1],0
  1000329A: 75 08              jne         100032A4
  1000329C: 3C 20              cmp         al,20h
  1000329E: 74 33              je          100032D3
  100032A0: 3C 09              cmp         al,9
  100032A2: 74 2F              je          100032D3
  100032A4: 85 D2              test        edx,edx
  100032A6: 74 25              je          100032CD
  100032A8: 85 F6              test        esi,esi
  100032AA: 74 05              je          100032B1
  100032AC: 88 06              mov         byte ptr [esi],al
  100032AE: 46                 inc         esi
  100032AF: 8A 07              mov         al,byte ptr [edi]
  100032B1: 0F BE C0           movsx       eax,al
  100032B4: 50                 push        eax
  100032B5: E8 A6 23 00 00     call        10005660
  100032BA: 59                 pop         ecx
  100032BB: 85 C0              test        eax,eax
  100032BD: 74 0C              je          100032CB
  100032BF: 47                 inc         edi
  100032C0: FF 03              inc         dword ptr [ebx]
  100032C2: 85 F6              test        esi,esi
  100032C4: 74 05              je          100032CB
  100032C6: 8A 07              mov         al,byte ptr [edi]
  100032C8: 88 06              mov         byte ptr [esi],al
  100032CA: 46                 inc         esi
  100032CB: FF 03              inc         dword ptr [ebx]
  100032CD: 47                 inc         edi
  100032CE: E9 76 FF FF FF     jmp         10003249
  100032D3: 85 F6              test        esi,esi
  100032D5: 74 04              je          100032DB
  100032D7: C6 06 00           mov         byte ptr [esi],0
  100032DA: 46                 inc         esi
  100032DB: FF 03              inc         dword ptr [ebx]
  100032DD: E9 34 FF FF FF     jmp         10003216
  100032E2: 8B 4D 0C           mov         ecx,dword ptr [ebp+0Ch]
  100032E5: 5F                 pop         edi
  100032E6: 5E                 pop         esi
  100032E7: 5B                 pop         ebx
  100032E8: 85 C9              test        ecx,ecx
  100032EA: 74 03              je          100032EF
  100032EC: 83 21 00           and         dword ptr [ecx],0
  100032EF: 8B 45 14           mov         eax,dword ptr [ebp+14h]
  100032F2: FF 00              inc         dword ptr [eax]
  100032F4: C9                 leave
  100032F5: C3                 ret
  100032F6: 8B FF              mov         edi,edi
  100032F8: 55                 push        ebp
  100032F9: 8B EC              mov         ebp,esp
  100032FB: 56                 push        esi
  100032FC: 8B 75 08           mov         esi,dword ptr [ebp+8]
  100032FF: 81 FE FF FF FF 3F  cmp         esi,3FFFFFFFh
  10003305: 73 39              jae         10003340
  10003307: 83 C8 FF           or          eax,0FFFFFFFFh
  1000330A: 8B 4D 0C           mov         ecx,dword ptr [ebp+0Ch]
  1000330D: 33 D2              xor         edx,edx
  1000330F: F7 75 10           div         eax,dword ptr [ebp+10h]
  10003312: 3B C8              cmp         ecx,eax
  10003314: 73 2A              jae         10003340
  10003316: 0F AF 4D 10        imul        ecx,dword ptr [ebp+10h]
  1000331A: C1 E6 02           shl         esi,2
  1000331D: 8B C6              mov         eax,esi
  1000331F: F7 D0              not         eax
  10003321: 3B C1              cmp         eax,ecx
  10003323: 76 1B              jbe         10003340
  10003325: 8D 04 0E           lea         eax,[esi+ecx]
  10003328: 6A 01              push        1
  1000332A: 50                 push        eax
  1000332B: E8 86 10 00 00     call        100043B6
  10003330: 6A 00              push        0
  10003332: 8B F0              mov         esi,eax
  10003334: E8 DA 10 00 00     call        10004413
  10003339: 83 C4 0C           add         esp,0Ch
  1000333C: 8B C6              mov         eax,esi
  1000333E: EB 02              jmp         10003342
  10003340: 33 C0              xor         eax,eax
  10003342: 5E                 pop         esi
  10003343: 5D                 pop         ebp
  10003344: C3                 ret
  10003345: 8B FF              mov         edi,edi
  10003347: 55                 push        ebp
  10003348: 8B EC              mov         ebp,esp
  1000334A: 5D                 pop         ebp
  1000334B: E9 FC FC FF FF     jmp         1000304C
  10003350: 83 3D 98 1D 01 10  cmp         dword ptr ds:[10011D98h],0
            00
  10003357: 74 03              je          1000335C
  10003359: 33 C0              xor         eax,eax
  1000335B: C3                 ret
  1000335C: 56                 push        esi
  1000335D: 57                 push        edi
  1000335E: E8 D7 1F 00 00     call        1000533A
  10003363: E8 93 24 00 00     call        100057FB
  10003368: 8B F0              mov         esi,eax
  1000336A: 85 F6              test        esi,esi
  1000336C: 75 05              jne         10003373
  1000336E: 83 CF FF           or          edi,0FFFFFFFFh
  10003371: EB 24              jmp         10003397
  10003373: 56                 push        esi
  10003374: E8 2A 00 00 00     call        100033A3
  10003379: 59                 pop         ecx
  1000337A: 85 C0              test        eax,eax
  1000337C: 75 05              jne         10003383
  1000337E: 83 CF FF           or          edi,0FFFFFFFFh
  10003381: EB 0C              jmp         1000338F
  10003383: A3 A4 1D 01 10     mov         dword ptr ds:[10011DA4h],eax
  10003388: 33 FF              xor         edi,edi
  1000338A: A3 98 1D 01 10     mov         dword ptr ds:[10011D98h],eax
  1000338F: 6A 00              push        0
  10003391: E8 7D 10 00 00     call        10004413
  10003396: 59                 pop         ecx
  10003397: 56                 push        esi
  10003398: E8 76 10 00 00     call        10004413
  1000339D: 59                 pop         ecx
  1000339E: 8B C7              mov         eax,edi
  100033A0: 5F                 pop         edi
  100033A1: 5E                 pop         esi
  100033A2: C3                 ret
  100033A3: 8B FF              mov         edi,edi
  100033A5: 55                 push        ebp
  100033A6: 8B EC              mov         ebp,esp
  100033A8: 51                 push        ecx
  100033A9: 51                 push        ecx
  100033AA: 53                 push        ebx
  100033AB: 8B 5D 08           mov         ebx,dword ptr [ebp+8]
  100033AE: 33 D2              xor         edx,edx
  100033B0: 56                 push        esi
  100033B1: 57                 push        edi
  100033B2: 8B F3              mov         esi,ebx
  100033B4: 8A 03              mov         al,byte ptr [ebx]
  100033B6: EB 18              jmp         100033D0
  100033B8: 3C 3D              cmp         al,3Dh
  100033BA: 74 01              je          100033BD
  100033BC: 42                 inc         edx
  100033BD: 8B CE              mov         ecx,esi
  100033BF: 8D 79 01           lea         edi,[ecx+1]
  100033C2: 8A 01              mov         al,byte ptr [ecx]
  100033C4: 41                 inc         ecx
  100033C5: 84 C0              test        al,al
  100033C7: 75 F9              jne         100033C2
  100033C9: 2B CF              sub         ecx,edi
  100033CB: 46                 inc         esi
  100033CC: 03 F1              add         esi,ecx
  100033CE: 8A 06              mov         al,byte ptr [esi]
  100033D0: 84 C0              test        al,al
  100033D2: 75 E4              jne         100033B8
  100033D4: 8D 42 01           lea         eax,[edx+1]
  100033D7: 6A 04              push        4
  100033D9: 50                 push        eax
  100033DA: E8 D7 0F 00 00     call        100043B6
  100033DF: 8B F8              mov         edi,eax
  100033E1: 59                 pop         ecx
  100033E2: 59                 pop         ecx
  100033E3: 85 FF              test        edi,edi
  100033E5: 74 6E              je          10003455
  100033E7: 89 7D FC           mov         dword ptr [ebp-4],edi
  100033EA: EB 52              jmp         1000343E
  100033EC: 8B CB              mov         ecx,ebx
  100033EE: 8D 71 01           lea         esi,[ecx+1]
  100033F1: 8A 01              mov         al,byte ptr [ecx]
  100033F3: 41                 inc         ecx
  100033F4: 84 C0              test        al,al
  100033F6: 75 F9              jne         100033F1
  100033F8: 2B CE              sub         ecx,esi
  100033FA: 8D 41 01           lea         eax,[ecx+1]
  100033FD: 89 45 F8           mov         dword ptr [ebp-8],eax
  10003400: 80 FA 3D           cmp         dl,3Dh
  10003403: 74 37              je          1000343C
  10003405: 6A 01              push        1
  10003407: 50                 push        eax
  10003408: E8 A9 0F 00 00     call        100043B6
  1000340D: 8B F0              mov         esi,eax
  1000340F: 59                 pop         ecx
  10003410: 59                 pop         ecx
  10003411: 85 F6              test        esi,esi
  10003413: 74 31              je          10003446
  10003415: 53                 push        ebx
  10003416: FF 75 F8           push        dword ptr [ebp-8]
  10003419: 56                 push        esi
  1000341A: E8 84 04 00 00     call        100038A3
  1000341F: 83 C4 0C           add         esp,0Ch
  10003422: 85 C0              test        eax,eax
  10003424: 75 40              jne         10003466
  10003426: 8B 45 FC           mov         eax,dword ptr [ebp-4]
  10003429: 6A 00              push        0
  1000342B: 89 30              mov         dword ptr [eax],esi
  1000342D: 83 C0 04           add         eax,4
  10003430: 89 45 FC           mov         dword ptr [ebp-4],eax
  10003433: E8 DB 0F 00 00     call        10004413
  10003438: 8B 45 F8           mov         eax,dword ptr [ebp-8]
  1000343B: 59                 pop         ecx
  1000343C: 03 D8              add         ebx,eax
  1000343E: 8A 13              mov         dl,byte ptr [ebx]
  10003440: 84 D2              test        dl,dl
  10003442: 75 A8              jne         100033EC
  10003444: EB 11              jmp         10003457
  10003446: 57                 push        edi
  10003447: E8 27 00 00 00     call        10003473
  1000344C: 6A 00              push        0
  1000344E: E8 C0 0F 00 00     call        10004413
  10003453: 59                 pop         ecx
  10003454: 59                 pop         ecx
  10003455: 33 FF              xor         edi,edi
  10003457: 6A 00              push        0
  10003459: E8 B5 0F 00 00     call        10004413
  1000345E: 59                 pop         ecx
  1000345F: 8B C7              mov         eax,edi
  10003461: 5F                 pop         edi
  10003462: 5E                 pop         esi
  10003463: 5B                 pop         ebx
  10003464: C9                 leave
  10003465: C3                 ret
  10003466: 33 C0              xor         eax,eax
  10003468: 50                 push        eax
  10003469: 50                 push        eax
  1000346A: 50                 push        eax
  1000346B: 50                 push        eax
  1000346C: 50                 push        eax
  1000346D: E8 84 0E 00 00     call        100042F6
  10003472: CC                 int         3
  10003473: 8B FF              mov         edi,edi
  10003475: 55                 push        ebp
  10003476: 8B EC              mov         ebp,esp
  10003478: 56                 push        esi
  10003479: 8B 75 08           mov         esi,dword ptr [ebp+8]
  1000347C: 85 F6              test        esi,esi
  1000347E: 74 1F              je          1000349F
  10003480: 8B 06              mov         eax,dword ptr [esi]
  10003482: 57                 push        edi
  10003483: 8B FE              mov         edi,esi
  10003485: EB 0C              jmp         10003493
  10003487: 50                 push        eax
  10003488: E8 86 0F 00 00     call        10004413
  1000348D: 8D 7F 04           lea         edi,[edi+4]
  10003490: 8B 07              mov         eax,dword ptr [edi]
  10003492: 59                 pop         ecx
  10003493: 85 C0              test        eax,eax
  10003495: 75 F0              jne         10003487
  10003497: 56                 push        esi
  10003498: E8 76 0F 00 00     call        10004413
  1000349D: 59                 pop         ecx
  1000349E: 5F                 pop         edi
  1000349F: 5E                 pop         esi
  100034A0: 5D                 pop         ebp
  100034A1: C3                 ret
  100034A2: 8B FF              mov         edi,edi
  100034A4: 55                 push        ebp
  100034A5: 8B EC              mov         ebp,esp
  100034A7: 56                 push        esi
  100034A8: 8B F1              mov         esi,ecx
  100034AA: 57                 push        edi
  100034AB: 8D 7E 04           lea         edi,[esi+4]
  100034AE: EB 11              jmp         100034C1
  100034B0: 8B 4D 08           mov         ecx,dword ptr [ebp+8]
  100034B3: 56                 push        esi
  100034B4: FF 15 04 B1 00 10  call        dword ptr ds:[1000B104h]
  100034BA: FF 55 08           call        dword ptr [ebp+8]
  100034BD: 59                 pop         ecx
  100034BE: 83 C6 04           add         esi,4
  100034C1: 3B F7              cmp         esi,edi
  100034C3: 75 EB              jne         100034B0
  100034C5: 5F                 pop         edi
  100034C6: 5E                 pop         esi
  100034C7: 5D                 pop         ebp
  100034C8: C2 04 00           ret         4
  100034CB: 8B FF              mov         edi,edi
  100034CD: 55                 push        ebp
  100034CE: 8B EC              mov         ebp,esp
  100034D0: 8B 45 08           mov         eax,dword ptr [ebp+8]
  100034D3: 8B 00              mov         eax,dword ptr [eax]
  100034D5: 3B 05 A4 1D 01 10  cmp         eax,dword ptr ds:[10011DA4h]
  100034DB: 74 07              je          100034E4
  100034DD: 50                 push        eax
  100034DE: E8 90 FF FF FF     call        10003473
  100034E3: 59                 pop         ecx
  100034E4: 5D                 pop         ebp
  100034E5: C3                 ret
  100034E6: 8B FF              mov         edi,edi
  100034E8: 55                 push        ebp
  100034E9: 8B EC              mov         ebp,esp
  100034EB: 8B 45 08           mov         eax,dword ptr [ebp+8]
  100034EE: 8B 00              mov         eax,dword ptr [eax]
  100034F0: 3B 05 A0 1D 01 10  cmp         eax,dword ptr ds:[10011DA0h]
  100034F6: 74 07              je          100034FF
  100034F8: 50                 push        eax
  100034F9: E8 75 FF FF FF     call        10003473
  100034FE: 59                 pop         ecx
  100034FF: 5D                 pop         ebp
  10003500: C3                 ret
  10003501: 68 CB 34 00 10     push        100034CBh
  10003506: B9 98 1D 01 10     mov         ecx,10011D98h
  1000350B: E8 92 FF FF FF     call        100034A2
  10003510: 68 E6 34 00 10     push        100034E6h
  10003515: B9 9C 1D 01 10     mov         ecx,10011D9Ch
  1000351A: E8 83 FF FF FF     call        100034A2
  1000351F: FF 35 A4 1D 01 10  push        dword ptr ds:[10011DA4h]
  10003525: E8 49 FF FF FF     call        10003473
  1000352A: FF 35 A0 1D 01 10  push        dword ptr ds:[10011DA0h]
  10003530: E8 3E FF FF FF     call        10003473
  10003535: 59                 pop         ecx
  10003536: 59                 pop         ecx
  10003537: C3                 ret
  10003538: E9 13 FE FF FF     jmp         10003350
  1000353D: 6A 0C              push        0Ch
  1000353F: 68 E0 00 01 10     push        100100E0h
  10003544: E8 67 E3 FF FF     call        100018B0
  10003549: 83 65 E4 00        and         dword ptr [ebp-1Ch],0
  1000354D: 8B 45 08           mov         eax,dword ptr [ebp+8]
  10003550: FF 30              push        dword ptr [eax]
  10003552: E8 53 0B 00 00     call        100040AA
  10003557: 59                 pop         ecx
  10003558: 83 65 FC 00        and         dword ptr [ebp-4],0
  1000355C: 8B 4D 0C           mov         ecx,dword ptr [ebp+0Ch]
  1000355F: E8 34 00 00 00     call        10003598
  10003564: 8B F0              mov         esi,eax
  10003566: 89 75 E4           mov         dword ptr [ebp-1Ch],esi
  10003569: C7 45 FC FE FF FF  mov         dword ptr [ebp-4],0FFFFFFFEh
            FF
  10003570: E8 17 00 00 00     call        1000358C
  10003575: 8B C6              mov         eax,esi
  10003577: 8B 4D F0           mov         ecx,dword ptr [ebp-10h]
  1000357A: 64 89 0D 00 00 00  mov         dword ptr fs:[00000000h],ecx
            00
  10003581: 59                 pop         ecx
  10003582: 5F                 pop         edi
  10003583: 5E                 pop         esi
  10003584: 5B                 pop         ebx
  10003585: C9                 leave
  10003586: C2 0C 00           ret         0Ch
  10003589: 8B 75 E4           mov         esi,dword ptr [ebp-1Ch]
  1000358C: 8B 45 10           mov         eax,dword ptr [ebp+10h]
  1000358F: FF 30              push        dword ptr [eax]
  10003591: E8 5C 0B 00 00     call        100040F2
  10003596: 59                 pop         ecx
  10003597: C3                 ret
  10003598: 8B FF              mov         edi,edi
  1000359A: 55                 push        ebp
  1000359B: 8B EC              mov         ebp,esp
  1000359D: 83 EC 14           sub         esp,14h
  100035A0: 53                 push        ebx
  100035A1: 8B D9              mov         ebx,ecx
  100035A3: 57                 push        edi
  100035A4: 89 5D EC           mov         dword ptr [ebp-14h],ebx
  100035A7: 8B 03              mov         eax,dword ptr [ebx]
  100035A9: 8B 38              mov         edi,dword ptr [eax]
  100035AB: 85 FF              test        edi,edi
  100035AD: 75 08              jne         100035B7
  100035AF: 83 C8 FF           or          eax,0FFFFFFFFh
  100035B2: E9 B7 00 00 00     jmp         1000366E
  100035B7: 8B 15 10 10 01 10  mov         edx,dword ptr ds:[10011010h]
  100035BD: 8B CA              mov         ecx,edx
  100035BF: 56                 push        esi
  100035C0: 8B 37              mov         esi,dword ptr [edi]
  100035C2: 83 E1 1F           and         ecx,1Fh
  100035C5: 8B 7F 04           mov         edi,dword ptr [edi+4]
  100035C8: 33 F2              xor         esi,edx
  100035CA: 33 FA              xor         edi,edx
  100035CC: D3 CE              ror         esi,cl
  100035CE: D3 CF              ror         edi,cl
  100035D0: 85 F6              test        esi,esi
  100035D2: 0F 84 93 00 00 00  je          1000366B
  100035D8: 83 FE FF           cmp         esi,0FFFFFFFFh
  100035DB: 0F 84 8A 00 00 00  je          1000366B
  100035E1: 89 55 FC           mov         dword ptr [ebp-4],edx
  100035E4: 89 7D F4           mov         dword ptr [ebp-0Ch],edi
  100035E7: 89 75 F8           mov         dword ptr [ebp-8],esi
  100035EA: 83 EF 04           sub         edi,4
  100035ED: 3B FE              cmp         edi,esi
  100035EF: 72 54              jb          10003645
  100035F1: 8B 07              mov         eax,dword ptr [edi]
  100035F3: 3B 45 FC           cmp         eax,dword ptr [ebp-4]
  100035F6: 74 F2              je          100035EA
  100035F8: 33 C2              xor         eax,edx
  100035FA: 8B 55 FC           mov         edx,dword ptr [ebp-4]
  100035FD: D3 C8              ror         eax,cl
  100035FF: 8B C8              mov         ecx,eax
  10003601: 89 17              mov         dword ptr [edi],edx
  10003603: 89 45 F0           mov         dword ptr [ebp-10h],eax
  10003606: FF 15 04 B1 00 10  call        dword ptr ds:[1000B104h]
  1000360C: FF 55 F0           call        dword ptr [ebp-10h]
  1000360F: 8B 03              mov         eax,dword ptr [ebx]
  10003611: 8B 15 10 10 01 10  mov         edx,dword ptr ds:[10011010h]
  10003617: 8B CA              mov         ecx,edx
  10003619: 83 E1 1F           and         ecx,1Fh
  1000361C: 8B 00              mov         eax,dword ptr [eax]
  1000361E: 8B 18              mov         ebx,dword ptr [eax]
  10003620: 8B 40 04           mov         eax,dword ptr [eax+4]
  10003623: 33 DA              xor         ebx,edx
  10003625: D3 CB              ror         ebx,cl
  10003627: 33 C2              xor         eax,edx
  10003629: D3 C8              ror         eax,cl
  1000362B: 3B 5D F8           cmp         ebx,dword ptr [ebp-8]
  1000362E: 89 5D F0           mov         dword ptr [ebp-10h],ebx
  10003631: 8B 5D EC           mov         ebx,dword ptr [ebp-14h]
  10003634: 75 05              jne         1000363B
  10003636: 3B 45 F4           cmp         eax,dword ptr [ebp-0Ch]
  10003639: 74 AF              je          100035EA
  1000363B: 8B 75 F0           mov         esi,dword ptr [ebp-10h]
  1000363E: 8B F8              mov         edi,eax
  10003640: 89 45 F4           mov         dword ptr [ebp-0Ch],eax
  10003643: EB A2              jmp         100035E7
  10003645: 83 FE FF           cmp         esi,0FFFFFFFFh
  10003648: 74 0D              je          10003657
  1000364A: 56                 push        esi
  1000364B: E8 C3 0D 00 00     call        10004413
  10003650: 8B 15 10 10 01 10  mov         edx,dword ptr ds:[10011010h]
  10003656: 59                 pop         ecx
  10003657: 8B 03              mov         eax,dword ptr [ebx]
  10003659: 8B 00              mov         eax,dword ptr [eax]
  1000365B: 89 10              mov         dword ptr [eax],edx
  1000365D: 8B 03              mov         eax,dword ptr [ebx]
  1000365F: 8B 00              mov         eax,dword ptr [eax]
  10003661: 89 50 04           mov         dword ptr [eax+4],edx
  10003664: 8B 03              mov         eax,dword ptr [ebx]
  10003666: 8B 00              mov         eax,dword ptr [eax]
  10003668: 89 50 08           mov         dword ptr [eax+8],edx
  1000366B: 33 C0              xor         eax,eax
  1000366D: 5E                 pop         esi
  1000366E: 5F                 pop         edi
  1000366F: 5B                 pop         ebx
  10003670: C9                 leave
  10003671: C3                 ret
  10003672: 8B FF              mov         edi,edi
  10003674: 55                 push        ebp
  10003675: 8B EC              mov         ebp,esp
  10003677: 83 EC 10           sub         esp,10h
  1000367A: 6A 02              push        2
  1000367C: 8D 45 08           lea         eax,[ebp+8]
  1000367F: 89 45 F4           mov         dword ptr [ebp-0Ch],eax
  10003682: 8D 4D FF           lea         ecx,[ebp-1]
  10003685: 58                 pop         eax
  10003686: 89 45 F8           mov         dword ptr [ebp-8],eax
  10003689: 89 45 F0           mov         dword ptr [ebp-10h],eax
  1000368C: 8D 45 F8           lea         eax,[ebp-8]
  1000368F: 50                 push        eax
  10003690: 8D 45 F4           lea         eax,[ebp-0Ch]
  10003693: 50                 push        eax
  10003694: 8D 45 F0           lea         eax,[ebp-10h]
  10003697: 50                 push        eax
  10003698: E8 A0 FE FF FF     call        1000353D
  1000369D: C9                 leave
  1000369E: C3                 ret
  1000369F: 8B FF              mov         edi,edi
  100036A1: 55                 push        ebp
  100036A2: 8B EC              mov         ebp,esp
  100036A4: 8B 4D 08           mov         ecx,dword ptr [ebp+8]
  100036A7: 85 C9              test        ecx,ecx
  100036A9: 75 05              jne         100036B0
  100036AB: 83 C8 FF           or          eax,0FFFFFFFFh
  100036AE: 5D                 pop         ebp
  100036AF: C3                 ret
  100036B0: 8B 01              mov         eax,dword ptr [ecx]
  100036B2: 3B 41 08           cmp         eax,dword ptr [ecx+8]
  100036B5: 75 0D              jne         100036C4
  100036B7: A1 10 10 01 10     mov         eax,dword ptr ds:[10011010h]
  100036BC: 89 01              mov         dword ptr [ecx],eax
  100036BE: 89 41 04           mov         dword ptr [ecx+4],eax
  100036C1: 89 41 08           mov         dword ptr [ecx+8],eax
  100036C4: 33 C0              xor         eax,eax
  100036C6: 5D                 pop         ebp
  100036C7: C3                 ret
  100036C8: C7 05 44 22 01 10  mov         dword ptr ds:[10012244h],10011580h
            80 15 01 10
  100036D2: B0 01              mov         al,1
  100036D4: C3                 ret
  100036D5: 68 A8 1D 01 10     push        10011DA8h
  100036DA: E8 C0 FF FF FF     call        1000369F
  100036DF: C7 04 24 B4 1D 01  mov         dword ptr [esp],10011DB4h
            10
  100036E6: E8 B4 FF FF FF     call        1000369F
  100036EB: 59                 pop         ecx
  100036EC: B0 01              mov         al,1
  100036EE: C3                 ret
  100036EF: B0 01              mov         al,1
  100036F1: C3                 ret
  100036F2: E8 0A FE FF FF     call        10003501
  100036F7: B0 01              mov         al,1
  100036F9: C3                 ret
  100036FA: 8B FF              mov         edi,edi
  100036FC: 56                 push        esi
  100036FD: 8B 35 10 10 01 10  mov         esi,dword ptr ds:[10011010h]
  10003703: 56                 push        esi
  10003704: E8 6A 0B 00 00     call        10004273
  10003709: 56                 push        esi
  1000370A: E8 B7 28 00 00     call        10005FC6
  1000370F: 56                 push        esi
  10003710: E8 3E 2A 00 00     call        10006153
  10003715: 56                 push        esi
  10003716: E8 61 2C 00 00     call        1000637C
  1000371B: 56                 push        esi
  1000371C: E8 F0 F8 FF FF     call        10003011
  10003721: 83 C4 14           add         esp,14h
  10003724: B0 01              mov         al,1
  10003726: 5E                 pop         esi
  10003727: C3                 ret
  10003728: 6A 00              push        0
  1000372A: E8 D7 E6 FF FF     call        10001E06
  1000372F: 59                 pop         ecx
  10003730: C3                 ret
  10003731: 8B FF              mov         edi,edi
  10003733: 55                 push        ebp
  10003734: 8B EC              mov         ebp,esp
  10003736: 51                 push        ecx
  10003737: 68 20 1F 01 10     push        10011F20h
  1000373C: 8D 4D FF           lea         ecx,[ebp-1]
  1000373F: E8 73 00 00 00     call        100037B7
  10003744: B0 01              mov         al,1
  10003746: C9                 leave
  10003747: C3                 ret
  10003748: 8B FF              mov         edi,edi
  1000374A: 56                 push        esi
  1000374B: FF 35 50 22 01 10  push        dword ptr ds:[10012250h]
  10003751: E8 BD 0C 00 00     call        10004413
  10003756: FF 35 54 22 01 10  push        dword ptr ds:[10012254h]
  1000375C: 33 F6              xor         esi,esi
  1000375E: 89 35 50 22 01 10  mov         dword ptr ds:[10012250h],esi
  10003764: E8 AA 0C 00 00     call        10004413
  10003769: FF 35 34 1F 01 10  push        dword ptr ds:[10011F34h]
  1000376F: 89 35 54 22 01 10  mov         dword ptr ds:[10012254h],esi
  10003775: E8 99 0C 00 00     call        10004413
  1000377A: FF 35 38 1F 01 10  push        dword ptr ds:[10011F38h]
  10003780: 89 35 34 1F 01 10  mov         dword ptr ds:[10011F34h],esi
  10003786: E8 88 0C 00 00     call        10004413
  1000378B: 83 C4 10           add         esp,10h
  1000378E: 89 35 38 1F 01 10  mov         dword ptr ds:[10011F38h],esi
  10003794: B0 01              mov         al,1
  10003796: 5E                 pop         esi
  10003797: C3                 ret
  10003798: 8B FF              mov         edi,edi
  1000379A: 55                 push        ebp
  1000379B: 8B EC              mov         ebp,esp
  1000379D: A1 10 10 01 10     mov         eax,dword ptr ds:[10011010h]
  100037A2: 83 E0 1F           and         eax,1Fh
  100037A5: 6A 20              push        20h
  100037A7: 59                 pop         ecx
  100037A8: 2B C8              sub         ecx,eax
  100037AA: 8B 45 08           mov         eax,dword ptr [ebp+8]
  100037AD: D3 C8              ror         eax,cl
  100037AF: 33 05 10 10 01 10  xor         eax,dword ptr ds:[10011010h]
  100037B5: 5D                 pop         ebp
  100037B6: C3                 ret
  100037B7: 8B FF              mov         edi,edi
  100037B9: 55                 push        ebp
  100037BA: 8B EC              mov         ebp,esp
  100037BC: 56                 push        esi
  100037BD: 8B 75 08           mov         esi,dword ptr [ebp+8]
  100037C0: 83 C9 FF           or          ecx,0FFFFFFFFh
  100037C3: 8B 06              mov         eax,dword ptr [esi]
  100037C5: F0 0F C1 08        lock xadd   dword ptr [eax],ecx
  100037C9: 75 15              jne         100037E0
  100037CB: 57                 push        edi
  100037CC: BF 60 10 01 10     mov         edi,10011060h
  100037D1: 39 3E              cmp         dword ptr [esi],edi
  100037D3: 74 0A              je          100037DF
  100037D5: FF 36              push        dword ptr [esi]
  100037D7: E8 37 0C 00 00     call        10004413
  100037DC: 59                 pop         ecx
  100037DD: 89 3E              mov         dword ptr [esi],edi
  100037DF: 5F                 pop         edi
  100037E0: 5E                 pop         esi
  100037E1: 5D                 pop         ebp
  100037E2: C2 04 00           ret         4
  100037E5: 68 78 BD 00 10     push        1000BD78h
  100037EA: 68 F8 BC 00 10     push        1000BCF8h
  100037EF: E8 39 27 00 00     call        10005F2D
  100037F4: 59                 pop         ecx
  100037F5: 59                 pop         ecx
  100037F6: C3                 ret
  100037F7: E8 72 07 00 00     call        10003F6E
  100037FC: 85 C0              test        eax,eax
  100037FE: 0F 95 C0           setne       al
  10003801: C3                 ret
  10003802: E8 E4 05 00 00     call        10003DEB
  10003807: B0 01              mov         al,1
  10003809: C3                 ret
  1000380A: 8B FF              mov         edi,edi
  1000380C: 55                 push        ebp
  1000380D: 8B EC              mov         ebp,esp
  1000380F: 80 7D 08 00        cmp         byte ptr [ebp+8],0
  10003813: 74 12              je          10003827
  10003815: 83 3D 4C 22 01 10  cmp         dword ptr ds:[1001224Ch],0
            00
  1000381C: 74 05              je          10003823
  1000381E: E8 24 2E 00 00     call        10006647
  10003823: B0 01              mov         al,1
  10003825: 5D                 pop         ebp
  10003826: C3                 ret
  10003827: 68 78 BD 00 10     push        1000BD78h
  1000382C: 68 F8 BC 00 10     push        1000BCF8h
  10003831: E8 5F 27 00 00     call        10005F95
  10003836: 59                 pop         ecx
  10003837: 59                 pop         ecx
  10003838: 5D                 pop         ebp
  10003839: C3                 ret
  1000383A: 8B FF              mov         edi,edi
  1000383C: 55                 push        ebp
  1000383D: 8B EC              mov         ebp,esp
  1000383F: FF 75 08           push        dword ptr [ebp+8]
  10003842: E8 08 08 00 00     call        1000404F
  10003847: 59                 pop         ecx
  10003848: B0 01              mov         al,1
  1000384A: 5D                 pop         ebp
  1000384B: C3                 ret
  1000384C: 6A 08              push        8
  1000384E: 68 00 01 01 10     push        10010100h
  10003853: E8 58 E0 FF FF     call        100018B0
  10003858: E8 BA 05 00 00     call        10003E17
  1000385D: 8B 70 0C           mov         esi,dword ptr [eax+0Ch]
  10003860: 85 F6              test        esi,esi
  10003862: 74 1E              je          10003882
  10003864: 83 65 FC 00        and         dword ptr [ebp-4],0
  10003868: 8B CE              mov         ecx,esi
  1000386A: FF 15 04 B1 00 10  call        dword ptr ds:[1000B104h]
  10003870: FF D6              call        esi
  10003872: EB 07              jmp         1000387B
  10003874: 33 C0              xor         eax,eax
  10003876: 40                 inc         eax
  10003877: C3                 ret
  10003878: 8B 65 E8           mov         esp,dword ptr [ebp-18h]
  1000387B: C7 45 FC FE FF FF  mov         dword ptr [ebp-4],0FFFFFFFEh
            FF
  10003882: E8 76 00 00 00     call        100038FD
  10003887: CC                 int         3
  10003888: 8B FF              mov         edi,edi
  1000388A: 55                 push        ebp
  1000388B: 8B EC              mov         ebp,esp
  1000388D: 51                 push        ecx
  1000388E: FF 75 08           push        dword ptr [ebp+8]
  10003891: C7 45 FC 00 00 00  mov         dword ptr [ebp-4],0
            00
  10003898: 8B 45 FC           mov         eax,dword ptr [ebp-4]
  1000389B: E8 73 0B 00 00     call        10004413
  100038A0: 59                 pop         ecx
  100038A1: C9                 leave
  100038A2: C3                 ret
  100038A3: 8B FF              mov         edi,edi
  100038A5: 55                 push        ebp
  100038A6: 8B EC              mov         ebp,esp
  100038A8: 8B 55 08           mov         edx,dword ptr [ebp+8]
  100038AB: 56                 push        esi
  100038AC: 85 D2              test        edx,edx
  100038AE: 74 11              je          100038C1
  100038B0: 8B 4D 0C           mov         ecx,dword ptr [ebp+0Ch]
  100038B3: 85 C9              test        ecx,ecx
  100038B5: 74 0A              je          100038C1
  100038B7: 8B 75 10           mov         esi,dword ptr [ebp+10h]
  100038BA: 85 F6              test        esi,esi
  100038BC: 75 17              jne         100038D5
  100038BE: C6 02 00           mov         byte ptr [edx],0
  100038C1: E8 DD 0A 00 00     call        100043A3
  100038C6: 6A 16              push        16h
  100038C8: 5E                 pop         esi
  100038C9: 89 30              mov         dword ptr [eax],esi
  100038CB: E8 16 0A 00 00     call        100042E6
  100038D0: 8B C6              mov         eax,esi
  100038D2: 5E                 pop         esi
  100038D3: 5D                 pop         ebp
  100038D4: C3                 ret
  100038D5: 57                 push        edi
  100038D6: 8B FA              mov         edi,edx
  100038D8: 2B F2              sub         esi,edx
  100038DA: 8A 04 3E           mov         al,byte ptr [esi+edi]
  100038DD: 88 07              mov         byte ptr [edi],al
  100038DF: 47                 inc         edi
  100038E0: 84 C0              test        al,al
  100038E2: 74 05              je          100038E9
  100038E4: 83 E9 01           sub         ecx,1
  100038E7: 75 F1              jne         100038DA
  100038E9: 5F                 pop         edi
  100038EA: 85 C9              test        ecx,ecx
  100038EC: 75 0B              jne         100038F9
  100038EE: 88 0A              mov         byte ptr [edx],cl
  100038F0: E8 AE 0A 00 00     call        100043A3
  100038F5: 6A 22              push        22h
  100038F7: EB CF              jmp         100038C8
  100038F9: 33 F6              xor         esi,esi
  100038FB: EB D3              jmp         100038D0
  100038FD: E8 2A 28 00 00     call        1000612C
  10003902: 85 C0              test        eax,eax
  10003904: 74 08              je          1000390E
  10003906: 6A 16              push        16h
  10003908: E8 64 28 00 00     call        10006171
  1000390D: 59                 pop         ecx
  1000390E: F6 05 40 10 01 10  test        byte ptr ds:[10011040h],2
            02
  10003915: 74 22              je          10003939
  10003917: 6A 17              push        17h
  10003919: FF 15 24 B0 00 10  call        dword ptr ds:[1000B024h]
  1000391F: 85 C0              test        eax,eax
  10003921: 74 05              je          10003928
  10003923: 6A 07              push        7
  10003925: 59                 pop         ecx
  10003926: CD 29              int         29h
  10003928: 6A 01              push        1
  1000392A: 68 15 00 00 40     push        40000015h
  1000392F: 6A 03              push        3
  10003931: E8 04 08 00 00     call        1000413A
  10003936: 83 C4 0C           add         esp,0Ch
  10003939: 6A 03              push        3
  1000393B: E8 EF F6 FF FF     call        1000302F
  10003940: CC                 int         3
  10003941: 8B FF              mov         edi,edi
  10003943: 55                 push        ebp
  10003944: 8B EC              mov         ebp,esp
  10003946: 53                 push        ebx
  10003947: 57                 push        edi
  10003948: 8B F9              mov         edi,ecx
  1000394A: 8B 4D 08           mov         ecx,dword ptr [ebp+8]
  1000394D: C6 47 0C 00        mov         byte ptr [edi+0Ch],0
  10003951: 8D 5F 04           lea         ebx,[edi+4]
  10003954: 85 C9              test        ecx,ecx
  10003956: 74 09              je          10003961
  10003958: 8B 01              mov         eax,dword ptr [ecx]
  1000395A: 89 03              mov         dword ptr [ebx],eax
  1000395C: 8B 41 04           mov         eax,dword ptr [ecx+4]
  1000395F: EB 15              jmp         10003976
  10003961: 83 3D 60 22 01 10  cmp         dword ptr ds:[10012260h],0
            00
  10003968: 75 11              jne         1000397B
  1000396A: A1 38 16 01 10     mov         eax,dword ptr ds:[10011638h]
  1000396F: 89 03              mov         dword ptr [ebx],eax
  10003971: A1 3C 16 01 10     mov         eax,dword ptr ds:[1001163Ch]
  10003976: 89 43 04           mov         dword ptr [ebx+4],eax
  10003979: EB 41              jmp         100039BC
  1000397B: 56                 push        esi
  1000397C: E8 96 04 00 00     call        10003E17
  10003981: 89 07              mov         dword ptr [edi],eax
  10003983: 8D 77 08           lea         esi,[edi+8]
  10003986: 53                 push        ebx
  10003987: 50                 push        eax
  10003988: 8B 48 4C           mov         ecx,dword ptr [eax+4Ch]
  1000398B: 89 0B              mov         dword ptr [ebx],ecx
  1000398D: 8B 48 48           mov         ecx,dword ptr [eax+48h]
  10003990: 89 0E              mov         dword ptr [esi],ecx
  10003992: E8 9F 2F 00 00     call        10006936
  10003997: 56                 push        esi
  10003998: FF 37              push        dword ptr [edi]
  1000399A: E8 C4 2F 00 00     call        10006963
  1000399F: 8B 0F              mov         ecx,dword ptr [edi]
  100039A1: 83 C4 10           add         esp,10h
  100039A4: 8B 81 50 03 00 00  mov         eax,dword ptr [ecx+00000350h]
  100039AA: 5E                 pop         esi
  100039AB: A8 02              test        al,2
  100039AD: 75 0D              jne         100039BC
  100039AF: 83 C8 02           or          eax,2
  100039B2: 89 81 50 03 00 00  mov         dword ptr [ecx+00000350h],eax
  100039B8: C6 47 0C 01        mov         byte ptr [edi+0Ch],1
  100039BC: 8B C7              mov         eax,edi
  100039BE: 5F                 pop         edi
  100039BF: 5B                 pop         ebx
  100039C0: 5D                 pop         ebp
  100039C1: C2 04 00           ret         4
  100039C4: 8B FF              mov         edi,edi
  100039C6: 55                 push        ebp
  100039C7: 8B EC              mov         ebp,esp
  100039C9: 8B 4D 0C           mov         ecx,dword ptr [ebp+0Ch]
  100039CC: 8D 41 01           lea         eax,[ecx+1]
  100039CF: 3D 00 01 00 00     cmp         eax,100h
  100039D4: 77 0C              ja          100039E2
  100039D6: 8B 45 08           mov         eax,dword ptr [ebp+8]
  100039D9: 0F B7 04 48        movzx       eax,word ptr [eax+ecx*2]
  100039DD: 23 45 10           and         eax,dword ptr [ebp+10h]
  100039E0: 5D                 pop         ebp
  100039E1: C3                 ret
  100039E2: 33 C0              xor         eax,eax
  100039E4: 5D                 pop         ebp
  100039E5: C3                 ret
  100039E6: CC                 int         3
  100039E7: CC                 int         3
  100039E8: CC                 int         3
  100039E9: CC                 int         3
  100039EA: CC                 int         3
  100039EB: CC                 int         3
  100039EC: CC                 int         3
  100039ED: CC                 int         3
  100039EE: CC                 int         3
  100039EF: CC                 int         3
  100039F0: 53                 push        ebx
  100039F1: 56                 push        esi
  100039F2: 8B 4C 24 0C        mov         ecx,dword ptr [esp+0Ch]
  100039F6: 8B 54 24 10        mov         edx,dword ptr [esp+10h]
  100039FA: 8B 5C 24 14        mov         ebx,dword ptr [esp+14h]
  100039FE: F7 C3 FF FF FF FF  test        ebx,0FFFFFFFFh
  10003A04: 74 50              je          10003A56
  10003A06: 2B CA              sub         ecx,edx
  10003A08: F7 C2 03 00 00 00  test        edx,3
  10003A0E: 74 17              je          10003A27
  10003A10: 0F B6 04 11        movzx       eax,byte ptr [ecx+edx]
  10003A14: 3A 02              cmp         al,byte ptr [edx]
  10003A16: 75 48              jne         10003A60
  10003A18: 85 C0              test        eax,eax
  10003A1A: 74 3A              je          10003A56
  10003A1C: 42                 inc         edx
  10003A1D: 83 EB 01           sub         ebx,1
  10003A20: 76 34              jbe         10003A56
  10003A22: F6 C2 03           test        dl,3
  10003A25: 75 E9              jne         10003A10
  10003A27: 8D 04 11           lea         eax,[ecx+edx]
  10003A2A: 25 FF 0F 00 00     and         eax,0FFFh
  10003A2F: 3D FC 0F 00 00     cmp         eax,0FFCh
  10003A34: 77 DA              ja          10003A10
  10003A36: 8B 04 11           mov         eax,dword ptr [ecx+edx]
  10003A39: 3B 02              cmp         eax,dword ptr [edx]
  10003A3B: 75 D3              jne         10003A10
  10003A3D: 83 EB 04           sub         ebx,4
  10003A40: 76 14              jbe         10003A56
  10003A42: 8D B0 FF FE FE FE  lea         esi,[eax+FEFEFEFFh]
  10003A48: 83 C2 04           add         edx,4
  10003A4B: F7 D0              not         eax
  10003A4D: 23 C6              and         eax,esi
  10003A4F: A9 80 80 80 80     test        eax,80808080h
  10003A54: 74 D1              je          10003A27
  10003A56: 33 C0              xor         eax,eax
  10003A58: 5E                 pop         esi
  10003A59: 5B                 pop         ebx
  10003A5A: C3                 ret
  10003A5B: EB 03              jmp         10003A60
  10003A5D: CC                 int         3
  10003A5E: CC                 int         3
  10003A5F: CC                 int         3
  10003A60: 1B C0              sbb         eax,eax
  10003A62: 83 C8 01           or          eax,1
  10003A65: 5E                 pop         esi
  10003A66: 5B                 pop         ebx
  10003A67: C3                 ret
  10003A68: 8B FF              mov         edi,edi
  10003A6A: 55                 push        ebp
  10003A6B: 8B EC              mov         ebp,esp
  10003A6D: 5D                 pop         ebp
  10003A6E: E9 43 09 00 00     jmp         100043B6
  10003A73: 8B FF              mov         edi,edi
  10003A75: 55                 push        ebp
  10003A76: 8B EC              mov         ebp,esp
  10003A78: 8B 45 10           mov         eax,dword ptr [ebp+10h]
  10003A7B: 85 C0              test        eax,eax
  10003A7D: 75 02              jne         10003A81
  10003A7F: 5D                 pop         ebp
  10003A80: C3                 ret
  10003A81: 8B 4D 0C           mov         ecx,dword ptr [ebp+0Ch]
  10003A84: 8B 55 08           mov         edx,dword ptr [ebp+8]
  10003A87: 56                 push        esi
  10003A88: 83 E8 01           sub         eax,1
  10003A8B: 74 15              je          10003AA2
  10003A8D: 0F B7 32           movzx       esi,word ptr [edx]
  10003A90: 66 85 F6           test        si,si
  10003A93: 74 0D              je          10003AA2
  10003A95: 66 3B 31           cmp         si,word ptr [ecx]
  10003A98: 75 08              jne         10003AA2
  10003A9A: 83 C2 02           add         edx,2
  10003A9D: 83 C1 02           add         ecx,2
  10003AA0: EB E6              jmp         10003A88
  10003AA2: 0F B7 02           movzx       eax,word ptr [edx]
  10003AA5: 0F B7 09           movzx       ecx,word ptr [ecx]
  10003AA8: 2B C1              sub         eax,ecx
  10003AAA: 5E                 pop         esi
  10003AAB: 5D                 pop         ebp
  10003AAC: C3                 ret
  10003AAD: 6A 08              push        8
  10003AAF: 68 20 01 01 10     push        10010120h
  10003AB4: E8 F7 DD FF FF     call        100018B0
  10003AB9: 8B 45 08           mov         eax,dword ptr [ebp+8]
  10003ABC: FF 30              push        dword ptr [eax]
  10003ABE: E8 E7 05 00 00     call        100040AA
  10003AC3: 59                 pop         ecx
  10003AC4: 83 65 FC 00        and         dword ptr [ebp-4],0
  10003AC8: 8B 45 0C           mov         eax,dword ptr [ebp+0Ch]
  10003ACB: 8B 00              mov         eax,dword ptr [eax]
  10003ACD: 8B 00              mov         eax,dword ptr [eax]
  10003ACF: 8B 40 48           mov         eax,dword ptr [eax+48h]
  10003AD2: F0 FF 00           lock inc    dword ptr [eax]
  10003AD5: C7 45 FC FE FF FF  mov         dword ptr [ebp-4],0FFFFFFFEh
            FF
  10003ADC: E8 12 00 00 00     call        10003AF3
  10003AE1: 8B 4D F0           mov         ecx,dword ptr [ebp-10h]
  10003AE4: 64 89 0D 00 00 00  mov         dword ptr fs:[00000000h],ecx
            00
  10003AEB: 59                 pop         ecx
  10003AEC: 5F                 pop         edi
  10003AED: 5E                 pop         esi
  10003AEE: 5B                 pop         ebx
  10003AEF: C9                 leave
  10003AF0: C2 0C 00           ret         0Ch
  10003AF3: 8B 45 10           mov         eax,dword ptr [ebp+10h]
  10003AF6: FF 30              push        dword ptr [eax]
  10003AF8: E8 F5 05 00 00     call        100040F2
  10003AFD: 59                 pop         ecx
  10003AFE: C3                 ret
  10003AFF: 6A 08              push        8
  10003B01: 68 60 01 01 10     push        10010160h
  10003B06: E8 A5 DD FF FF     call        100018B0
  10003B0B: 8B 45 08           mov         eax,dword ptr [ebp+8]
  10003B0E: FF 30              push        dword ptr [eax]
  10003B10: E8 95 05 00 00     call        100040AA
  10003B15: 59                 pop         ecx
  10003B16: 83 65 FC 00        and         dword ptr [ebp-4],0
  10003B1A: 8B 45 0C           mov         eax,dword ptr [ebp+0Ch]
  10003B1D: 8B 00              mov         eax,dword ptr [eax]
  10003B1F: 8B 00              mov         eax,dword ptr [eax]
  10003B21: 8B 48 48           mov         ecx,dword ptr [eax+48h]
  10003B24: 85 C9              test        ecx,ecx
  10003B26: 74 18              je          10003B40
  10003B28: 83 C8 FF           or          eax,0FFFFFFFFh
  10003B2B: F0 0F C1 01        lock xadd   dword ptr [ecx],eax
  10003B2F: 75 0F              jne         10003B40
  10003B31: 81 F9 60 10 01 10  cmp         ecx,10011060h
  10003B37: 74 07              je          10003B40
  10003B39: 51                 push        ecx
  10003B3A: E8 D4 08 00 00     call        10004413
  10003B3F: 59                 pop         ecx
  10003B40: C7 45 FC FE FF FF  mov         dword ptr [ebp-4],0FFFFFFFEh
            FF
  10003B47: E8 12 00 00 00     call        10003B5E
  10003B4C: 8B 4D F0           mov         ecx,dword ptr [ebp-10h]
  10003B4F: 64 89 0D 00 00 00  mov         dword ptr fs:[00000000h],ecx
            00
  10003B56: 59                 pop         ecx
  10003B57: 5F                 pop         edi
  10003B58: 5E                 pop         esi
  10003B59: 5B                 pop         ebx
  10003B5A: C9                 leave
  10003B5B: C2 0C 00           ret         0Ch
  10003B5E: 8B 45 10           mov         eax,dword ptr [ebp+10h]
  10003B61: FF 30              push        dword ptr [eax]
  10003B63: E8 8A 05 00 00     call        100040F2
  10003B68: 59                 pop         ecx
  10003B69: C3                 ret
  10003B6A: 6A 08              push        8
  10003B6C: 68 80 01 01 10     push        10010180h
  10003B71: E8 3A DD FF FF     call        100018B0
  10003B76: 8B 45 08           mov         eax,dword ptr [ebp+8]
  10003B79: FF 30              push        dword ptr [eax]
  10003B7B: E8 2A 05 00 00     call        100040AA
  10003B80: 59                 pop         ecx
  10003B81: 83 65 FC 00        and         dword ptr [ebp-4],0
  10003B85: 6A 00              push        0
  10003B87: 8B 45 0C           mov         eax,dword ptr [ebp+0Ch]
  10003B8A: 8B 00              mov         eax,dword ptr [eax]
  10003B8C: FF 30              push        dword ptr [eax]
  10003B8E: E8 0D 02 00 00     call        10003DA0
  10003B93: 59                 pop         ecx
  10003B94: 59                 pop         ecx
  10003B95: C7 45 FC FE FF FF  mov         dword ptr [ebp-4],0FFFFFFFEh
            FF
  10003B9C: E8 12 00 00 00     call        10003BB3
  10003BA1: 8B 4D F0           mov         ecx,dword ptr [ebp-10h]
  10003BA4: 64 89 0D 00 00 00  mov         dword ptr fs:[00000000h],ecx
            00
  10003BAB: 59                 pop         ecx
  10003BAC: 5F                 pop         edi
  10003BAD: 5E                 pop         esi
  10003BAE: 5B                 pop         ebx
  10003BAF: C9                 leave
  10003BB0: C2 0C 00           ret         0Ch
  10003BB3: 8B 45 10           mov         eax,dword ptr [ebp+10h]
  10003BB6: FF 30              push        dword ptr [eax]
  10003BB8: E8 35 05 00 00     call        100040F2
  10003BBD: 59                 pop         ecx
  10003BBE: C3                 ret
  10003BBF: 6A 08              push        8
  10003BC1: 68 40 01 01 10     push        10010140h
  10003BC6: E8 E5 DC FF FF     call        100018B0
  10003BCB: 8B 45 08           mov         eax,dword ptr [ebp+8]
  10003BCE: FF 30              push        dword ptr [eax]
  10003BD0: E8 D5 04 00 00     call        100040AA
  10003BD5: 59                 pop         ecx
  10003BD6: 83 65 FC 00        and         dword ptr [ebp-4],0
  10003BDA: 8B 4D 0C           mov         ecx,dword ptr [ebp+0Ch]
  10003BDD: 8B 41 04           mov         eax,dword ptr [ecx+4]
  10003BE0: 8B 00              mov         eax,dword ptr [eax]
  10003BE2: FF 30              push        dword ptr [eax]
  10003BE4: 8B 01              mov         eax,dword ptr [ecx]
  10003BE6: FF 30              push        dword ptr [eax]
  10003BE8: E8 B3 01 00 00     call        10003DA0
  10003BED: 59                 pop         ecx
  10003BEE: 59                 pop         ecx
  10003BEF: C7 45 FC FE FF FF  mov         dword ptr [ebp-4],0FFFFFFFEh
            FF
  10003BF6: E8 12 00 00 00     call        10003C0D
  10003BFB: 8B 4D F0           mov         ecx,dword ptr [ebp-10h]
  10003BFE: 64 89 0D 00 00 00  mov         dword ptr fs:[00000000h],ecx
            00
  10003C05: 59                 pop         ecx
  10003C06: 5F                 pop         edi
  10003C07: 5E                 pop         esi
  10003C08: 5B                 pop         ebx
  10003C09: C9                 leave
  10003C0A: C2 0C 00           ret         0Ch
  10003C0D: 8B 45 10           mov         eax,dword ptr [ebp+10h]
  10003C10: FF 30              push        dword ptr [eax]
  10003C12: E8 DB 04 00 00     call        100040F2
  10003C17: 59                 pop         ecx
  10003C18: C3                 ret
  10003C19: 8B FF              mov         edi,edi
  10003C1B: 55                 push        ebp
  10003C1C: 8B EC              mov         ebp,esp
  10003C1E: 83 EC 14           sub         esp,14h
  10003C21: 8B 45 08           mov         eax,dword ptr [ebp+8]
  10003C24: 33 C9              xor         ecx,ecx
  10003C26: 41                 inc         ecx
  10003C27: 6A 43              push        43h
  10003C29: 89 48 18           mov         dword ptr [eax+18h],ecx
  10003C2C: 8B 45 08           mov         eax,dword ptr [ebp+8]
  10003C2F: C7 00 30 BC 00 10  mov         dword ptr [eax],1000BC30h
  10003C35: 8B 45 08           mov         eax,dword ptr [ebp+8]
  10003C38: 89 88 50 03 00 00  mov         dword ptr [eax+00000350h],ecx
  10003C3E: 8B 45 08           mov         eax,dword ptr [ebp+8]
  10003C41: 59                 pop         ecx
  10003C42: 6A 05              push        5
  10003C44: C7 40 48 60 10 01  mov         dword ptr [eax+48h],10011060h
            10
  10003C4B: 8B 45 08           mov         eax,dword ptr [ebp+8]
  10003C4E: 66 89 48 6C        mov         word ptr [eax+6Ch],cx
  10003C52: 8B 45 08           mov         eax,dword ptr [ebp+8]
  10003C55: 66 89 88 72 01 00  mov         word ptr [eax+00000172h],cx
            00
  10003C5C: 8D 4D FF           lea         ecx,[ebp-1]
  10003C5F: 8B 45 08           mov         eax,dword ptr [ebp+8]
  10003C62: 83 A0 4C 03 00 00  and         dword ptr [eax+0000034Ch],0
            00
  10003C69: 8D 45 08           lea         eax,[ebp+8]
  10003C6C: 89 45 F0           mov         dword ptr [ebp-10h],eax
  10003C6F: 58                 pop         eax
  10003C70: 89 45 F8           mov         dword ptr [ebp-8],eax
  10003C73: 89 45 EC           mov         dword ptr [ebp-14h],eax
  10003C76: 8D 45 F8           lea         eax,[ebp-8]
  10003C79: 50                 push        eax
  10003C7A: 8D 45 F0           lea         eax,[ebp-10h]
  10003C7D: 50                 push        eax
  10003C7E: 8D 45 EC           lea         eax,[ebp-14h]
  10003C81: 50                 push        eax
  10003C82: E8 26 FE FF FF     call        10003AAD
  10003C87: 8D 45 08           lea         eax,[ebp+8]
  10003C8A: 89 45 F4           mov         dword ptr [ebp-0Ch],eax
  10003C8D: 8D 4D FF           lea         ecx,[ebp-1]
  10003C90: 6A 04              push        4
  10003C92: 8D 45 0C           lea         eax,[ebp+0Ch]
  10003C95: 89 45 F8           mov         dword ptr [ebp-8],eax
  10003C98: 58                 pop         eax
  10003C99: 89 45 EC           mov         dword ptr [ebp-14h],eax
  10003C9C: 89 45 F0           mov         dword ptr [ebp-10h],eax
  10003C9F: 8D 45 EC           lea         eax,[ebp-14h]
  10003CA2: 50                 push        eax
  10003CA3: 8D 45 F4           lea         eax,[ebp-0Ch]
  10003CA6: 50                 push        eax
  10003CA7: 8D 45 F0           lea         eax,[ebp-10h]
  10003CAA: 50                 push        eax
  10003CAB: E8 0F FF FF FF     call        10003BBF
  10003CB0: C9                 leave
  10003CB1: C3                 ret
  10003CB2: 8B FF              mov         edi,edi
  10003CB4: 55                 push        ebp
  10003CB5: 8B EC              mov         ebp,esp
  10003CB7: 83 7D 08 00        cmp         dword ptr [ebp+8],0
  10003CBB: 74 12              je          10003CCF
  10003CBD: FF 75 08           push        dword ptr [ebp+8]
  10003CC0: E8 0E 00 00 00     call        10003CD3
  10003CC5: FF 75 08           push        dword ptr [ebp+8]
  10003CC8: E8 46 07 00 00     call        10004413
  10003CCD: 59                 pop         ecx
  10003CCE: 59                 pop         ecx
  10003CCF: 5D                 pop         ebp
  10003CD0: C2 04 00           ret         4
  10003CD3: 8B FF              mov         edi,edi
  10003CD5: 55                 push        ebp
  10003CD6: 8B EC              mov         ebp,esp
  10003CD8: 8B 45 08           mov         eax,dword ptr [ebp+8]
  10003CDB: 83 EC 10           sub         esp,10h
  10003CDE: 8B 08              mov         ecx,dword ptr [eax]
  10003CE0: 81 F9 30 BC 00 10  cmp         ecx,1000BC30h
  10003CE6: 74 0A              je          10003CF2
  10003CE8: 51                 push        ecx
  10003CE9: E8 25 07 00 00     call        10004413
  10003CEE: 8B 45 08           mov         eax,dword ptr [ebp+8]
  10003CF1: 59                 pop         ecx
  10003CF2: FF 70 3C           push        dword ptr [eax+3Ch]
  10003CF5: E8 19 07 00 00     call        10004413
  10003CFA: 8B 45 08           mov         eax,dword ptr [ebp+8]
  10003CFD: FF 70 30           push        dword ptr [eax+30h]
  10003D00: E8 0E 07 00 00     call        10004413
  10003D05: 8B 45 08           mov         eax,dword ptr [ebp+8]
  10003D08: FF 70 34           push        dword ptr [eax+34h]
  10003D0B: E8 03 07 00 00     call        10004413
  10003D10: 8B 45 08           mov         eax,dword ptr [ebp+8]
  10003D13: FF 70 38           push        dword ptr [eax+38h]
  10003D16: E8 F8 06 00 00     call        10004413
  10003D1B: 8B 45 08           mov         eax,dword ptr [ebp+8]
  10003D1E: FF 70 28           push        dword ptr [eax+28h]
  10003D21: E8 ED 06 00 00     call        10004413
  10003D26: 8B 45 08           mov         eax,dword ptr [ebp+8]
  10003D29: FF 70 2C           push        dword ptr [eax+2Ch]
  10003D2C: E8 E2 06 00 00     call        10004413
  10003D31: 8B 45 08           mov         eax,dword ptr [ebp+8]
  10003D34: FF 70 40           push        dword ptr [eax+40h]
  10003D37: E8 D7 06 00 00     call        10004413
  10003D3C: 8B 45 08           mov         eax,dword ptr [ebp+8]
  10003D3F: FF 70 44           push        dword ptr [eax+44h]
  10003D42: E8 CC 06 00 00     call        10004413
  10003D47: 8B 45 08           mov         eax,dword ptr [ebp+8]
  10003D4A: FF B0 60 03 00 00  push        dword ptr [eax+00000360h]
  10003D50: E8 BE 06 00 00     call        10004413
  10003D55: 83 C4 24           add         esp,24h
  10003D58: 8D 45 08           lea         eax,[ebp+8]
  10003D5B: 89 45 F4           mov         dword ptr [ebp-0Ch],eax
  10003D5E: 8D 4D FF           lea         ecx,[ebp-1]
  10003D61: 6A 05              push        5
  10003D63: 58                 pop         eax
  10003D64: 89 45 F8           mov         dword ptr [ebp-8],eax
  10003D67: 89 45 F0           mov         dword ptr [ebp-10h],eax
  10003D6A: 8D 45 F8           lea         eax,[ebp-8]
  10003D6D: 50                 push        eax
  10003D6E: 8D 45 F4           lea         eax,[ebp-0Ch]
  10003D71: 50                 push        eax
  10003D72: 8D 45 F0           lea         eax,[ebp-10h]
  10003D75: 50                 push        eax
  10003D76: E8 84 FD FF FF     call        10003AFF
  10003D7B: 6A 04              push        4
  10003D7D: 8D 45 08           lea         eax,[ebp+8]
  10003D80: 89 45 F4           mov         dword ptr [ebp-0Ch],eax
  10003D83: 8D 4D FF           lea         ecx,[ebp-1]
  10003D86: 58                 pop         eax
  10003D87: 89 45 F0           mov         dword ptr [ebp-10h],eax
  10003D8A: 89 45 F8           mov         dword ptr [ebp-8],eax
  10003D8D: 8D 45 F0           lea         eax,[ebp-10h]
  10003D90: 50                 push        eax
  10003D91: 8D 45 F4           lea         eax,[ebp-0Ch]
  10003D94: 50                 push        eax
  10003D95: 8D 45 F8           lea         eax,[ebp-8]
  10003D98: 50                 push        eax
  10003D99: E8 CC FD FF FF     call        10003B6A
  10003D9E: C9                 leave
  10003D9F: C3                 ret
  10003DA0: 8B FF              mov         edi,edi
  10003DA2: 55                 push        ebp
  10003DA3: 8B EC              mov         ebp,esp
  10003DA5: 56                 push        esi
  10003DA6: 8B 75 08           mov         esi,dword ptr [ebp+8]
  10003DA9: 83 7E 4C 00        cmp         dword ptr [esi+4Ch],0
  10003DAD: 74 28              je          10003DD7
  10003DAF: FF 76 4C           push        dword ptr [esi+4Ch]
  10003DB2: E8 0C 2F 00 00     call        10006CC3
  10003DB7: 8B 46 4C           mov         eax,dword ptr [esi+4Ch]
  10003DBA: 59                 pop         ecx
  10003DBB: 3B 05 44 22 01 10  cmp         eax,dword ptr ds:[10012244h]
  10003DC1: 74 14              je          10003DD7
  10003DC3: 3D 80 15 01 10     cmp         eax,10011580h
  10003DC8: 74 0D              je          10003DD7
  10003DCA: 83 78 0C 00        cmp         dword ptr [eax+0Ch],0
  10003DCE: 75 07              jne         10003DD7
  10003DD0: 50                 push        eax
  10003DD1: E8 22 2D 00 00     call        10006AF8
  10003DD6: 59                 pop         ecx
  10003DD7: 8B 45 0C           mov         eax,dword ptr [ebp+0Ch]
  10003DDA: 89 46 4C           mov         dword ptr [esi+4Ch],eax
  10003DDD: 5E                 pop         esi
  10003DDE: 85 C0              test        eax,eax
  10003DE0: 74 07              je          10003DE9
  10003DE2: 50                 push        eax
  10003DE3: E8 93 2C 00 00     call        10006A7B
  10003DE8: 59                 pop         ecx
  10003DE9: 5D                 pop         ebp
  10003DEA: C3                 ret
  10003DEB: A1 50 10 01 10     mov         eax,dword ptr ds:[10011050h]
  10003DF0: 83 F8 FF           cmp         eax,0FFFFFFFFh
  10003DF3: 74 21              je          10003E16
  10003DF5: 56                 push        esi
  10003DF6: 50                 push        eax
  10003DF7: E8 65 1D 00 00     call        10005B61
  10003DFC: 8B F0              mov         esi,eax
  10003DFE: 85 F6              test        esi,esi
  10003E00: 74 13              je          10003E15
  10003E02: 6A 00              push        0
  10003E04: FF 35 50 10 01 10  push        dword ptr ds:[10011050h]
  10003E0A: E8 91 1D 00 00     call        10005BA0
  10003E0F: 56                 push        esi
  10003E10: E8 9D FE FF FF     call        10003CB2
  10003E15: 5E                 pop         esi
  10003E16: C3                 ret
  10003E17: 8B FF              mov         edi,edi
  10003E19: 53                 push        ebx
  10003E1A: 56                 push        esi
  10003E1B: 57                 push        edi
  10003E1C: FF 15 40 B0 00 10  call        dword ptr ds:[1000B040h]
  10003E22: 8B F0              mov         esi,eax
  10003E24: A1 50 10 01 10     mov         eax,dword ptr ds:[10011050h]
  10003E29: 83 F8 FF           cmp         eax,0FFFFFFFFh
  10003E2C: 74 1C              je          10003E4A
  10003E2E: 50                 push        eax
  10003E2F: E8 2D 1D 00 00     call        10005B61
  10003E34: 8B F8              mov         edi,eax
  10003E36: 85 FF              test        edi,edi
  10003E38: 74 0B              je          10003E45
  10003E3A: 83 FF FF           cmp         edi,0FFFFFFFFh
  10003E3D: 75 78              jne         10003EB7
  10003E3F: 33 DB              xor         ebx,ebx
  10003E41: 8B FB              mov         edi,ebx
  10003E43: EB 74              jmp         10003EB9
  10003E45: A1 50 10 01 10     mov         eax,dword ptr ds:[10011050h]
  10003E4A: 6A FF              push        0FFFFFFFFh
  10003E4C: 50                 push        eax
  10003E4D: E8 4E 1D 00 00     call        10005BA0
  10003E52: 85 C0              test        eax,eax
  10003E54: 74 E9              je          10003E3F
  10003E56: 68 64 03 00 00     push        364h
  10003E5B: 6A 01              push        1
  10003E5D: E8 54 05 00 00     call        100043B6
  10003E62: 8B F8              mov         edi,eax
  10003E64: 59                 pop         ecx
  10003E65: 59                 pop         ecx
  10003E66: 85 FF              test        edi,edi
  10003E68: 75 17              jne         10003E81
  10003E6A: 33 DB              xor         ebx,ebx
  10003E6C: 53                 push        ebx
  10003E6D: FF 35 50 10 01 10  push        dword ptr ds:[10011050h]
  10003E73: E8 28 1D 00 00     call        10005BA0
  10003E78: 53                 push        ebx
  10003E79: E8 95 05 00 00     call        10004413
  10003E7E: 59                 pop         ecx
  10003E7F: EB C0              jmp         10003E41
  10003E81: 57                 push        edi
  10003E82: FF 35 50 10 01 10  push        dword ptr ds:[10011050h]
  10003E88: E8 13 1D 00 00     call        10005BA0
  10003E8D: 85 C0              test        eax,eax
  10003E8F: 75 11              jne         10003EA2
  10003E91: 33 DB              xor         ebx,ebx
  10003E93: 53                 push        ebx
  10003E94: FF 35 50 10 01 10  push        dword ptr ds:[10011050h]
  10003E9A: E8 01 1D 00 00     call        10005BA0
  10003E9F: 57                 push        edi
  10003EA0: EB D7              jmp         10003E79
  10003EA2: 68 44 22 01 10     push        10012244h
  10003EA7: 57                 push        edi
  10003EA8: E8 6C FD FF FF     call        10003C19
  10003EAD: 6A 00              push        0
  10003EAF: E8 5F 05 00 00     call        10004413
  10003EB4: 83 C4 0C           add         esp,0Ch
  10003EB7: 8B DF              mov         ebx,edi
  10003EB9: 56                 push        esi
  10003EBA: FF 15 44 B0 00 10  call        dword ptr ds:[1000B044h]
  10003EC0: F7 DF              neg         edi
  10003EC2: 1B FF              sbb         edi,edi
  10003EC4: 23 FB              and         edi,ebx
  10003EC6: 74 06              je          10003ECE
  10003EC8: 8B C7              mov         eax,edi
  10003ECA: 5F                 pop         edi
  10003ECB: 5E                 pop         esi
  10003ECC: 5B                 pop         ebx
  10003ECD: C3                 ret
  10003ECE: E8 2A FA FF FF     call        100038FD
  10003ED3: CC                 int         3
  10003ED4: A1 50 10 01 10     mov         eax,dword ptr ds:[10011050h]
  10003ED9: 56                 push        esi
  10003EDA: 83 F8 FF           cmp         eax,0FFFFFFFFh
  10003EDD: 74 18              je          10003EF7
  10003EDF: 50                 push        eax
  10003EE0: E8 7C 1C 00 00     call        10005B61
  10003EE5: 8B F0              mov         esi,eax
  10003EE7: 85 F6              test        esi,esi
  10003EE9: 74 07              je          10003EF2
  10003EEB: 83 FE FF           cmp         esi,0FFFFFFFFh
  10003EEE: 74 78              je          10003F68
  10003EF0: EB 6E              jmp         10003F60
  10003EF2: A1 50 10 01 10     mov         eax,dword ptr ds:[10011050h]
  10003EF7: 6A FF              push        0FFFFFFFFh
  10003EF9: 50                 push        eax
  10003EFA: E8 A1 1C 00 00     call        10005BA0
  10003EFF: 85 C0              test        eax,eax
  10003F01: 74 65              je          10003F68
  10003F03: 68 64 03 00 00     push        364h
  10003F08: 6A 01              push        1
  10003F0A: E8 A7 04 00 00     call        100043B6
  10003F0F: 8B F0              mov         esi,eax
  10003F11: 59                 pop         ecx
  10003F12: 59                 pop         ecx
  10003F13: 85 F6              test        esi,esi
  10003F15: 75 15              jne         10003F2C
  10003F17: 50                 push        eax
  10003F18: FF 35 50 10 01 10  push        dword ptr ds:[10011050h]
  10003F1E: E8 7D 1C 00 00     call        10005BA0
  10003F23: 56                 push        esi
  10003F24: E8 EA 04 00 00     call        10004413
  10003F29: 59                 pop         ecx
  10003F2A: EB 3C              jmp         10003F68
  10003F2C: 56                 push        esi
  10003F2D: FF 35 50 10 01 10  push        dword ptr ds:[10011050h]
  10003F33: E8 68 1C 00 00     call        10005BA0
  10003F38: 85 C0              test        eax,eax
  10003F3A: 75 0F              jne         10003F4B
  10003F3C: 50                 push        eax
  10003F3D: FF 35 50 10 01 10  push        dword ptr ds:[10011050h]
  10003F43: E8 58 1C 00 00     call        10005BA0
  10003F48: 56                 push        esi
  10003F49: EB D9              jmp         10003F24
  10003F4B: 68 44 22 01 10     push        10012244h
  10003F50: 56                 push        esi
  10003F51: E8 C3 FC FF FF     call        10003C19
  10003F56: 6A 00              push        0
  10003F58: E8 B6 04 00 00     call        10004413
  10003F5D: 83 C4 0C           add         esp,0Ch
  10003F60: 85 F6              test        esi,esi
  10003F62: 74 04              je          10003F68
  10003F64: 8B C6              mov         eax,esi
  10003F66: 5E                 pop         esi
  10003F67: C3                 ret
  10003F68: E8 90 F9 FF FF     call        100038FD
  10003F6D: CC                 int         3
  10003F6E: 8B FF              mov         edi,edi
  10003F70: 53                 push        ebx
  10003F71: 56                 push        esi
  10003F72: 57                 push        edi
  10003F73: FF 15 40 B0 00 10  call        dword ptr ds:[1000B040h]
  10003F79: 8B F0              mov         esi,eax
  10003F7B: A1 50 10 01 10     mov         eax,dword ptr ds:[10011050h]
  10003F80: 83 F8 FF           cmp         eax,0FFFFFFFFh
  10003F83: 74 1C              je          10003FA1
  10003F85: 50                 push        eax
  10003F86: E8 D6 1B 00 00     call        10005B61
  10003F8B: 8B F8              mov         edi,eax
  10003F8D: 85 FF              test        edi,edi
  10003F8F: 74 0B              je          10003F9C
  10003F91: 83 FF FF           cmp         edi,0FFFFFFFFh
  10003F94: 75 78              jne         1000400E
  10003F96: 33 DB              xor         ebx,ebx
  10003F98: 8B FB              mov         edi,ebx
  10003F9A: EB 74              jmp         10004010
  10003F9C: A1 50 10 01 10     mov         eax,dword ptr ds:[10011050h]
  10003FA1: 6A FF              push        0FFFFFFFFh
  10003FA3: 50                 push        eax
  10003FA4: E8 F7 1B 00 00     call        10005BA0
  10003FA9: 85 C0              test        eax,eax
  10003FAB: 74 E9              je          10003F96
  10003FAD: 68 64 03 00 00     push        364h
  10003FB2: 6A 01              push        1
  10003FB4: E8 FD 03 00 00     call        100043B6
  10003FB9: 8B F8              mov         edi,eax
  10003FBB: 59                 pop         ecx
  10003FBC: 59                 pop         ecx
  10003FBD: 85 FF              test        edi,edi
  10003FBF: 75 17              jne         10003FD8
  10003FC1: 33 DB              xor         ebx,ebx
  10003FC3: 53                 push        ebx
  10003FC4: FF 35 50 10 01 10  push        dword ptr ds:[10011050h]
  10003FCA: E8 D1 1B 00 00     call        10005BA0
  10003FCF: 53                 push        ebx
  10003FD0: E8 3E 04 00 00     call        10004413
  10003FD5: 59                 pop         ecx
  10003FD6: EB C0              jmp         10003F98
  10003FD8: 57                 push        edi
  10003FD9: FF 35 50 10 01 10  push        dword ptr ds:[10011050h]
  10003FDF: E8 BC 1B 00 00     call        10005BA0
  10003FE4: 85 C0              test        eax,eax
  10003FE6: 75 11              jne         10003FF9
  10003FE8: 33 DB              xor         ebx,ebx
  10003FEA: 53                 push        ebx
  10003FEB: FF 35 50 10 01 10  push        dword ptr ds:[10011050h]
  10003FF1: E8 AA 1B 00 00     call        10005BA0
  10003FF6: 57                 push        edi
  10003FF7: EB D7              jmp         10003FD0
  10003FF9: 68 44 22 01 10     push        10012244h
  10003FFE: 57                 push        edi
  10003FFF: E8 15 FC FF FF     call        10003C19
  10004004: 6A 00              push        0
  10004006: E8 08 04 00 00     call        10004413
  1000400B: 83 C4 0C           add         esp,0Ch
  1000400E: 8B DF              mov         ebx,edi
  10004010: 56                 push        esi
  10004011: FF 15 44 B0 00 10  call        dword ptr ds:[1000B044h]
  10004017: F7 DF              neg         edi
  10004019: 1B FF              sbb         edi,edi
  1000401B: 23 FB              and         edi,ebx
  1000401D: 8B C7              mov         eax,edi
  1000401F: 5F                 pop         edi
  10004020: 5E                 pop         esi
  10004021: 5B                 pop         ebx
  10004022: C3                 ret
  10004023: 68 B2 3C 00 10     push        10003CB2h
  10004028: E8 B6 1A 00 00     call        10005AE3
  1000402D: A3 50 10 01 10     mov         dword ptr ds:[10011050h],eax
  10004032: 83 F8 FF           cmp         eax,0FFFFFFFFh
  10004035: 75 03              jne         1000403A
  10004037: 32 C0              xor         al,al
  10004039: C3                 ret
  1000403A: E8 2F FF FF FF     call        10003F6E
  1000403F: 85 C0              test        eax,eax
  10004041: 75 09              jne         1000404C
  10004043: 50                 push        eax
  10004044: E8 06 00 00 00     call        1000404F
  10004049: 59                 pop         ecx
  1000404A: EB EB              jmp         10004037
  1000404C: B0 01              mov         al,1
  1000404E: C3                 ret
  1000404F: A1 50 10 01 10     mov         eax,dword ptr ds:[10011050h]
  10004054: 83 F8 FF           cmp         eax,0FFFFFFFFh
  10004057: 74 0D              je          10004066
  10004059: 50                 push        eax
  1000405A: E8 C3 1A 00 00     call        10005B22
  1000405F: 83 0D 50 10 01 10  or          dword ptr ds:[10011050h],0FFFFFFFFh
            FF
  10004066: B0 01              mov         al,1
  10004068: C3                 ret
  10004069: 8B FF              mov         edi,edi
  1000406B: 56                 push        esi
  1000406C: 57                 push        edi
  1000406D: BF C0 1D 01 10     mov         edi,10011DC0h
  10004072: 33 F6              xor         esi,esi
  10004074: 6A 00              push        0
  10004076: 68 A0 0F 00 00     push        0FA0h
  1000407B: 57                 push        edi
  1000407C: E8 61 1B 00 00     call        10005BE2
  10004081: 85 C0              test        eax,eax
  10004083: 74 18              je          1000409D
  10004085: FF 05 10 1F 01 10  inc         dword ptr ds:[10011F10h]
  1000408B: 83 C6 18           add         esi,18h
  1000408E: 83 C7 18           add         edi,18h
  10004091: 81 FE 50 01 00 00  cmp         esi,150h
  10004097: 72 DB              jb          10004074
  10004099: B0 01              mov         al,1
  1000409B: EB 0A              jmp         100040A7
  1000409D: 6A 00              push        0
  1000409F: E8 1D 00 00 00     call        100040C1
  100040A4: 59                 pop         ecx
  100040A5: 32 C0              xor         al,al
  100040A7: 5F                 pop         edi
  100040A8: 5E                 pop         esi
  100040A9: C3                 ret
  100040AA: 8B FF              mov         edi,edi
  100040AC: 55                 push        ebp
  100040AD: 8B EC              mov         ebp,esp
  100040AF: 6B 45 08 18        imul        eax,dword ptr [ebp+8],18h
  100040B3: 05 C0 1D 01 10     add         eax,10011DC0h
  100040B8: 50                 push        eax
  100040B9: FF 15 48 B0 00 10  call        dword ptr ds:[1000B048h]
  100040BF: 5D                 pop         ebp
  100040C0: C3                 ret
  100040C1: 8B FF              mov         edi,edi
  100040C3: 56                 push        esi
  100040C4: 8B 35 10 1F 01 10  mov         esi,dword ptr ds:[10011F10h]
  100040CA: 85 F6              test        esi,esi
  100040CC: 74 20              je          100040EE
  100040CE: 6B C6 18           imul        eax,esi,18h
  100040D1: 57                 push        edi
  100040D2: 8D B8 A8 1D 01 10  lea         edi,[eax+10011DA8h]
  100040D8: 57                 push        edi
  100040D9: FF 15 50 B0 00 10  call        dword ptr ds:[1000B050h]
  100040DF: FF 0D 10 1F 01 10  dec         dword ptr ds:[10011F10h]
  100040E5: 83 EF 18           sub         edi,18h
  100040E8: 83 EE 01           sub         esi,1
  100040EB: 75 EB              jne         100040D8
  100040ED: 5F                 pop         edi
  100040EE: B0 01              mov         al,1
  100040F0: 5E                 pop         esi
  100040F1: C3                 ret
  100040F2: 8B FF              mov         edi,edi
  100040F4: 55                 push        ebp
  100040F5: 8B EC              mov         ebp,esp
  100040F7: 6B 45 08 18        imul        eax,dword ptr [ebp+8],18h
  100040FB: 05 C0 1D 01 10     add         eax,10011DC0h
  10004100: 50                 push        eax
  10004101: FF 15 4C B0 00 10  call        dword ptr ds:[1000B04Ch]
  10004107: 5D                 pop         ebp
  10004108: C3                 ret
  10004109: 8B FF              mov         edi,edi
  1000410B: 55                 push        ebp
  1000410C: 8B EC              mov         ebp,esp
  1000410E: 51                 push        ecx
  1000410F: 64 A1 30 00 00 00  mov         eax,dword ptr fs:[00000030h]
  10004115: 56                 push        esi
  10004116: 33 F6              xor         esi,esi
  10004118: 89 75 FC           mov         dword ptr [ebp-4],esi
  1000411B: 8B 40 10           mov         eax,dword ptr [eax+10h]
  1000411E: 39 70 08           cmp         dword ptr [eax+8],esi
  10004121: 7C 0F              jl          10004132
  10004123: 8D 45 FC           lea         eax,[ebp-4]
  10004126: 50                 push        eax
  10004127: E8 58 19 00 00     call        10005A84
  1000412C: 83 7D FC 01        cmp         dword ptr [ebp-4],1
  10004130: 74 03              je          10004135
  10004132: 33 F6              xor         esi,esi
  10004134: 46                 inc         esi
  10004135: 8B C6              mov         eax,esi
  10004137: 5E                 pop         esi
  10004138: C9                 leave
  10004139: C3                 ret
  1000413A: 8B FF              mov         edi,edi
  1000413C: 55                 push        ebp
  1000413D: 8B EC              mov         ebp,esp
  1000413F: 81 EC 28 03 00 00  sub         esp,328h
  10004145: A1 10 10 01 10     mov         eax,dword ptr ds:[10011010h]
  1000414A: 33 C5              xor         eax,ebp
  1000414C: 89 45 FC           mov         dword ptr [ebp-4],eax
  1000414F: 83 7D 08 FF        cmp         dword ptr [ebp+8],0FFFFFFFFh
  10004153: 57                 push        edi
  10004154: 74 09              je          1000415F
  10004156: FF 75 08           push        dword ptr [ebp+8]
  10004159: E8 EA D6 FF FF     call        10001848
  1000415E: 59                 pop         ecx
  1000415F: 6A 50              push        50h
  10004161: 8D 85 E0 FC FF FF  lea         eax,[ebp+FFFFFCE0h]
  10004167: 6A 00              push        0
  10004169: 50                 push        eax
  1000416A: E8 C1 DD FF FF     call        10001F30
  1000416F: 68 CC 02 00 00     push        2CCh
  10004174: 8D 85 30 FD FF FF  lea         eax,[ebp+FFFFFD30h]
  1000417A: 6A 00              push        0
  1000417C: 50                 push        eax
  1000417D: E8 AE DD FF FF     call        10001F30
  10004182: 8D 85 E0 FC FF FF  lea         eax,[ebp+FFFFFCE0h]
  10004188: 83 C4 18           add         esp,18h
  1000418B: 89 85 D8 FC FF FF  mov         dword ptr [ebp+FFFFFCD8h],eax
  10004191: 8D 85 30 FD FF FF  lea         eax,[ebp+FFFFFD30h]
  10004197: 89 85 DC FC FF FF  mov         dword ptr [ebp+FFFFFCDCh],eax
  1000419D: 89 85 E0 FD FF FF  mov         dword ptr [ebp+FFFFFDE0h],eax
  100041A3: 89 8D DC FD FF FF  mov         dword ptr [ebp+FFFFFDDCh],ecx
  100041A9: 89 95 D8 FD FF FF  mov         dword ptr [ebp+FFFFFDD8h],edx
  100041AF: 89 9D D4 FD FF FF  mov         dword ptr [ebp+FFFFFDD4h],ebx
  100041B5: 89 B5 D0 FD FF FF  mov         dword ptr [ebp+FFFFFDD0h],esi
  100041BB: 89 BD CC FD FF FF  mov         dword ptr [ebp+FFFFFDCCh],edi
  100041C1: 66 8C 95 F8 FD FF  mov         word ptr [ebp+FFFFFDF8h],ss
            FF
  100041C8: 66 8C 8D EC FD FF  mov         word ptr [ebp+FFFFFDECh],cs
            FF
  100041CF: 66 8C 9D C8 FD FF  mov         word ptr [ebp+FFFFFDC8h],ds
            FF
  100041D6: 66 8C 85 C4 FD FF  mov         word ptr [ebp+FFFFFDC4h],es
            FF
  100041DD: 66 8C A5 C0 FD FF  mov         word ptr [ebp+FFFFFDC0h],fs
            FF
  100041E4: 66 8C AD BC FD FF  mov         word ptr [ebp+FFFFFDBCh],gs
            FF
  100041EB: 9C                 pushfd
  100041EC: 8F 85 F0 FD FF FF  pop         dword ptr [ebp+FFFFFDF0h]
  100041F2: 8B 45 04           mov         eax,dword ptr [ebp+4]
  100041F5: 89 85 E8 FD FF FF  mov         dword ptr [ebp+FFFFFDE8h],eax
  100041FB: 8D 45 04           lea         eax,[ebp+4]
  100041FE: 89 85 F4 FD FF FF  mov         dword ptr [ebp+FFFFFDF4h],eax
  10004204: C7 85 30 FD FF FF  mov         dword ptr [ebp+FFFFFD30h],10001h
            01 00 01 00
  1000420E: 8B 40 FC           mov         eax,dword ptr [eax-4]
  10004211: 89 85 E4 FD FF FF  mov         dword ptr [ebp+FFFFFDE4h],eax
  10004217: 8B 45 0C           mov         eax,dword ptr [ebp+0Ch]
  1000421A: 89 85 E0 FC FF FF  mov         dword ptr [ebp+FFFFFCE0h],eax
  10004220: 8B 45 10           mov         eax,dword ptr [ebp+10h]
  10004223: 89 85 E4 FC FF FF  mov         dword ptr [ebp+FFFFFCE4h],eax
  10004229: 8B 45 04           mov         eax,dword ptr [ebp+4]
  1000422C: 89 85 EC FC FF FF  mov         dword ptr [ebp+FFFFFCECh],eax
  10004232: FF 15 14 B0 00 10  call        dword ptr ds:[1000B014h]
  10004238: 6A 00              push        0
  1000423A: 8B F8              mov         edi,eax
  1000423C: FF 15 1C B0 00 10  call        dword ptr ds:[1000B01Ch]
  10004242: 8D 85 D8 FC FF FF  lea         eax,[ebp+FFFFFCD8h]
  10004248: 50                 push        eax
  10004249: FF 15 18 B0 00 10  call        dword ptr ds:[1000B018h]
  1000424F: 85 C0              test        eax,eax
  10004251: 75 13              jne         10004266
  10004253: 85 FF              test        edi,edi
  10004255: 75 0F              jne         10004266
  10004257: 83 7D 08 FF        cmp         dword ptr [ebp+8],0FFFFFFFFh
  1000425B: 74 09              je          10004266
  1000425D: FF 75 08           push        dword ptr [ebp+8]
  10004260: E8 E3 D5 FF FF     call        10001848
  10004265: 59                 pop         ecx
  10004266: 8B 4D FC           mov         ecx,dword ptr [ebp-4]
  10004269: 33 CD              xor         ecx,ebp
  1000426B: 5F                 pop         edi
  1000426C: E8 6B D8 FF FF     call        10001ADC
  10004271: C9                 leave
  10004272: C3                 ret
  10004273: 8B FF              mov         edi,edi
  10004275: 55                 push        ebp
  10004276: 8B EC              mov         ebp,esp
  10004278: 8B 45 08           mov         eax,dword ptr [ebp+8]
  1000427B: A3 14 1F 01 10     mov         dword ptr ds:[10011F14h],eax
  10004280: 5D                 pop         ebp
  10004281: C3                 ret
  10004282: 8B FF              mov         edi,edi
  10004284: 55                 push        ebp
  10004285: 8B EC              mov         ebp,esp
  10004287: 56                 push        esi
  10004288: E8 E1 FC FF FF     call        10003F6E
  1000428D: 85 C0              test        eax,eax
  1000428F: 74 29              je          100042BA
  10004291: 8B B0 5C 03 00 00  mov         esi,dword ptr [eax+0000035Ch]
  10004297: 85 F6              test        esi,esi
  10004299: 74 1F              je          100042BA
  1000429B: FF 75 18           push        dword ptr [ebp+18h]
  1000429E: FF 75 14           push        dword ptr [ebp+14h]
  100042A1: FF 75 10           push        dword ptr [ebp+10h]
  100042A4: FF 75 0C           push        dword ptr [ebp+0Ch]
  100042A7: FF 75 08           push        dword ptr [ebp+8]
  100042AA: 8B CE              mov         ecx,esi
  100042AC: FF 15 04 B1 00 10  call        dword ptr ds:[1000B104h]
  100042B2: FF D6              call        esi
  100042B4: 83 C4 14           add         esp,14h
  100042B7: 5E                 pop         esi
  100042B8: 5D                 pop         ebp
  100042B9: C3                 ret
  100042BA: FF 75 18           push        dword ptr [ebp+18h]
  100042BD: 8B 35 10 10 01 10  mov         esi,dword ptr ds:[10011010h]
  100042C3: 8B CE              mov         ecx,esi
  100042C5: FF 75 14           push        dword ptr [ebp+14h]
  100042C8: 33 35 14 1F 01 10  xor         esi,dword ptr ds:[10011F14h]
  100042CE: 83 E1 1F           and         ecx,1Fh
  100042D1: FF 75 10           push        dword ptr [ebp+10h]
  100042D4: D3 CE              ror         esi,cl
  100042D6: FF 75 0C           push        dword ptr [ebp+0Ch]
  100042D9: FF 75 08           push        dword ptr [ebp+8]
  100042DC: 85 F6              test        esi,esi
  100042DE: 75 CA              jne         100042AA
  100042E0: E8 11 00 00 00     call        100042F6
  100042E5: CC                 int         3
  100042E6: 33 C0              xor         eax,eax
  100042E8: 50                 push        eax
  100042E9: 50                 push        eax
  100042EA: 50                 push        eax
  100042EB: 50                 push        eax
  100042EC: 50                 push        eax
  100042ED: E8 90 FF FF FF     call        10004282
  100042F2: 83 C4 14           add         esp,14h
  100042F5: C3                 ret
  100042F6: 6A 17              push        17h
  100042F8: FF 15 24 B0 00 10  call        dword ptr ds:[1000B024h]
  100042FE: 85 C0              test        eax,eax
  10004300: 74 05              je          10004307
  10004302: 6A 05              push        5
  10004304: 59                 pop         ecx
  10004305: CD 29              int         29h
  10004307: 56                 push        esi
  10004308: 6A 01              push        1
  1000430A: BE 17 04 00 C0     mov         esi,0C0000417h
  1000430F: 56                 push        esi
  10004310: 6A 02              push        2
  10004312: E8 23 FE FF FF     call        1000413A
  10004317: 83 C4 0C           add         esp,0Ch
  1000431A: 56                 push        esi
  1000431B: FF 15 2C B0 00 10  call        dword ptr ds:[1000B02Ch]
  10004321: 50                 push        eax
  10004322: FF 15 30 B0 00 10  call        dword ptr ds:[1000B030h]
  10004328: 5E                 pop         esi
  10004329: C3                 ret
  1000432A: 8B FF              mov         edi,edi
  1000432C: 55                 push        ebp
  1000432D: 8B EC              mov         ebp,esp
  1000432F: 8B 4D 08           mov         ecx,dword ptr [ebp+8]
  10004332: 33 C0              xor         eax,eax
  10004334: 3B 0C C5 78 BD 00  cmp         ecx,dword ptr [eax*8+1000BD78h]
            10
  1000433B: 74 27              je          10004364
  1000433D: 40                 inc         eax
  1000433E: 83 F8 2D           cmp         eax,2Dh
  10004341: 72 F1              jb          10004334
  10004343: 8D 41 ED           lea         eax,[ecx-13h]
  10004346: 83 F8 11           cmp         eax,11h
  10004349: 77 05              ja          10004350
  1000434B: 6A 0D              push        0Dh
  1000434D: 58                 pop         eax
  1000434E: 5D                 pop         ebp
  1000434F: C3                 ret
  10004350: 8D 81 44 FF FF FF  lea         eax,[ecx+FFFFFF44h]
  10004356: 6A 0E              push        0Eh
  10004358: 59                 pop         ecx
  10004359: 3B C8              cmp         ecx,eax
  1000435B: 1B C0              sbb         eax,eax
  1000435D: 23 C1              and         eax,ecx
  1000435F: 83 C0 08           add         eax,8
  10004362: 5D                 pop         ebp
  10004363: C3                 ret
  10004364: 8B 04 C5 7C BD 00  mov         eax,dword ptr [eax*8+1000BD7Ch]
            10
  1000436B: 5D                 pop         ebp
  1000436C: C3                 ret
  1000436D: 8B FF              mov         edi,edi
  1000436F: 55                 push        ebp
  10004370: 8B EC              mov         ebp,esp
  10004372: 56                 push        esi
  10004373: E8 18 00 00 00     call        10004390
  10004378: 8B 4D 08           mov         ecx,dword ptr [ebp+8]
  1000437B: 51                 push        ecx
  1000437C: 89 08              mov         dword ptr [eax],ecx
  1000437E: E8 A7 FF FF FF     call        1000432A
  10004383: 59                 pop         ecx
  10004384: 8B F0              mov         esi,eax
  10004386: E8 18 00 00 00     call        100043A3
  1000438B: 89 30              mov         dword ptr [eax],esi
  1000438D: 5E                 pop         esi
  1000438E: 5D                 pop         ebp
  1000438F: C3                 ret
  10004390: E8 D9 FB FF FF     call        10003F6E
  10004395: 85 C0              test        eax,eax
  10004397: 75 06              jne         1000439F
  10004399: B8 58 10 01 10     mov         eax,10011058h
  1000439E: C3                 ret
  1000439F: 83 C0 14           add         eax,14h
  100043A2: C3                 ret
  100043A3: E8 C6 FB FF FF     call        10003F6E
  100043A8: 85 C0              test        eax,eax
  100043AA: 75 06              jne         100043B2
  100043AC: B8 54 10 01 10     mov         eax,10011054h
  100043B1: C3                 ret
  100043B2: 83 C0 10           add         eax,10h
  100043B5: C3                 ret
  100043B6: 8B FF              mov         edi,edi
  100043B8: 55                 push        ebp
  100043B9: 8B EC              mov         ebp,esp
  100043BB: 56                 push        esi
  100043BC: 8B 75 08           mov         esi,dword ptr [ebp+8]
  100043BF: 85 F6              test        esi,esi
  100043C1: 74 0C              je          100043CF
  100043C3: 6A E0              push        0FFFFFFE0h
  100043C5: 33 D2              xor         edx,edx
  100043C7: 58                 pop         eax
  100043C8: F7 F6              div         eax,esi
  100043CA: 3B 45 0C           cmp         eax,dword ptr [ebp+0Ch]
  100043CD: 72 34              jb          10004403
  100043CF: 0F AF 75 0C        imul        esi,dword ptr [ebp+0Ch]
  100043D3: 85 F6              test        esi,esi
  100043D5: 75 17              jne         100043EE
  100043D7: 46                 inc         esi
  100043D8: EB 14              jmp         100043EE
  100043DA: E8 36 2A 00 00     call        10006E15
  100043DF: 85 C0              test        eax,eax
  100043E1: 74 20              je          10004403
  100043E3: 56                 push        esi
  100043E4: E8 EC 1B 00 00     call        10005FD5
  100043E9: 59                 pop         ecx
  100043EA: 85 C0              test        eax,eax
  100043EC: 74 15              je          10004403
  100043EE: 56                 push        esi
  100043EF: 6A 08              push        8
  100043F1: FF 35 20 20 01 10  push        dword ptr ds:[10012020h]
  100043F7: FF 15 84 B0 00 10  call        dword ptr ds:[1000B084h]
  100043FD: 85 C0              test        eax,eax
  100043FF: 74 D9              je          100043DA
  10004401: EB 0D              jmp         10004410
  10004403: E8 9B FF FF FF     call        100043A3
  10004408: C7 00 0C 00 00 00  mov         dword ptr [eax],0Ch
  1000440E: 33 C0              xor         eax,eax
  10004410: 5E                 pop         esi
  10004411: 5D                 pop         ebp
  10004412: C3                 ret
  10004413: 8B FF              mov         edi,edi
  10004415: 55                 push        ebp
  10004416: 8B EC              mov         ebp,esp
  10004418: 83 7D 08 00        cmp         dword ptr [ebp+8],0
  1000441C: 74 2D              je          1000444B
  1000441E: FF 75 08           push        dword ptr [ebp+8]
  10004421: 6A 00              push        0
  10004423: FF 35 20 20 01 10  push        dword ptr ds:[10012020h]
  10004429: FF 15 88 B0 00 10  call        dword ptr ds:[1000B088h]
  1000442F: 85 C0              test        eax,eax
  10004431: 75 18              jne         1000444B
  10004433: 56                 push        esi
  10004434: E8 6A FF FF FF     call        100043A3
  10004439: 8B F0              mov         esi,eax
  1000443B: FF 15 40 B0 00 10  call        dword ptr ds:[1000B040h]
  10004441: 50                 push        eax
  10004442: E8 E3 FE FF FF     call        1000432A
  10004447: 59                 pop         ecx
  10004448: 89 06              mov         dword ptr [esi],eax
  1000444A: 5E                 pop         esi
  1000444B: 5D                 pop         ebp
  1000444C: C3                 ret
  1000444D: 8B FF              mov         edi,edi
  1000444F: 55                 push        ebp
  10004450: 8B EC              mov         ebp,esp
  10004452: 8B 45 0C           mov         eax,dword ptr [ebp+0Ch]
  10004455: 3B 45 08           cmp         eax,dword ptr [ebp+8]
  10004458: 76 05              jbe         1000445F
  1000445A: 83 C8 FF           or          eax,0FFFFFFFFh
  1000445D: 5D                 pop         ebp
  1000445E: C3                 ret
  1000445F: 1B C0              sbb         eax,eax
  10004461: F7 D8              neg         eax
  10004463: 5D                 pop         ebp
  10004464: C3                 ret
  10004465: 8B FF              mov         edi,edi
  10004467: 55                 push        ebp
  10004468: 8B EC              mov         ebp,esp
  1000446A: 56                 push        esi
  1000446B: 8B 75 08           mov         esi,dword ptr [ebp+8]
  1000446E: 57                 push        edi
  1000446F: 85 F6              test        esi,esi
  10004471: 75 1A              jne         1000448D
  10004473: 8B 75 0C           mov         esi,dword ptr [ebp+0Ch]
  10004476: 8B CE              mov         ecx,esi
  10004478: E8 BC 06 00 00     call        10004B39
  1000447D: 33 FF              xor         edi,edi
  1000447F: 89 7E 08           mov         dword ptr [esi+8],edi
  10004482: 89 7E 0C           mov         dword ptr [esi+0Ch],edi
  10004485: 89 7E 10           mov         dword ptr [esi+10h],edi
  10004488: E9 84 00 00 00     jmp         10004511
  1000448D: 33 FF              xor         edi,edi
  1000448F: 80 3E 00           cmp         byte ptr [esi],0
  10004492: 75 1F              jne         100044B3
  10004494: 8B 75 0C           mov         esi,dword ptr [ebp+0Ch]
  10004497: 39 7E 0C           cmp         dword ptr [esi+0Ch],edi
  1000449A: 75 0D              jne         100044A9
  1000449C: 6A 01              push        1
  1000449E: 8B CE              mov         ecx,esi
  100044A0: E8 EA 06 00 00     call        10004B8F
  100044A5: 85 C0              test        eax,eax
  100044A7: 75 6A              jne         10004513
  100044A9: 8B 46 08           mov         eax,dword ptr [esi+8]
  100044AC: 33 C9              xor         ecx,ecx
  100044AE: 66 89 08           mov         word ptr [eax],cx
  100044B1: EB D2              jmp         10004485
  100044B3: 57                 push        edi
  100044B4: 57                 push        edi
  100044B5: 6A FF              push        0FFFFFFFFh
  100044B7: 56                 push        esi
  100044B8: 6A 09              push        9
  100044BA: FF 75 14           push        dword ptr [ebp+14h]
  100044BD: E8 CF 11 00 00     call        10005691
  100044C2: 83 C4 18           add         esp,18h
  100044C5: 85 C0              test        eax,eax
  100044C7: 75 16              jne         100044DF
  100044C9: FF 15 40 B0 00 10  call        dword ptr ds:[1000B040h]
  100044CF: 50                 push        eax
  100044D0: E8 98 FE FF FF     call        1000436D
  100044D5: 59                 pop         ecx
  100044D6: E8 C8 FE FF FF     call        100043A3
  100044DB: 8B 00              mov         eax,dword ptr [eax]
  100044DD: EB 34              jmp         10004513
  100044DF: 8B 7D 0C           mov         edi,dword ptr [ebp+0Ch]
  100044E2: 3B 47 0C           cmp         eax,dword ptr [edi+0Ch]
  100044E5: 76 0C              jbe         100044F3
  100044E7: 50                 push        eax
  100044E8: 8B CF              mov         ecx,edi
  100044EA: E8 A0 06 00 00     call        10004B8F
  100044EF: 85 C0              test        eax,eax
  100044F1: 75 20              jne         10004513
  100044F3: FF 77 0C           push        dword ptr [edi+0Ch]
  100044F6: FF 77 08           push        dword ptr [edi+8]
  100044F9: 6A FF              push        0FFFFFFFFh
  100044FB: 56                 push        esi
  100044FC: 6A 09              push        9
  100044FE: FF 75 14           push        dword ptr [ebp+14h]
  10004501: E8 8B 11 00 00     call        10005691
  10004506: 83 C4 18           add         esp,18h
  10004509: 85 C0              test        eax,eax
  1000450B: 74 BC              je          100044C9
  1000450D: 48                 dec         eax
  1000450E: 89 47 10           mov         dword ptr [edi+10h],eax
  10004511: 33 C0              xor         eax,eax
  10004513: 5F                 pop         edi
  10004514: 5E                 pop         esi
  10004515: 5D                 pop         ebp
  10004516: C3                 ret
  10004517: 8B FF              mov         edi,edi
  10004519: 55                 push        ebp
  1000451A: 8B EC              mov         ebp,esp
  1000451C: 53                 push        ebx
  1000451D: 56                 push        esi
  1000451E: 8B 75 08           mov         esi,dword ptr [ebp+8]
  10004521: 85 F6              test        esi,esi
  10004523: 75 1C              jne         10004541
  10004525: 8B 75 0C           mov         esi,dword ptr [ebp+0Ch]
  10004528: 8B CE              mov         ecx,esi
  1000452A: E8 0A 06 00 00     call        10004B39
  1000452F: 33 DB              xor         ebx,ebx
  10004531: 89 5E 08           mov         dword ptr [esi+8],ebx
  10004534: 89 5E 0C           mov         dword ptr [esi+0Ch],ebx
  10004537: 89 5E 10           mov         dword ptr [esi+10h],ebx
  1000453A: 33 C0              xor         eax,eax
  1000453C: E9 A1 00 00 00     jmp         100045E2
  10004541: 33 DB              xor         ebx,ebx
  10004543: 66 39 1E           cmp         word ptr [esi],bx
  10004546: 75 20              jne         10004568
  10004548: 8B 75 0C           mov         esi,dword ptr [ebp+0Ch]
  1000454B: 39 5E 0C           cmp         dword ptr [esi+0Ch],ebx
  1000454E: 75 11              jne         10004561
  10004550: 6A 01              push        1
  10004552: 8B CE              mov         ecx,esi
  10004554: E8 FA 05 00 00     call        10004B53
  10004559: 85 C0              test        eax,eax
  1000455B: 0F 85 81 00 00 00  jne         100045E2
  10004561: 8B 46 08           mov         eax,dword ptr [esi+8]
  10004564: 88 18              mov         byte ptr [eax],bl
  10004566: EB CF              jmp         10004537
  10004568: 53                 push        ebx
  10004569: 53                 push        ebx
  1000456A: 53                 push        ebx
  1000456B: 53                 push        ebx
  1000456C: 6A FF              push        0FFFFFFFFh
  1000456E: 56                 push        esi
  1000456F: 53                 push        ebx
  10004570: FF 75 14           push        dword ptr [ebp+14h]
  10004573: E8 95 11 00 00     call        1000570D
  10004578: 83 C4 20           add         esp,20h
  1000457B: 85 C0              test        eax,eax
  1000457D: 75 16              jne         10004595
  1000457F: FF 15 40 B0 00 10  call        dword ptr ds:[1000B040h]
  10004585: 50                 push        eax
  10004586: E8 E2 FD FF FF     call        1000436D
  1000458B: 59                 pop         ecx
  1000458C: E8 12 FE FF FF     call        100043A3
  10004591: 8B 00              mov         eax,dword ptr [eax]
  10004593: EB 4D              jmp         100045E2
  10004595: 57                 push        edi
  10004596: 8B 7D 0C           mov         edi,dword ptr [ebp+0Ch]
  10004599: 3B 47 0C           cmp         eax,dword ptr [edi+0Ch]
  1000459C: 76 0C              jbe         100045AA
  1000459E: 50                 push        eax
  1000459F: 8B CF              mov         ecx,edi
  100045A1: E8 AD 05 00 00     call        10004B53
  100045A6: 85 C0              test        eax,eax
  100045A8: 75 37              jne         100045E1
  100045AA: 53                 push        ebx
  100045AB: 53                 push        ebx
  100045AC: FF 77 0C           push        dword ptr [edi+0Ch]
  100045AF: FF 77 08           push        dword ptr [edi+8]
  100045B2: 6A FF              push        0FFFFFFFFh
  100045B4: 56                 push        esi
  100045B5: 53                 push        ebx
  100045B6: FF 75 14           push        dword ptr [ebp+14h]
  100045B9: E8 4F 11 00 00     call        1000570D
  100045BE: 83 C4 20           add         esp,20h
  100045C1: 85 C0              test        eax,eax
  100045C3: 75 16              jne         100045DB
  100045C5: FF 15 40 B0 00 10  call        dword ptr ds:[1000B040h]
  100045CB: 50                 push        eax
  100045CC: E8 9C FD FF FF     call        1000436D
  100045D1: 59                 pop         ecx
  100045D2: E8 CC FD FF FF     call        100043A3
  100045D7: 8B 00              mov         eax,dword ptr [eax]
  100045D9: EB 06              jmp         100045E1
  100045DB: 48                 dec         eax
  100045DC: 89 47 10           mov         dword ptr [edi+10h],eax
  100045DF: 33 C0              xor         eax,eax
  100045E1: 5F                 pop         edi
  100045E2: 5E                 pop         esi
  100045E3: 5B                 pop         ebx
  100045E4: 5D                 pop         ebp
  100045E5: C3                 ret
  100045E6: 8B FF              mov         edi,edi
  100045E8: 55                 push        ebp
  100045E9: 8B EC              mov         ebp,esp
  100045EB: 51                 push        ecx
  100045EC: FF 75 10           push        dword ptr [ebp+10h]
  100045EF: 8D 45 FF           lea         eax,[ebp-1]
  100045F2: 50                 push        eax
  100045F3: FF 75 0C           push        dword ptr [ebp+0Ch]
  100045F6: FF 75 08           push        dword ptr [ebp+8]
  100045F9: E8 67 FE FF FF     call        10004465
  100045FE: 83 C4 10           add         esp,10h
  10004601: C9                 leave
  10004602: C3                 ret
  10004603: 8B FF              mov         edi,edi
  10004605: 55                 push        ebp
  10004606: 8B EC              mov         ebp,esp
  10004608: 8B 45 0C           mov         eax,dword ptr [ebp+0Ch]
  1000460B: 83 EC 28           sub         esp,28h
  1000460E: 56                 push        esi
  1000460F: 85 C0              test        eax,eax
  10004611: 75 14              jne         10004627
  10004613: E8 8B FD FF FF     call        100043A3
  10004618: 6A 16              push        16h
  1000461A: 5E                 pop         esi
  1000461B: 89 30              mov         dword ptr [eax],esi
  1000461D: E8 C4 FC FF FF     call        100042E6
  10004622: E9 BB 01 00 00     jmp         100047E2
  10004627: 8B 75 08           mov         esi,dword ptr [ebp+8]
  1000462A: 53                 push        ebx
  1000462B: 33 DB              xor         ebx,ebx
  1000462D: 57                 push        edi
  1000462E: 89 18              mov         dword ptr [eax],ebx
  10004630: 8B FB              mov         edi,ebx
  10004632: 8B 06              mov         eax,dword ptr [esi]
  10004634: 8B CB              mov         ecx,ebx
  10004636: 89 7D D8           mov         dword ptr [ebp-28h],edi
  10004639: 89 4D DC           mov         dword ptr [ebp-24h],ecx
  1000463C: 89 5D E0           mov         dword ptr [ebp-20h],ebx
  1000463F: 85 C0              test        eax,eax
  10004641: 74 61              je          100046A4
  10004643: 8D 4D FC           lea         ecx,[ebp-4]
  10004646: 66 C7 45 FC 2A 3F  mov         word ptr [ebp-4],3F2Ah
  1000464C: 51                 push        ecx
  1000464D: 50                 push        eax
  1000464E: 88 5D FE           mov         byte ptr [ebp-2],bl
  10004651: E8 7A 2D 00 00     call        100073D0
  10004656: 59                 pop         ecx
  10004657: 59                 pop         ecx
  10004658: 8B 0E              mov         ecx,dword ptr [esi]
  1000465A: 85 C0              test        eax,eax
  1000465C: 75 16              jne         10004674
  1000465E: 8D 45 D8           lea         eax,[ebp-28h]
  10004661: 50                 push        eax
  10004662: 53                 push        ebx
  10004663: 53                 push        ebx
  10004664: 51                 push        ecx
  10004665: E8 88 01 00 00     call        100047F2
  1000466A: 8B F0              mov         esi,eax
  1000466C: 83 C4 10           add         esp,10h
  1000466F: 89 75 F8           mov         dword ptr [ebp-8],esi
  10004672: EB 13              jmp         10004687
  10004674: 8D 55 D8           lea         edx,[ebp-28h]
  10004677: 52                 push        edx
  10004678: 50                 push        eax
  10004679: 51                 push        ecx
  1000467A: E8 24 02 00 00     call        100048A3
  1000467F: 83 C4 0C           add         esp,0Ch
  10004682: 89 45 F8           mov         dword ptr [ebp-8],eax
  10004685: 8B F0              mov         esi,eax
  10004687: 85 F6              test        esi,esi
  10004689: 0F 85 88 00 00 00  jne         10004717
  1000468F: 8B 75 08           mov         esi,dword ptr [ebp+8]
  10004692: 83 C6 04           add         esi,4
  10004695: 89 75 08           mov         dword ptr [ebp+8],esi
  10004698: 8B 06              mov         eax,dword ptr [esi]
  1000469A: 85 C0              test        eax,eax
  1000469C: 75 A5              jne         10004643
  1000469E: 8B 7D D8           mov         edi,dword ptr [ebp-28h]
  100046A1: 8B 4D DC           mov         ecx,dword ptr [ebp-24h]
  100046A4: 8B C1              mov         eax,ecx
  100046A6: 89 5D FC           mov         dword ptr [ebp-4],ebx
  100046A9: 2B C7              sub         eax,edi
  100046AB: 8B F7              mov         esi,edi
  100046AD: 8B D0              mov         edx,eax
  100046AF: 89 75 F8           mov         dword ptr [ebp-8],esi
  100046B2: C1 FA 02           sar         edx,2
  100046B5: 83 C0 03           add         eax,3
  100046B8: 42                 inc         edx
  100046B9: C1 E8 02           shr         eax,2
  100046BC: 3B CE              cmp         ecx,esi
  100046BE: 89 55 F4           mov         dword ptr [ebp-0Ch],edx
  100046C1: 1B F6              sbb         esi,esi
  100046C3: F7 D6              not         esi
  100046C5: 23 F0              and         esi,eax
  100046C7: 74 2F              je          100046F8
  100046C9: 8B C7              mov         eax,edi
  100046CB: 8B D3              mov         edx,ebx
  100046CD: 8B 08              mov         ecx,dword ptr [eax]
  100046CF: 8D 41 01           lea         eax,[ecx+1]
  100046D2: 89 45 F0           mov         dword ptr [ebp-10h],eax
  100046D5: 8A 01              mov         al,byte ptr [ecx]
  100046D7: 41                 inc         ecx
  100046D8: 84 C0              test        al,al
  100046DA: 75 F9              jne         100046D5
  100046DC: 2B 4D F0           sub         ecx,dword ptr [ebp-10h]
  100046DF: 43                 inc         ebx
  100046E0: 8B 45 F8           mov         eax,dword ptr [ebp-8]
  100046E3: 03 D9              add         ebx,ecx
  100046E5: 83 C0 04           add         eax,4
  100046E8: 42                 inc         edx
  100046E9: 89 45 F8           mov         dword ptr [ebp-8],eax
  100046EC: 3B D6              cmp         edx,esi
  100046EE: 75 DD              jne         100046CD
  100046F0: 8B 55 F4           mov         edx,dword ptr [ebp-0Ch]
  100046F3: 89 5D FC           mov         dword ptr [ebp-4],ebx
  100046F6: 33 DB              xor         ebx,ebx
  100046F8: 6A 01              push        1
  100046FA: FF 75 FC           push        dword ptr [ebp-4]
  100046FD: 52                 push        edx
  100046FE: E8 F3 EB FF FF     call        100032F6
  10004703: 8B F0              mov         esi,eax
  10004705: 83 C4 0C           add         esp,0Ch
  10004708: 85 F6              test        esi,esi
  1000470A: 75 13              jne         1000471F
  1000470C: 83 CE FF           or          esi,0FFFFFFFFh
  1000470F: 89 75 F8           mov         dword ptr [ebp-8],esi
  10004712: E9 85 00 00 00     jmp         1000479C
  10004717: 8B 7D D8           mov         edi,dword ptr [ebp-28h]
  1000471A: E9 84 00 00 00     jmp         100047A3
  1000471F: 8B 45 F4           mov         eax,dword ptr [ebp-0Ch]
  10004722: 89 7D F8           mov         dword ptr [ebp-8],edi
  10004725: 8D 04 86           lea         eax,[esi+eax*4]
  10004728: 8B C8              mov         ecx,eax
  1000472A: 89 45 E8           mov         dword ptr [ebp-18h],eax
  1000472D: 8B C7              mov         eax,edi
  1000472F: 89 4D F4           mov         dword ptr [ebp-0Ch],ecx
  10004732: 3B 45 DC           cmp         eax,dword ptr [ebp-24h]
  10004735: 74 5B              je          10004792
  10004737: 8B D6              mov         edx,esi
  10004739: 2B D7              sub         edx,edi
  1000473B: 89 55 E4           mov         dword ptr [ebp-1Ch],edx
  1000473E: 8B 00              mov         eax,dword ptr [eax]
  10004740: 8B D0              mov         edx,eax
  10004742: 89 45 EC           mov         dword ptr [ebp-14h],eax
  10004745: 8D 42 01           lea         eax,[edx+1]
  10004748: 89 45 F0           mov         dword ptr [ebp-10h],eax
  1000474B: 8A 02              mov         al,byte ptr [edx]
  1000474D: 42                 inc         edx
  1000474E: 84 C0              test        al,al
  10004750: 75 F9              jne         1000474B
  10004752: 2B 55 F0           sub         edx,dword ptr [ebp-10h]
  10004755: 8D 42 01           lea         eax,[edx+1]
  10004758: 50                 push        eax
  10004759: FF 75 EC           push        dword ptr [ebp-14h]
  1000475C: 89 45 F0           mov         dword ptr [ebp-10h],eax
  1000475F: 8B 45 E8           mov         eax,dword ptr [ebp-18h]
  10004762: 2B C1              sub         eax,ecx
  10004764: 03 45 FC           add         eax,dword ptr [ebp-4]
  10004767: 50                 push        eax
  10004768: 51                 push        ecx
  10004769: E8 53 2C 00 00     call        100073C1
  1000476E: 83 C4 10           add         esp,10h
  10004771: 85 C0              test        eax,eax
  10004773: 75 72              jne         100047E7
  10004775: 8B 45 F8           mov         eax,dword ptr [ebp-8]
  10004778: 8B 55 E4           mov         edx,dword ptr [ebp-1Ch]
  1000477B: 8B 4D F4           mov         ecx,dword ptr [ebp-0Ch]
  1000477E: 89 0C 02           mov         dword ptr [edx+eax],ecx
  10004781: 83 C0 04           add         eax,4
  10004784: 03 4D F0           add         ecx,dword ptr [ebp-10h]
  10004787: 89 4D F4           mov         dword ptr [ebp-0Ch],ecx
  1000478A: 89 45 F8           mov         dword ptr [ebp-8],eax
  1000478D: 3B 45 DC           cmp         eax,dword ptr [ebp-24h]
  10004790: 75 AC              jne         1000473E
  10004792: 8B 45 0C           mov         eax,dword ptr [ebp+0Ch]
  10004795: 89 5D F8           mov         dword ptr [ebp-8],ebx
  10004798: 89 30              mov         dword ptr [eax],esi
  1000479A: 8B F3              mov         esi,ebx
  1000479C: 53                 push        ebx
  1000479D: E8 71 FC FF FF     call        10004413
  100047A2: 59                 pop         ecx
  100047A3: 8B 45 DC           mov         eax,dword ptr [ebp-24h]
  100047A6: 8B D7              mov         edx,edi
  100047A8: 2B C2              sub         eax,edx
  100047AA: 89 55 E4           mov         dword ptr [ebp-1Ch],edx
  100047AD: 83 C0 03           add         eax,3
  100047B0: C1 E8 02           shr         eax,2
  100047B3: 39 55 DC           cmp         dword ptr [ebp-24h],edx
  100047B6: 1B C9              sbb         ecx,ecx
  100047B8: F7 D1              not         ecx
  100047BA: 23 C8              and         ecx,eax
  100047BC: 89 4D E8           mov         dword ptr [ebp-18h],ecx
  100047BF: 74 18              je          100047D9
  100047C1: 8B F1              mov         esi,ecx
  100047C3: FF 37              push        dword ptr [edi]
  100047C5: E8 49 FC FF FF     call        10004413
  100047CA: 43                 inc         ebx
  100047CB: 8D 7F 04           lea         edi,[edi+4]
  100047CE: 59                 pop         ecx
  100047CF: 3B DE              cmp         ebx,esi
  100047D1: 75 F0              jne         100047C3
  100047D3: 8B 7D D8           mov         edi,dword ptr [ebp-28h]
  100047D6: 8B 75 F8           mov         esi,dword ptr [ebp-8]
  100047D9: 57                 push        edi
  100047DA: E8 34 FC FF FF     call        10004413
  100047DF: 59                 pop         ecx
  100047E0: 5F                 pop         edi
  100047E1: 5B                 pop         ebx
  100047E2: 8B C6              mov         eax,esi
  100047E4: 5E                 pop         esi
  100047E5: C9                 leave
  100047E6: C3                 ret
  100047E7: 53                 push        ebx
  100047E8: 53                 push        ebx
  100047E9: 53                 push        ebx
  100047EA: 53                 push        ebx
  100047EB: 53                 push        ebx
  100047EC: E8 05 FB FF FF     call        100042F6
  100047F1: CC                 int         3
  100047F2: 8B FF              mov         edi,edi
  100047F4: 55                 push        ebp
  100047F5: 8B EC              mov         ebp,esp
  100047F7: 51                 push        ecx
  100047F8: 8B 4D 08           mov         ecx,dword ptr [ebp+8]
  100047FB: 8D 51 01           lea         edx,[ecx+1]
  100047FE: 8A 01              mov         al,byte ptr [ecx]
  10004800: 41                 inc         ecx
  10004801: 84 C0              test        al,al
  10004803: 75 F9              jne         100047FE
  10004805: 57                 push        edi
  10004806: 8B 7D 10           mov         edi,dword ptr [ebp+10h]
  10004809: 2B CA              sub         ecx,edx
  1000480B: 8B C7              mov         eax,edi
  1000480D: 41                 inc         ecx
  1000480E: F7 D0              not         eax
  10004810: 89 4D FC           mov         dword ptr [ebp-4],ecx
  10004813: 3B C8              cmp         ecx,eax
  10004815: 76 06              jbe         1000481D
  10004817: 6A 0C              push        0Ch
  10004819: 58                 pop         eax
  1000481A: 5F                 pop         edi
  1000481B: C9                 leave
  1000481C: C3                 ret
  1000481D: 53                 push        ebx
  1000481E: 56                 push        esi
  1000481F: 8D 5F 01           lea         ebx,[edi+1]
  10004822: 03 D9              add         ebx,ecx
  10004824: 6A 01              push        1
  10004826: 53                 push        ebx
  10004827: E8 8A FB FF FF     call        100043B6
  1000482C: 8B F0              mov         esi,eax
  1000482E: 59                 pop         ecx
  1000482F: 59                 pop         ecx
  10004830: 85 FF              test        edi,edi
  10004832: 74 12              je          10004846
  10004834: 57                 push        edi
  10004835: FF 75 0C           push        dword ptr [ebp+0Ch]
  10004838: 53                 push        ebx
  10004839: 56                 push        esi
  1000483A: E8 82 2B 00 00     call        100073C1
  1000483F: 83 C4 10           add         esp,10h
  10004842: 85 C0              test        eax,eax
  10004844: 75 50              jne         10004896
  10004846: FF 75 FC           push        dword ptr [ebp-4]
  10004849: 2B DF              sub         ebx,edi
  1000484B: 8D 04 3E           lea         eax,[esi+edi]
  1000484E: FF 75 08           push        dword ptr [ebp+8]
  10004851: 53                 push        ebx
  10004852: 50                 push        eax
  10004853: E8 69 2B 00 00     call        100073C1
  10004858: 83 C4 10           add         esp,10h
  1000485B: 85 C0              test        eax,eax
  1000485D: 75 37              jne         10004896
  1000485F: 8B 5D 14           mov         ebx,dword ptr [ebp+14h]
  10004862: 8B CB              mov         ecx,ebx
  10004864: E8 84 03 00 00     call        10004BED
  10004869: 33 FF              xor         edi,edi
  1000486B: 89 45 FC           mov         dword ptr [ebp-4],eax
  1000486E: 85 C0              test        eax,eax
  10004870: 74 0C              je          1000487E
  10004872: 56                 push        esi
  10004873: E8 9B FB FF FF     call        10004413
  10004878: 8B 75 FC           mov         esi,dword ptr [ebp-4]
  1000487B: 59                 pop         ecx
  1000487C: EB 0B              jmp         10004889
  1000487E: 8B 43 04           mov         eax,dword ptr [ebx+4]
  10004881: 89 30              mov         dword ptr [eax],esi
  10004883: 8B F7              mov         esi,edi
  10004885: 83 43 04 04        add         dword ptr [ebx+4],4
  10004889: 57                 push        edi
  1000488A: E8 84 FB FF FF     call        10004413
  1000488F: 59                 pop         ecx
  10004890: 8B C6              mov         eax,esi
  10004892: 5E                 pop         esi
  10004893: 5B                 pop         ebx
  10004894: EB 84              jmp         1000481A
  10004896: 33 FF              xor         edi,edi
  10004898: 57                 push        edi
  10004899: 57                 push        edi
  1000489A: 57                 push        edi
  1000489B: 57                 push        edi
  1000489C: 57                 push        edi
  1000489D: E8 54 FA FF FF     call        100042F6
  100048A2: CC                 int         3
  100048A3: 8B FF              mov         edi,edi
  100048A5: 55                 push        ebp
  100048A6: 8B EC              mov         ebp,esp
  100048A8: 81 EC 98 02 00 00  sub         esp,298h
  100048AE: A1 10 10 01 10     mov         eax,dword ptr ds:[10011010h]
  100048B3: 33 C5              xor         eax,ebp
  100048B5: 89 45 FC           mov         dword ptr [ebp-4],eax
  100048B8: 8B 4D 0C           mov         ecx,dword ptr [ebp+0Ch]
  100048BB: 8B 55 10           mov         edx,dword ptr [ebp+10h]
  100048BE: 53                 push        ebx
  100048BF: 57                 push        edi
  100048C0: 8B 7D 08           mov         edi,dword ptr [ebp+8]
  100048C3: 89 95 A4 FD FF FF  mov         dword ptr [ebp+FFFFFDA4h],edx
  100048C9: 3B CF              cmp         ecx,edi
  100048CB: 74 23              je          100048F0
  100048CD: 8A 01              mov         al,byte ptr [ecx]
  100048CF: 3C 2F              cmp         al,2Fh
  100048D1: 74 17              je          100048EA
  100048D3: 3C 5C              cmp         al,5Ch
  100048D5: 74 13              je          100048EA
  100048D7: 3C 3A              cmp         al,3Ah
  100048D9: 74 0F              je          100048EA
  100048DB: 51                 push        ecx
  100048DC: 57                 push        edi
  100048DD: E8 2E 2B 00 00     call        10007410
  100048E2: 59                 pop         ecx
  100048E3: 59                 pop         ecx
  100048E4: 8B C8              mov         ecx,eax
  100048E6: 3B CF              cmp         ecx,edi
  100048E8: 75 E3              jne         100048CD
  100048EA: 8B 95 A4 FD FF FF  mov         edx,dword ptr [ebp+FFFFFDA4h]
  100048F0: 8A 01              mov         al,byte ptr [ecx]
  100048F2: 88 85 AB FD FF FF  mov         byte ptr [ebp+FFFFFDABh],al
  100048F8: 3C 3A              cmp         al,3Ah
  100048FA: 75 20              jne         1000491C
  100048FC: 8D 47 01           lea         eax,[edi+1]
  100048FF: 3B C8              cmp         ecx,eax
  10004901: 74 13              je          10004916
  10004903: 52                 push        edx
  10004904: 33 DB              xor         ebx,ebx
  10004906: 53                 push        ebx
  10004907: 53                 push        ebx
  10004908: 57                 push        edi
  10004909: E8 E4 FE FF FF     call        100047F2
  1000490E: 83 C4 10           add         esp,10h
  10004911: E9 D6 01 00 00     jmp         10004AEC
  10004916: 8A 85 AB FD FF FF  mov         al,byte ptr [ebp+FFFFFDABh]
  1000491C: 33 DB              xor         ebx,ebx
  1000491E: 3C 2F              cmp         al,2Fh
  10004920: 74 0A              je          1000492C
  10004922: 3C 5C              cmp         al,5Ch
  10004924: 74 06              je          1000492C
  10004926: 3C 3A              cmp         al,3Ah
  10004928: 8A C3              mov         al,bl
  1000492A: 75 02              jne         1000492E
  1000492C: B0 01              mov         al,1
  1000492E: 2B CF              sub         ecx,edi
  10004930: 0F B6 C0           movzx       eax,al
  10004933: 41                 inc         ecx
  10004934: 89 9D 68 FD FF FF  mov         dword ptr [ebp+FFFFFD68h],ebx
  1000493A: F7 D8              neg         eax
  1000493C: 89 9D 6C FD FF FF  mov         dword ptr [ebp+FFFFFD6Ch],ebx
  10004942: 56                 push        esi
  10004943: 1B C0              sbb         eax,eax
  10004945: 89 9D 70 FD FF FF  mov         dword ptr [ebp+FFFFFD70h],ebx
  1000494B: 23 C1              and         eax,ecx
  1000494D: 89 9D 74 FD FF FF  mov         dword ptr [ebp+FFFFFD74h],ebx
  10004953: 89 85 88 FD FF FF  mov         dword ptr [ebp+FFFFFD88h],eax
  10004959: 89 9D 78 FD FF FF  mov         dword ptr [ebp+FFFFFD78h],ebx
  1000495F: 88 9D 7C FD FF FF  mov         byte ptr [ebp+FFFFFD7Ch],bl
  10004965: E8 90 01 00 00     call        10004AFA
  1000496A: 50                 push        eax
  1000496B: 8D 85 68 FD FF FF  lea         eax,[ebp+FFFFFD68h]
  10004971: 50                 push        eax
  10004972: 57                 push        edi
  10004973: E8 6E FC FF FF     call        100045E6
  10004978: 83 C4 0C           add         esp,0Ch
  1000497B: 8D 8D AC FD FF FF  lea         ecx,[ebp+FFFFFDACh]
  10004981: F7 D8              neg         eax
  10004983: 1B C0              sbb         eax,eax
  10004985: 53                 push        ebx
  10004986: 53                 push        ebx
  10004987: 53                 push        ebx
  10004988: 51                 push        ecx
  10004989: F7 D0              not         eax
  1000498B: 23 85 70 FD FF FF  and         eax,dword ptr [ebp+FFFFFD70h]
  10004991: 53                 push        ebx
  10004992: 50                 push        eax
  10004993: FF 15 90 B0 00 10  call        dword ptr ds:[1000B090h]
  10004999: 8B F0              mov         esi,eax
  1000499B: 83 FE FF           cmp         esi,0FFFFFFFFh
  1000499E: 75 18              jne         100049B8
  100049A0: FF B5 A4 FD FF FF  push        dword ptr [ebp+FFFFFDA4h]
  100049A6: 53                 push        ebx
  100049A7: 53                 push        ebx
  100049A8: 57                 push        edi
  100049A9: E8 44 FE FF FF     call        100047F2
  100049AE: 83 C4 10           add         esp,10h
  100049B1: 8B D8              mov         ebx,eax
  100049B3: E9 1C 01 00 00     jmp         10004AD4
  100049B8: 8B 85 A4 FD FF FF  mov         eax,dword ptr [ebp+FFFFFDA4h]
  100049BE: 8B 48 04           mov         ecx,dword ptr [eax+4]
  100049C1: 2B 08              sub         ecx,dword ptr [eax]
  100049C3: C1 F9 02           sar         ecx,2
  100049C6: 89 8D 84 FD FF FF  mov         dword ptr [ebp+FFFFFD84h],ecx
  100049CC: 89 9D 8C FD FF FF  mov         dword ptr [ebp+FFFFFD8Ch],ebx
  100049D2: 89 9D 90 FD FF FF  mov         dword ptr [ebp+FFFFFD90h],ebx
  100049D8: 89 9D 94 FD FF FF  mov         dword ptr [ebp+FFFFFD94h],ebx
  100049DE: 89 9D 98 FD FF FF  mov         dword ptr [ebp+FFFFFD98h],ebx
  100049E4: 89 9D 9C FD FF FF  mov         dword ptr [ebp+FFFFFD9Ch],ebx
  100049EA: 88 9D A0 FD FF FF  mov         byte ptr [ebp+FFFFFDA0h],bl
  100049F0: E8 05 01 00 00     call        10004AFA
  100049F5: 50                 push        eax
  100049F6: 8D 85 AB FD FF FF  lea         eax,[ebp+FFFFFDABh]
  100049FC: 50                 push        eax
  100049FD: 8D 85 8C FD FF FF  lea         eax,[ebp+FFFFFD8Ch]
  10004A03: 50                 push        eax
  10004A04: 8D 85 D8 FD FF FF  lea         eax,[ebp+FFFFFDD8h]
  10004A0A: 50                 push        eax
  10004A0B: E8 07 FB FF FF     call        10004517
  10004A10: 83 C4 10           add         esp,10h
  10004A13: F7 D8              neg         eax
  10004A15: 1B C0              sbb         eax,eax
  10004A17: F7 D0              not         eax
  10004A19: 23 85 94 FD FF FF  and         eax,dword ptr [ebp+FFFFFD94h]
  10004A1F: 80 38 2E           cmp         byte ptr [eax],2Eh
  10004A22: 75 11              jne         10004A35
  10004A24: 8A 48 01           mov         cl,byte ptr [eax+1]
  10004A27: 84 C9              test        cl,cl
  10004A29: 74 2A              je          10004A55
  10004A2B: 80 F9 2E           cmp         cl,2Eh
  10004A2E: 75 05              jne         10004A35
  10004A30: 38 58 02           cmp         byte ptr [eax+2],bl
  10004A33: 74 20              je          10004A55
  10004A35: FF B5 A4 FD FF FF  push        dword ptr [ebp+FFFFFDA4h]
  10004A3B: FF B5 88 FD FF FF  push        dword ptr [ebp+FFFFFD88h]
  10004A41: 57                 push        edi
  10004A42: 50                 push        eax
  10004A43: E8 AA FD FF FF     call        100047F2
  10004A48: 83 C4 10           add         esp,10h
  10004A4B: 89 85 80 FD FF FF  mov         dword ptr [ebp+FFFFFD80h],eax
  10004A51: 85 C0              test        eax,eax
  10004A53: 75 5C              jne         10004AB1
  10004A55: 38 9D A0 FD FF FF  cmp         byte ptr [ebp+FFFFFDA0h],bl
  10004A5B: 74 0C              je          10004A69
  10004A5D: FF B5 94 FD FF FF  push        dword ptr [ebp+FFFFFD94h]
  10004A63: E8 AB F9 FF FF     call        10004413
  10004A68: 59                 pop         ecx
  10004A69: 8D 85 AC FD FF FF  lea         eax,[ebp+FFFFFDACh]
  10004A6F: 50                 push        eax
  10004A70: 56                 push        esi
  10004A71: FF 15 94 B0 00 10  call        dword ptr ds:[1000B094h]
  10004A77: 85 C0              test        eax,eax
  10004A79: 0F 85 4D FF FF FF  jne         100049CC
  10004A7F: 8B 85 A4 FD FF FF  mov         eax,dword ptr [ebp+FFFFFDA4h]
  10004A85: 8B 8D 84 FD FF FF  mov         ecx,dword ptr [ebp+FFFFFD84h]
  10004A8B: 8B 10              mov         edx,dword ptr [eax]
  10004A8D: 8B 40 04           mov         eax,dword ptr [eax+4]
  10004A90: 2B C2              sub         eax,edx
  10004A92: C1 F8 02           sar         eax,2
  10004A95: 3B C8              cmp         ecx,eax
  10004A97: 74 34              je          10004ACD
  10004A99: 68 4D 44 00 10     push        1000444Dh
  10004A9E: 2B C1              sub         eax,ecx
  10004AA0: 6A 04              push        4
  10004AA2: 50                 push        eax
  10004AA3: 8D 04 8A           lea         eax,[edx+ecx*4]
  10004AA6: 50                 push        eax
  10004AA7: E8 74 23 00 00     call        10006E20
  10004AAC: 83 C4 10           add         esp,10h
  10004AAF: EB 1C              jmp         10004ACD
  10004AB1: 38 9D A0 FD FF FF  cmp         byte ptr [ebp+FFFFFDA0h],bl
  10004AB7: 74 12              je          10004ACB
  10004AB9: FF B5 94 FD FF FF  push        dword ptr [ebp+FFFFFD94h]
  10004ABF: E8 4F F9 FF FF     call        10004413
  10004AC4: 8B 85 80 FD FF FF  mov         eax,dword ptr [ebp+FFFFFD80h]
  10004ACA: 59                 pop         ecx
  10004ACB: 8B D8              mov         ebx,eax
  10004ACD: 56                 push        esi
  10004ACE: FF 15 8C B0 00 10  call        dword ptr ds:[1000B08Ch]
  10004AD4: 80 BD 7C FD FF FF  cmp         byte ptr [ebp+FFFFFD7Ch],0
            00
  10004ADB: 5E                 pop         esi
  10004ADC: 74 0C              je          10004AEA
  10004ADE: FF B5 70 FD FF FF  push        dword ptr [ebp+FFFFFD70h]
  10004AE4: E8 2A F9 FF FF     call        10004413
  10004AE9: 59                 pop         ecx
  10004AEA: 8B C3              mov         eax,ebx
  10004AEC: 8B 4D FC           mov         ecx,dword ptr [ebp-4]
  10004AEF: 5F                 pop         edi
  10004AF0: 33 CD              xor         ecx,ebp
  10004AF2: 5B                 pop         ebx
  10004AF3: E8 E4 CF FF FF     call        10001ADC
  10004AF8: C9                 leave
  10004AF9: C3                 ret
  10004AFA: 8B FF              mov         edi,edi
  10004AFC: 55                 push        ebp
  10004AFD: 8B EC              mov         ebp,esp
  10004AFF: 83 EC 10           sub         esp,10h
  10004B02: 6A 00              push        0
  10004B04: 8D 4D F0           lea         ecx,[ebp-10h]
  10004B07: E8 35 EE FF FF     call        10003941
  10004B0C: 8B 45 F4           mov         eax,dword ptr [ebp-0Ch]
  10004B0F: BA E9 FD 00 00     mov         edx,0FDE9h
  10004B14: 39 50 08           cmp         dword ptr [eax+8],edx
  10004B17: 74 0C              je          10004B25
  10004B19: E8 A6 0F 00 00     call        10005AC4
  10004B1E: 33 D2              xor         edx,edx
  10004B20: 85 C0              test        eax,eax
  10004B22: 75 01              jne         10004B25
  10004B24: 42                 inc         edx
  10004B25: 80 7D FC 00        cmp         byte ptr [ebp-4],0
  10004B29: 74 0A              je          10004B35
  10004B2B: 8B 4D F0           mov         ecx,dword ptr [ebp-10h]
  10004B2E: 83 A1 50 03 00 00  and         dword ptr [ecx+00000350h],0FFFFFFFDh
            FD
  10004B35: 8B C2              mov         eax,edx
  10004B37: C9                 leave
  10004B38: C3                 ret
  10004B39: 8B FF              mov         edi,edi
  10004B3B: 56                 push        esi
  10004B3C: 8B F1              mov         esi,ecx
  10004B3E: 80 7E 14 00        cmp         byte ptr [esi+14h],0
  10004B42: 74 0D              je          10004B51
  10004B44: FF 76 08           push        dword ptr [esi+8]
  10004B47: E8 C7 F8 FF FF     call        10004413
  10004B4C: 59                 pop         ecx
  10004B4D: C6 46 14 00        mov         byte ptr [esi+14h],0
  10004B51: 5E                 pop         esi
  10004B52: C3                 ret
  10004B53: 8B FF              mov         edi,edi
  10004B55: 55                 push        ebp
  10004B56: 8B EC              mov         ebp,esp
  10004B58: 56                 push        esi
  10004B59: 57                 push        edi
  10004B5A: 8B F1              mov         esi,ecx
  10004B5C: E8 D8 FF FF FF     call        10004B39
  10004B61: 8B 7D 08           mov         edi,dword ptr [ebp+8]
  10004B64: 8D 46 08           lea         eax,[esi+8]
  10004B67: 56                 push        esi
  10004B68: 57                 push        edi
  10004B69: 50                 push        eax
  10004B6A: E8 5F 00 00 00     call        10004BCE
  10004B6F: 83 C4 0C           add         esp,0Ch
  10004B72: 85 C0              test        eax,eax
  10004B74: 74 0A              je          10004B80
  10004B76: 83 66 0C 00        and         dword ptr [esi+0Ch],0
  10004B7A: C6 46 14 00        mov         byte ptr [esi+14h],0
  10004B7E: EB 09              jmp         10004B89
  10004B80: C6 46 14 01        mov         byte ptr [esi+14h],1
  10004B84: 33 C0              xor         eax,eax
  10004B86: 89 7E 0C           mov         dword ptr [esi+0Ch],edi
  10004B89: 5F                 pop         edi
  10004B8A: 5E                 pop         esi
  10004B8B: 5D                 pop         ebp
  10004B8C: C2 04 00           ret         4
  10004B8F: 8B FF              mov         edi,edi
  10004B91: 55                 push        ebp
  10004B92: 8B EC              mov         ebp,esp
  10004B94: 56                 push        esi
  10004B95: 57                 push        edi
  10004B96: 8B F1              mov         esi,ecx
  10004B98: E8 9C FF FF FF     call        10004B39
  10004B9D: 8B 7D 08           mov         edi,dword ptr [ebp+8]
  10004BA0: 56                 push        esi
  10004BA1: 8D 04 3F           lea         eax,[edi+edi]
  10004BA4: 50                 push        eax
  10004BA5: 8D 46 08           lea         eax,[esi+8]
  10004BA8: 50                 push        eax
  10004BA9: E8 20 00 00 00     call        10004BCE
  10004BAE: 83 C4 0C           add         esp,0Ch
  10004BB1: 85 C0              test        eax,eax
  10004BB3: 74 0A              je          10004BBF
  10004BB5: 83 66 0C 00        and         dword ptr [esi+0Ch],0
  10004BB9: C6 46 14 00        mov         byte ptr [esi+14h],0
  10004BBD: EB 09              jmp         10004BC8
  10004BBF: C6 46 14 01        mov         byte ptr [esi+14h],1
  10004BC3: 33 C0              xor         eax,eax
  10004BC5: 89 7E 0C           mov         dword ptr [esi+0Ch],edi
  10004BC8: 5F                 pop         edi
  10004BC9: 5E                 pop         esi
  10004BCA: 5D                 pop         ebp
  10004BCB: C2 04 00           ret         4
  10004BCE: 8B FF              mov         edi,edi
  10004BD0: 55                 push        ebp
  10004BD1: 8B EC              mov         ebp,esp
  10004BD3: FF 75 0C           push        dword ptr [ebp+0Ch]
  10004BD6: E8 B1 1B 00 00     call        1000678C
  10004BDB: 59                 pop         ecx
  10004BDC: 8B 4D 08           mov         ecx,dword ptr [ebp+8]
  10004BDF: 89 01              mov         dword ptr [ecx],eax
  10004BE1: F7 D8              neg         eax
  10004BE3: 1B C0              sbb         eax,eax
  10004BE5: 83 E0 F4           and         eax,0FFFFFFF4h
  10004BE8: 83 C0 0C           add         eax,0Ch
  10004BEB: 5D                 pop         ebp
  10004BEC: C3                 ret
  10004BED: 8B FF              mov         edi,edi
  10004BEF: 56                 push        esi
  10004BF0: 8B F1              mov         esi,ecx
  10004BF2: 57                 push        edi
  10004BF3: 8B 7E 08           mov         edi,dword ptr [esi+8]
  10004BF6: 39 7E 04           cmp         dword ptr [esi+4],edi
  10004BF9: 74 04              je          10004BFF
  10004BFB: 33 C0              xor         eax,eax
  10004BFD: EB 72              jmp         10004C71
  10004BFF: 83 3E 00           cmp         dword ptr [esi],0
  10004C02: 75 26              jne         10004C2A
  10004C04: 6A 04              push        4
  10004C06: 6A 04              push        4
  10004C08: E8 A9 F7 FF FF     call        100043B6
  10004C0D: 6A 00              push        0
  10004C0F: 89 06              mov         dword ptr [esi],eax
  10004C11: E8 FD F7 FF FF     call        10004413
  10004C16: 8B 06              mov         eax,dword ptr [esi]
  10004C18: 83 C4 0C           add         esp,0Ch
  10004C1B: 85 C0              test        eax,eax
  10004C1D: 74 18              je          10004C37
  10004C1F: 89 46 04           mov         dword ptr [esi+4],eax
  10004C22: 83 C0 10           add         eax,10h
  10004C25: 89 46 08           mov         dword ptr [esi+8],eax
  10004C28: EB D1              jmp         10004BFB
  10004C2A: 2B 3E              sub         edi,dword ptr [esi]
  10004C2C: C1 FF 02           sar         edi,2
  10004C2F: 81 FF FF FF FF 7F  cmp         edi,7FFFFFFFh
  10004C35: 76 05              jbe         10004C3C
  10004C37: 6A 0C              push        0Ch
  10004C39: 58                 pop         eax
  10004C3A: EB 35              jmp         10004C71
  10004C3C: 53                 push        ebx
  10004C3D: 6A 04              push        4
  10004C3F: 8D 1C 3F           lea         ebx,[edi+edi]
  10004C42: 53                 push        ebx
  10004C43: FF 36              push        dword ptr [esi]
  10004C45: E8 35 0C 00 00     call        1000587F
  10004C4A: 83 C4 0C           add         esp,0Ch
  10004C4D: 85 C0              test        eax,eax
  10004C4F: 75 05              jne         10004C56
  10004C51: 6A 0C              push        0Ch
  10004C53: 5E                 pop         esi
  10004C54: EB 10              jmp         10004C66
  10004C56: 89 06              mov         dword ptr [esi],eax
  10004C58: 8D 0C B8           lea         ecx,[eax+edi*4]
  10004C5B: 8D 04 98           lea         eax,[eax+ebx*4]
  10004C5E: 89 4E 04           mov         dword ptr [esi+4],ecx
  10004C61: 89 46 08           mov         dword ptr [esi+8],eax
  10004C64: 33 F6              xor         esi,esi
  10004C66: 6A 00              push        0
  10004C68: E8 A6 F7 FF FF     call        10004413
  10004C6D: 59                 pop         ecx
  10004C6E: 8B C6              mov         eax,esi
  10004C70: 5B                 pop         ebx
  10004C71: 5F                 pop         edi
  10004C72: 5E                 pop         esi
  10004C73: C3                 ret
  10004C74: 8B FF              mov         edi,edi
  10004C76: 55                 push        ebp
  10004C77: 8B EC              mov         ebp,esp
  10004C79: 5D                 pop         ebp
  10004C7A: E9 84 F9 FF FF     jmp         10004603
  10004C7F: 8B FF              mov         edi,edi
  10004C81: 55                 push        ebp
  10004C82: 8B EC              mov         ebp,esp
  10004C84: 56                 push        esi
  10004C85: 8B 75 08           mov         esi,dword ptr [ebp+8]
  10004C88: 85 F6              test        esi,esi
  10004C8A: 75 0F              jne         10004C9B
  10004C8C: 8B 4D 0C           mov         ecx,dword ptr [ebp+0Ch]
  10004C8F: E8 D9 00 00 00     call        10004D6D
  10004C94: 33 C0              xor         eax,eax
  10004C96: E9 A8 00 00 00     jmp         10004D43
  10004C9B: 53                 push        ebx
  10004C9C: 33 DB              xor         ebx,ebx
  10004C9E: 66 39 1E           cmp         word ptr [esi],bx
  10004CA1: 75 25              jne         10004CC8
  10004CA3: 8B 75 0C           mov         esi,dword ptr [ebp+0Ch]
  10004CA6: 39 5E 0C           cmp         dword ptr [esi+0Ch],ebx
  10004CA9: 75 11              jne         10004CBC
  10004CAB: 6A 01              push        1
  10004CAD: 8B CE              mov         ecx,esi
  10004CAF: E8 92 00 00 00     call        10004D46
  10004CB4: 85 C0              test        eax,eax
  10004CB6: 0F 85 86 00 00 00  jne         10004D42
  10004CBC: 8B 46 08           mov         eax,dword ptr [esi+8]
  10004CBF: 88 18              mov         byte ptr [eax],bl
  10004CC1: 33 C0              xor         eax,eax
  10004CC3: 89 5E 10           mov         dword ptr [esi+10h],ebx
  10004CC6: EB 7A              jmp         10004D42
  10004CC8: 53                 push        ebx
  10004CC9: 53                 push        ebx
  10004CCA: 53                 push        ebx
  10004CCB: 53                 push        ebx
  10004CCC: 6A FF              push        0FFFFFFFFh
  10004CCE: 56                 push        esi
  10004CCF: 53                 push        ebx
  10004CD0: FF 75 14           push        dword ptr [ebp+14h]
  10004CD3: E8 35 0A 00 00     call        1000570D
  10004CD8: 83 C4 20           add         esp,20h
  10004CDB: 85 C0              test        eax,eax
  10004CDD: 75 16              jne         10004CF5
  10004CDF: FF 15 40 B0 00 10  call        dword ptr ds:[1000B040h]
  10004CE5: 50                 push        eax
  10004CE6: E8 82 F6 FF FF     call        1000436D
  10004CEB: 59                 pop         ecx
  10004CEC: E8 B2 F6 FF FF     call        100043A3
  10004CF1: 8B 00              mov         eax,dword ptr [eax]
  10004CF3: EB 4D              jmp         10004D42
  10004CF5: 57                 push        edi
  10004CF6: 8B 7D 0C           mov         edi,dword ptr [ebp+0Ch]
  10004CF9: 3B 47 0C           cmp         eax,dword ptr [edi+0Ch]
  10004CFC: 76 0C              jbe         10004D0A
  10004CFE: 50                 push        eax
  10004CFF: 8B CF              mov         ecx,edi
  10004D01: E8 40 00 00 00     call        10004D46
  10004D06: 85 C0              test        eax,eax
  10004D08: 75 37              jne         10004D41
  10004D0A: 53                 push        ebx
  10004D0B: 53                 push        ebx
  10004D0C: FF 77 0C           push        dword ptr [edi+0Ch]
  10004D0F: FF 77 08           push        dword ptr [edi+8]
  10004D12: 6A FF              push        0FFFFFFFFh
  10004D14: 56                 push        esi
  10004D15: 53                 push        ebx
  10004D16: FF 75 14           push        dword ptr [ebp+14h]
  10004D19: E8 EF 09 00 00     call        1000570D
  10004D1E: 83 C4 20           add         esp,20h
  10004D21: 85 C0              test        eax,eax
  10004D23: 75 16              jne         10004D3B
  10004D25: FF 15 40 B0 00 10  call        dword ptr ds:[1000B040h]
  10004D2B: 50                 push        eax
  10004D2C: E8 3C F6 FF FF     call        1000436D
  10004D31: 59                 pop         ecx
  10004D32: E8 6C F6 FF FF     call        100043A3
  10004D37: 8B 00              mov         eax,dword ptr [eax]
  10004D39: EB 06              jmp         10004D41
  10004D3B: 48                 dec         eax
  10004D3C: 89 47 10           mov         dword ptr [edi+10h],eax
  10004D3F: 33 C0              xor         eax,eax
  10004D41: 5F                 pop         edi
  10004D42: 5B                 pop         ebx
  10004D43: 5E                 pop         esi
  10004D44: 5D                 pop         ebp
  10004D45: C3                 ret
  10004D46: 8B FF              mov         edi,edi
  10004D48: 56                 push        esi
  10004D49: 8B F1              mov         esi,ecx
  10004D4B: 80 7E 14 00        cmp         byte ptr [esi+14h],0
  10004D4F: 74 04              je          10004D55
  10004D51: C6 46 14 00        mov         byte ptr [esi+14h],0
  10004D55: E8 49 F6 FF FF     call        100043A3
  10004D5A: 6A 22              push        22h
  10004D5C: 59                 pop         ecx
  10004D5D: 89 08              mov         dword ptr [eax],ecx
  10004D5F: 8B C1              mov         eax,ecx
  10004D61: 83 66 0C 00        and         dword ptr [esi+0Ch],0
  10004D65: C6 46 14 00        mov         byte ptr [esi+14h],0
  10004D69: 5E                 pop         esi
  10004D6A: C2 04 00           ret         4
  10004D6D: 33 C0              xor         eax,eax
  10004D6F: 38 41 14           cmp         byte ptr [ecx+14h],al
  10004D72: 74 03              je          10004D77
  10004D74: 88 41 14           mov         byte ptr [ecx+14h],al
  10004D77: 89 41 08           mov         dword ptr [ecx+8],eax
  10004D7A: 89 41 0C           mov         dword ptr [ecx+0Ch],eax
  10004D7D: 89 41 10           mov         dword ptr [ecx+10h],eax
  10004D80: C3                 ret
  10004D81: 8B FF              mov         edi,edi
  10004D83: 55                 push        ebp
  10004D84: 8B EC              mov         ebp,esp
  10004D86: 81 EC 2C 02 00 00  sub         esp,22Ch
  10004D8C: A1 10 10 01 10     mov         eax,dword ptr ds:[10011010h]
  10004D91: 33 C5              xor         eax,ebp
  10004D93: 89 45 FC           mov         dword ptr [ebp-4],eax
  10004D96: 8B 45 08           mov         eax,dword ptr [ebp+8]
  10004D99: 8D 8D F0 FD FF FF  lea         ecx,[ebp+FFFFFDF0h]
  10004D9F: 68 05 01 00 00     push        105h
  10004DA4: 51                 push        ecx
  10004DA5: 50                 push        eax
  10004DA6: FF 15 80 B0 00 10  call        dword ptr ds:[1000B080h]
  10004DAC: 85 C0              test        eax,eax
  10004DAE: 75 11              jne         10004DC1
  10004DB0: FF 15 40 B0 00 10  call        dword ptr ds:[1000B040h]
  10004DB6: 50                 push        eax
  10004DB7: E8 B1 F5 FF FF     call        1000436D
  10004DBC: 59                 pop         ecx
  10004DBD: 33 C0              xor         eax,eax
  10004DBF: EB 55              jmp         10004E16
  10004DC1: 8B 4D 0C           mov         ecx,dword ptr [ebp+0Ch]
  10004DC4: 8B 45 10           mov         eax,dword ptr [ebp+10h]
  10004DC7: 83 A5 E4 FD FF FF  and         dword ptr [ebp+FFFFFDE4h],0
            00
  10004DCE: 89 8D D4 FD FF FF  mov         dword ptr [ebp+FFFFFDD4h],ecx
  10004DD4: 89 85 D8 FD FF FF  mov         dword ptr [ebp+FFFFFDD8h],eax
  10004DDA: 89 8D DC FD FF FF  mov         dword ptr [ebp+FFFFFDDCh],ecx
  10004DE0: 89 85 E0 FD FF FF  mov         dword ptr [ebp+FFFFFDE0h],eax
  10004DE6: C6 85 E8 FD FF FF  mov         byte ptr [ebp+FFFFFDE8h],0
            00
  10004DED: E8 08 FD FF FF     call        10004AFA
  10004DF2: 50                 push        eax
  10004DF3: 8D 85 EF FD FF FF  lea         eax,[ebp+FFFFFDEFh]
  10004DF9: 50                 push        eax
  10004DFA: 8D 85 D4 FD FF FF  lea         eax,[ebp+FFFFFDD4h]
  10004E00: 50                 push        eax
  10004E01: 8D 85 F0 FD FF FF  lea         eax,[ebp+FFFFFDF0h]
  10004E07: 50                 push        eax
  10004E08: E8 72 FE FF FF     call        10004C7F
  10004E0D: 8B 85 E4 FD FF FF  mov         eax,dword ptr [ebp+FFFFFDE4h]
  10004E13: 83 C4 10           add         esp,10h
  10004E16: 8B 4D FC           mov         ecx,dword ptr [ebp-4]
  10004E19: 33 CD              xor         ecx,ebp
  10004E1B: E8 BC CC FF FF     call        10001ADC
  10004E20: C9                 leave
  10004E21: C3                 ret
  10004E22: 6A 08              push        8
  10004E24: 68 C0 01 01 10     push        100101C0h
  10004E29: E8 82 CA FF FF     call        100018B0
  10004E2E: 8B 45 08           mov         eax,dword ptr [ebp+8]
  10004E31: FF 30              push        dword ptr [eax]
  10004E33: E8 72 F2 FF FF     call        100040AA
  10004E38: 59                 pop         ecx
  10004E39: 83 65 FC 00        and         dword ptr [ebp-4],0
  10004E3D: 8B 4D 0C           mov         ecx,dword ptr [ebp+0Ch]
  10004E40: E8 2A 00 00 00     call        10004E6F
  10004E45: C7 45 FC FE FF FF  mov         dword ptr [ebp-4],0FFFFFFFEh
            FF
  10004E4C: E8 12 00 00 00     call        10004E63
  10004E51: 8B 4D F0           mov         ecx,dword ptr [ebp-10h]
  10004E54: 64 89 0D 00 00 00  mov         dword ptr fs:[00000000h],ecx
            00
  10004E5B: 59                 pop         ecx
  10004E5C: 5F                 pop         edi
  10004E5D: 5E                 pop         esi
  10004E5E: 5B                 pop         ebx
  10004E5F: C9                 leave
  10004E60: C2 0C 00           ret         0Ch
  10004E63: 8B 45 10           mov         eax,dword ptr [ebp+10h]
  10004E66: FF 30              push        dword ptr [eax]
  10004E68: E8 85 F2 FF FF     call        100040F2
  10004E6D: 59                 pop         ecx
  10004E6E: C3                 ret
  10004E6F: 8B FF              mov         edi,edi
  10004E71: 56                 push        esi
  10004E72: 8B F1              mov         esi,ecx
  10004E74: B9 01 01 00 00     mov         ecx,101h
  10004E79: 51                 push        ecx
  10004E7A: 8B 06              mov         eax,dword ptr [esi]
  10004E7C: 8B 00              mov         eax,dword ptr [eax]
  10004E7E: 8B 40 48           mov         eax,dword ptr [eax+48h]
  10004E81: 83 C0 18           add         eax,18h
  10004E84: 50                 push        eax
  10004E85: 51                 push        ecx
  10004E86: FF 35 18 1F 01 10  push        dword ptr ds:[10011F18h]
  10004E8C: E8 F7 06 00 00     call        10005588
  10004E91: 8B 06              mov         eax,dword ptr [esi]
  10004E93: B9 00 01 00 00     mov         ecx,100h
  10004E98: 51                 push        ecx
  10004E99: 8B 00              mov         eax,dword ptr [eax]
  10004E9B: 8B 40 48           mov         eax,dword ptr [eax+48h]
  10004E9E: 05 19 01 00 00     add         eax,119h
  10004EA3: 50                 push        eax
  10004EA4: 51                 push        ecx
  10004EA5: FF 35 1C 1F 01 10  push        dword ptr ds:[10011F1Ch]
  10004EAB: E8 D8 06 00 00     call        10005588
  10004EB0: 8B 46 04           mov         eax,dword ptr [esi+4]
  10004EB3: 83 C4 20           add         esp,20h
  10004EB6: 83 C9 FF           or          ecx,0FFFFFFFFh
  10004EB9: 8B 00              mov         eax,dword ptr [eax]
  10004EBB: 8B 00              mov         eax,dword ptr [eax]
  10004EBD: F0 0F C1 08        lock xadd   dword ptr [eax],ecx
  10004EC1: 75 15              jne         10004ED8
  10004EC3: 8B 46 04           mov         eax,dword ptr [esi+4]
  10004EC6: 8B 00              mov         eax,dword ptr [eax]
  10004EC8: 81 38 60 10 01 10  cmp         dword ptr [eax],10011060h
  10004ECE: 74 08              je          10004ED8
  10004ED0: FF 30              push        dword ptr [eax]
  10004ED2: E8 3C F5 FF FF     call        10004413
  10004ED7: 59                 pop         ecx
  10004ED8: 8B 06              mov         eax,dword ptr [esi]
  10004EDA: 8B 10              mov         edx,dword ptr [eax]
  10004EDC: 8B 46 04           mov         eax,dword ptr [esi+4]
  10004EDF: 8B 08              mov         ecx,dword ptr [eax]
  10004EE1: 8B 42 48           mov         eax,dword ptr [edx+48h]
  10004EE4: 89 01              mov         dword ptr [ecx],eax
  10004EE6: 8B 06              mov         eax,dword ptr [esi]
  10004EE8: 8B 00              mov         eax,dword ptr [eax]
  10004EEA: 8B 40 48           mov         eax,dword ptr [eax+48h]
  10004EED: F0 FF 00           lock inc    dword ptr [eax]
  10004EF0: 5E                 pop         esi
  10004EF1: C3                 ret
  10004EF2: 8B FF              mov         edi,edi
  10004EF4: 55                 push        ebp
  10004EF5: 8B EC              mov         ebp,esp
  10004EF7: 8B 45 08           mov         eax,dword ptr [ebp+8]
  10004EFA: 2D A4 03 00 00     sub         eax,3A4h
  10004EFF: 74 28              je          10004F29
  10004F01: 83 E8 04           sub         eax,4
  10004F04: 74 1C              je          10004F22
  10004F06: 83 E8 0D           sub         eax,0Dh
  10004F09: 74 10              je          10004F1B
  10004F0B: 83 E8 01           sub         eax,1
  10004F0E: 74 04              je          10004F14
  10004F10: 33 C0              xor         eax,eax
  10004F12: 5D                 pop         ebp
  10004F13: C3                 ret
  10004F14: A1 EC BE 00 10     mov         eax,dword ptr ds:[1000BEECh]
  10004F19: 5D                 pop         ebp
  10004F1A: C3                 ret
  10004F1B: A1 E8 BE 00 10     mov         eax,dword ptr ds:[1000BEE8h]
  10004F20: 5D                 pop         ebp
  10004F21: C3                 ret
  10004F22: A1 E4 BE 00 10     mov         eax,dword ptr ds:[1000BEE4h]
  10004F27: 5D                 pop         ebp
  10004F28: C3                 ret
  10004F29: A1 E0 BE 00 10     mov         eax,dword ptr ds:[1000BEE0h]
  10004F2E: 5D                 pop         ebp
  10004F2F: C3                 ret
  10004F30: 8B FF              mov         edi,edi
  10004F32: 55                 push        ebp
  10004F33: 8B EC              mov         ebp,esp
  10004F35: 83 EC 10           sub         esp,10h
  10004F38: 8D 4D F0           lea         ecx,[ebp-10h]
  10004F3B: 6A 00              push        0
  10004F3D: E8 FF E9 FF FF     call        10003941
  10004F42: 83 25 24 1F 01 10  and         dword ptr ds:[10011F24h],0
            00
  10004F49: 8B 45 08           mov         eax,dword ptr [ebp+8]
  10004F4C: 83 F8 FE           cmp         eax,0FFFFFFFEh
  10004F4F: 75 12              jne         10004F63
  10004F51: C7 05 24 1F 01 10  mov         dword ptr ds:[10011F24h],1
            01 00 00 00
  10004F5B: FF 15 A0 B0 00 10  call        dword ptr ds:[1000B0A0h]
  10004F61: EB 2C              jmp         10004F8F
  10004F63: 83 F8 FD           cmp         eax,0FFFFFFFDh
  10004F66: 75 12              jne         10004F7A
  10004F68: C7 05 24 1F 01 10  mov         dword ptr ds:[10011F24h],1
            01 00 00 00
  10004F72: FF 15 9C B0 00 10  call        dword ptr ds:[1000B09Ch]
  10004F78: EB 15              jmp         10004F8F
  10004F7A: 83 F8 FC           cmp         eax,0FFFFFFFCh
  10004F7D: 75 10              jne         10004F8F
  10004F7F: 8B 45 F4           mov         eax,dword ptr [ebp-0Ch]
  10004F82: C7 05 24 1F 01 10  mov         dword ptr ds:[10011F24h],1
            01 00 00 00
  10004F8C: 8B 40 08           mov         eax,dword ptr [eax+8]
  10004F8F: 80 7D FC 00        cmp         byte ptr [ebp-4],0
  10004F93: 74 0A              je          10004F9F
  10004F95: 8B 4D F0           mov         ecx,dword ptr [ebp-10h]
  10004F98: 83 A1 50 03 00 00  and         dword ptr [ecx+00000350h],0FFFFFFFDh
            FD
  10004F9F: C9                 leave
  10004FA0: C3                 ret
  10004FA1: 8B FF              mov         edi,edi
  10004FA3: 55                 push        ebp
  10004FA4: 8B EC              mov         ebp,esp
  10004FA6: 53                 push        ebx
  10004FA7: 8B 5D 08           mov         ebx,dword ptr [ebp+8]
  10004FAA: 56                 push        esi
  10004FAB: 57                 push        edi
  10004FAC: 68 01 01 00 00     push        101h
  10004FB1: 33 FF              xor         edi,edi
  10004FB3: 8D 73 18           lea         esi,[ebx+18h]
  10004FB6: 57                 push        edi
  10004FB7: 56                 push        esi
  10004FB8: E8 73 CF FF FF     call        10001F30
  10004FBD: 89 7B 04           mov         dword ptr [ebx+4],edi
  10004FC0: 33 C0              xor         eax,eax
  10004FC2: 89 7B 08           mov         dword ptr [ebx+8],edi
  10004FC5: 83 C4 0C           add         esp,0Ch
  10004FC8: 89 BB 1C 02 00 00  mov         dword ptr [ebx+0000021Ch],edi
  10004FCE: B9 01 01 00 00     mov         ecx,101h
  10004FD3: 8D 7B 0C           lea         edi,[ebx+0Ch]
  10004FD6: AB                 stos        dword ptr es:[edi]
  10004FD7: AB                 stos        dword ptr es:[edi]
  10004FD8: AB                 stos        dword ptr es:[edi]
  10004FD9: BF 60 10 01 10     mov         edi,10011060h
  10004FDE: 2B FB              sub         edi,ebx
  10004FE0: 8A 04 37           mov         al,byte ptr [edi+esi]
  10004FE3: 88 06              mov         byte ptr [esi],al
  10004FE5: 46                 inc         esi
  10004FE6: 83 E9 01           sub         ecx,1
  10004FE9: 75 F5              jne         10004FE0
  10004FEB: 8D 8B 19 01 00 00  lea         ecx,[ebx+00000119h]
  10004FF1: BA 00 01 00 00     mov         edx,100h
  10004FF6: 8A 04 39           mov         al,byte ptr [ecx+edi]
  10004FF9: 88 01              mov         byte ptr [ecx],al
  10004FFB: 41                 inc         ecx
  10004FFC: 83 EA 01           sub         edx,1
  10004FFF: 75 F5              jne         10004FF6
  10005001: 5F                 pop         edi
  10005002: 5E                 pop         esi
  10005003: 5B                 pop         ebx
  10005004: 5D                 pop         ebp
  10005005: C3                 ret
  10005006: 8B FF              mov         edi,edi
  10005008: 55                 push        ebp
  10005009: 8B EC              mov         ebp,esp
  1000500B: 81 EC 18 07 00 00  sub         esp,718h
  10005011: A1 10 10 01 10     mov         eax,dword ptr ds:[10011010h]
  10005016: 33 C5              xor         eax,ebp
  10005018: 89 45 FC           mov         dword ptr [ebp-4],eax
  1000501B: 53                 push        ebx
  1000501C: 56                 push        esi
  1000501D: 8B 75 08           mov         esi,dword ptr [ebp+8]
  10005020: 57                 push        edi
  10005021: 81 7E 04 E9 FD 00  cmp         dword ptr [esi+4],0FDE9h
            00
  10005028: 0F 84 0C 01 00 00  je          1000513A
  1000502E: 8D 85 E8 F8 FF FF  lea         eax,[ebp+FFFFF8E8h]
  10005034: 50                 push        eax
  10005035: FF 76 04           push        dword ptr [esi+4]
  10005038: FF 15 A4 B0 00 10  call        dword ptr ds:[1000B0A4h]
  1000503E: 85 C0              test        eax,eax
  10005040: 0F 84 F4 00 00 00  je          1000513A
  10005046: 33 DB              xor         ebx,ebx
  10005048: BF 00 01 00 00     mov         edi,100h
  1000504D: 8B C3              mov         eax,ebx
  1000504F: 88 84 05 FC FE FF  mov         byte ptr [ebp+eax+FFFFFEFCh],al
            FF
  10005056: 40                 inc         eax
  10005057: 3B C7              cmp         eax,edi
  10005059: 72 F4              jb          1000504F
  1000505B: 8A 85 EE F8 FF FF  mov         al,byte ptr [ebp+FFFFF8EEh]
  10005061: 8D 8D EE F8 FF FF  lea         ecx,[ebp+FFFFF8EEh]
  10005067: C6 85 FC FE FF FF  mov         byte ptr [ebp+FFFFFEFCh],20h
            20
  1000506E: EB 1F              jmp         1000508F
  10005070: 0F B6 51 01        movzx       edx,byte ptr [ecx+1]
  10005074: 0F B6 C0           movzx       eax,al
  10005077: EB 0D              jmp         10005086
  10005079: 3B C7              cmp         eax,edi
  1000507B: 73 0D              jae         1000508A
  1000507D: C6 84 05 FC FE FF  mov         byte ptr [ebp+eax+FFFFFEFCh],20h
            FF 20
  10005085: 40                 inc         eax
  10005086: 3B C2              cmp         eax,edx
  10005088: 76 EF              jbe         10005079
  1000508A: 83 C1 02           add         ecx,2
  1000508D: 8A 01              mov         al,byte ptr [ecx]
  1000508F: 84 C0              test        al,al
  10005091: 75 DD              jne         10005070
  10005093: 53                 push        ebx
  10005094: FF 76 04           push        dword ptr [esi+4]
  10005097: 8D 85 FC F8 FF FF  lea         eax,[ebp+FFFFF8FCh]
  1000509D: 50                 push        eax
  1000509E: 57                 push        edi
  1000509F: 8D 85 FC FE FF FF  lea         eax,[ebp+FFFFFEFCh]
  100050A5: 50                 push        eax
  100050A6: 6A 01              push        1
  100050A8: 53                 push        ebx
  100050A9: E8 06 24 00 00     call        100074B4
  100050AE: 53                 push        ebx
  100050AF: FF 76 04           push        dword ptr [esi+4]
  100050B2: 8D 85 FC FD FF FF  lea         eax,[ebp+FFFFFDFCh]
  100050B8: 57                 push        edi
  100050B9: 50                 push        eax
  100050BA: 57                 push        edi
  100050BB: 8D 85 FC FE FF FF  lea         eax,[ebp+FFFFFEFCh]
  100050C1: 50                 push        eax
  100050C2: 57                 push        edi
  100050C3: FF B6 1C 02 00 00  push        dword ptr [esi+0000021Ch]
  100050C9: 53                 push        ebx
  100050CA: E8 F2 26 00 00     call        100077C1
  100050CF: 83 C4 40           add         esp,40h
  100050D2: 8D 85 FC FC FF FF  lea         eax,[ebp+FFFFFCFCh]
  100050D8: 53                 push        ebx
  100050D9: FF 76 04           push        dword ptr [esi+4]
  100050DC: 57                 push        edi
  100050DD: 50                 push        eax
  100050DE: 57                 push        edi
  100050DF: 8D 85 FC FE FF FF  lea         eax,[ebp+FFFFFEFCh]
  100050E5: 50                 push        eax
  100050E6: 68 00 02 00 00     push        200h
  100050EB: FF B6 1C 02 00 00  push        dword ptr [esi+0000021Ch]
  100050F1: 53                 push        ebx
  100050F2: E8 CA 26 00 00     call        100077C1
  100050F7: 83 C4 24           add         esp,24h
  100050FA: 8B C3              mov         eax,ebx
  100050FC: 0F B7 8C 45 FC F8  movzx       ecx,word ptr [ebp+eax*2+FFFFF8FCh]
            FF FF
  10005104: F6 C1 01           test        cl,1
  10005107: 74 0E              je          10005117
  10005109: 80 4C 06 19 10     or          byte ptr [esi+eax+19h],10h
  1000510E: 8A 8C 05 FC FD FF  mov         cl,byte ptr [ebp+eax+FFFFFDFCh]
            FF
  10005115: EB 15              jmp         1000512C
  10005117: F6 C1 02           test        cl,2
  1000511A: 74 0E              je          1000512A
  1000511C: 80 4C 06 19 20     or          byte ptr [esi+eax+19h],20h
  10005121: 8A 8C 05 FC FC FF  mov         cl,byte ptr [ebp+eax+FFFFFCFCh]
            FF
  10005128: EB 02              jmp         1000512C
  1000512A: 8A CB              mov         cl,bl
  1000512C: 88 8C 06 19 01 00  mov         byte ptr [esi+eax+00000119h],cl
            00
  10005133: 40                 inc         eax
  10005134: 3B C7              cmp         eax,edi
  10005136: 72 C4              jb          100050FC
  10005138: EB 3D              jmp         10005177
  1000513A: 33 DB              xor         ebx,ebx
  1000513C: BF 00 01 00 00     mov         edi,100h
  10005141: 8B CB              mov         ecx,ebx
  10005143: 8D 51 9F           lea         edx,[ecx-61h]
  10005146: 8D 42 20           lea         eax,[edx+20h]
  10005149: 83 F8 19           cmp         eax,19h
  1000514C: 77 0A              ja          10005158
  1000514E: 80 4C 0E 19 10     or          byte ptr [esi+ecx+19h],10h
  10005153: 8D 41 20           lea         eax,[ecx+20h]
  10005156: EB 13              jmp         1000516B
  10005158: 83 FA 19           cmp         edx,19h
  1000515B: 77 0C              ja          10005169
  1000515D: 8D 04 0E           lea         eax,[esi+ecx]
  10005160: 80 48 19 20        or          byte ptr [eax+19h],20h
  10005164: 8D 41 E0           lea         eax,[ecx-20h]
  10005167: EB 02              jmp         1000516B
  10005169: 8A C3              mov         al,bl
  1000516B: 88 84 0E 19 01 00  mov         byte ptr [esi+ecx+00000119h],al
            00
  10005172: 41                 inc         ecx
  10005173: 3B CF              cmp         ecx,edi
  10005175: 72 CC              jb          10005143
  10005177: 8B 4D FC           mov         ecx,dword ptr [ebp-4]
  1000517A: 5F                 pop         edi
  1000517B: 5E                 pop         esi
  1000517C: 33 CD              xor         ecx,ebp
  1000517E: 5B                 pop         ebx
  1000517F: E8 58 C9 FF FF     call        10001ADC
  10005184: C9                 leave
  10005185: C3                 ret
  10005186: 8B FF              mov         edi,edi
  10005188: 55                 push        ebp
  10005189: 8B EC              mov         ebp,esp
  1000518B: 83 EC 14           sub         esp,14h
  1000518E: FF 75 14           push        dword ptr [ebp+14h]
  10005191: FF 75 10           push        dword ptr [ebp+10h]
  10005194: E8 01 01 00 00     call        1000529A
  10005199: FF 75 08           push        dword ptr [ebp+8]
  1000519C: E8 8F FD FF FF     call        10004F30
  100051A1: 8B 4D 10           mov         ecx,dword ptr [ebp+10h]
  100051A4: 83 C4 0C           add         esp,0Ch
  100051A7: 89 45 F4           mov         dword ptr [ebp-0Ch],eax
  100051AA: 8B 49 48           mov         ecx,dword ptr [ecx+48h]
  100051AD: 3B 41 04           cmp         eax,dword ptr [ecx+4]
  100051B0: 75 04              jne         100051B6
  100051B2: 33 C0              xor         eax,eax
  100051B4: C9                 leave
  100051B5: C3                 ret
  100051B6: 53                 push        ebx
  100051B7: 56                 push        esi
  100051B8: 57                 push        edi
  100051B9: 68 20 02 00 00     push        220h
  100051BE: E8 C9 15 00 00     call        1000678C
  100051C3: 8B F8              mov         edi,eax
  100051C5: 83 CB FF           or          ebx,0FFFFFFFFh
  100051C8: 59                 pop         ecx
  100051C9: 85 FF              test        edi,edi
  100051CB: 74 2E              je          100051FB
  100051CD: 8B 75 10           mov         esi,dword ptr [ebp+10h]
  100051D0: B9 88 00 00 00     mov         ecx,88h
  100051D5: 8B 76 48           mov         esi,dword ptr [esi+48h]
  100051D8: F3 A5              rep movs    dword ptr es:[edi],dword ptr [esi]
  100051DA: 8B F8              mov         edi,eax
  100051DC: 57                 push        edi
  100051DD: FF 75 F4           push        dword ptr [ebp-0Ch]
  100051E0: 83 27 00           and         dword ptr [edi],0
  100051E3: E8 AD 01 00 00     call        10005395
  100051E8: 8B F0              mov         esi,eax
  100051EA: 59                 pop         ecx
  100051EB: 59                 pop         ecx
  100051EC: 3B F3              cmp         esi,ebx
  100051EE: 75 1B              jne         1000520B
  100051F0: E8 AE F1 FF FF     call        100043A3
  100051F5: C7 00 16 00 00 00  mov         dword ptr [eax],16h
  100051FB: 8B F3              mov         esi,ebx
  100051FD: 57                 push        edi
  100051FE: E8 10 F2 FF FF     call        10004413
  10005203: 59                 pop         ecx
  10005204: 5F                 pop         edi
  10005205: 8B C6              mov         eax,esi
  10005207: 5E                 pop         esi
  10005208: 5B                 pop         ebx
  10005209: C9                 leave
  1000520A: C3                 ret
  1000520B: 80 7D 0C 00        cmp         byte ptr [ebp+0Ch],0
  1000520F: 75 05              jne         10005216
  10005211: E8 0F 18 00 00     call        10006A25
  10005216: 8B 45 10           mov         eax,dword ptr [ebp+10h]
  10005219: 8B 40 48           mov         eax,dword ptr [eax+48h]
  1000521C: F0 0F C1 18        lock xadd   dword ptr [eax],ebx
  10005220: 4B                 dec         ebx
  10005221: 75 15              jne         10005238
  10005223: 8B 45 10           mov         eax,dword ptr [ebp+10h]
  10005226: 81 78 48 60 10 01  cmp         dword ptr [eax+48h],10011060h
            10
  1000522D: 74 09              je          10005238
  1000522F: FF 70 48           push        dword ptr [eax+48h]
  10005232: E8 DC F1 FF FF     call        10004413
  10005237: 59                 pop         ecx
  10005238: C7 07 01 00 00 00  mov         dword ptr [edi],1
  1000523E: 8B CF              mov         ecx,edi
  10005240: 8B 45 10           mov         eax,dword ptr [ebp+10h]
  10005243: 33 FF              xor         edi,edi
  10005245: 89 48 48           mov         dword ptr [eax+48h],ecx
  10005248: 8B 4D 10           mov         ecx,dword ptr [ebp+10h]
  1000524B: A1 F0 16 01 10     mov         eax,dword ptr ds:[100116F0h]
  10005250: 85 81 50 03 00 00  test        dword ptr [ecx+00000350h],eax
  10005256: 75 A5              jne         100051FD
  10005258: 8D 45 10           lea         eax,[ebp+10h]
  1000525B: 89 45 EC           mov         dword ptr [ebp-14h],eax
  1000525E: 8D 4D FF           lea         ecx,[ebp-1]
  10005261: 6A 05              push        5
  10005263: 8D 45 14           lea         eax,[ebp+14h]
  10005266: 89 45 F0           mov         dword ptr [ebp-10h],eax
  10005269: 58                 pop         eax
  1000526A: 89 45 F4           mov         dword ptr [ebp-0Ch],eax
  1000526D: 89 45 F8           mov         dword ptr [ebp-8],eax
  10005270: 8D 45 F4           lea         eax,[ebp-0Ch]
  10005273: 50                 push        eax
  10005274: 8D 45 EC           lea         eax,[ebp-14h]
  10005277: 50                 push        eax
  10005278: 8D 45 F8           lea         eax,[ebp-8]
  1000527B: 50                 push        eax
  1000527C: E8 A1 FB FF FF     call        10004E22
  10005281: 80 7D 0C 00        cmp         byte ptr [ebp+0Ch],0
  10005285: 0F 84 72 FF FF FF  je          100051FD
  1000528B: 8B 45 14           mov         eax,dword ptr [ebp+14h]
  1000528E: 8B 00              mov         eax,dword ptr [eax]
  10005290: A3 3C 16 01 10     mov         dword ptr ds:[1001163Ch],eax
  10005295: E9 63 FF FF FF     jmp         100051FD
  1000529A: 6A 0C              push        0Ch
  1000529C: 68 A0 01 01 10     push        100101A0h
  100052A1: E8 0A C6 FF FF     call        100018B0
  100052A6: 33 F6              xor         esi,esi
  100052A8: 89 75 E4           mov         dword ptr [ebp-1Ch],esi
  100052AB: 8B 7D 08           mov         edi,dword ptr [ebp+8]
  100052AE: A1 F0 16 01 10     mov         eax,dword ptr ds:[100116F0h]
  100052B3: 85 87 50 03 00 00  test        dword ptr [edi+00000350h],eax
  100052B9: 74 0E              je          100052C9
  100052BB: 39 77 4C           cmp         dword ptr [edi+4Ch],esi
  100052BE: 74 09              je          100052C9
  100052C0: 8B 77 48           mov         esi,dword ptr [edi+48h]
  100052C3: 85 F6              test        esi,esi
  100052C5: 74 6D              je          10005334
  100052C7: EB 59              jmp         10005322
  100052C9: 6A 05              push        5
  100052CB: E8 DA ED FF FF     call        100040AA
  100052D0: 59                 pop         ecx
  100052D1: 89 75 FC           mov         dword ptr [ebp-4],esi
  100052D4: 8B 77 48           mov         esi,dword ptr [edi+48h]
  100052D7: 89 75 E4           mov         dword ptr [ebp-1Ch],esi
  100052DA: 8B 5D 0C           mov         ebx,dword ptr [ebp+0Ch]
  100052DD: 3B 33              cmp         esi,dword ptr [ebx]
  100052DF: 74 27              je          10005308
  100052E1: 85 F6              test        esi,esi
  100052E3: 74 18              je          100052FD
  100052E5: 83 C8 FF           or          eax,0FFFFFFFFh
  100052E8: F0 0F C1 06        lock xadd   dword ptr [esi],eax
  100052EC: 75 0F              jne         100052FD
  100052EE: 81 FE 60 10 01 10  cmp         esi,10011060h
  100052F4: 74 07              je          100052FD
  100052F6: 56                 push        esi
  100052F7: E8 17 F1 FF FF     call        10004413
  100052FC: 59                 pop         ecx
  100052FD: 8B 33              mov         esi,dword ptr [ebx]
  100052FF: 89 77 48           mov         dword ptr [edi+48h],esi
  10005302: 89 75 E4           mov         dword ptr [ebp-1Ch],esi
  10005305: F0 FF 06           lock inc    dword ptr [esi]
  10005308: C7 45 FC FE FF FF  mov         dword ptr [ebp-4],0FFFFFFFEh
            FF
  1000530F: E8 05 00 00 00     call        10005319
  10005314: EB AD              jmp         100052C3
  10005316: 8B 75 E4           mov         esi,dword ptr [ebp-1Ch]
  10005319: 6A 05              push        5
  1000531B: E8 D2 ED FF FF     call        100040F2
  10005320: 59                 pop         ecx
  10005321: C3                 ret
  10005322: 8B C6              mov         eax,esi
  10005324: 8B 4D F0           mov         ecx,dword ptr [ebp-10h]
  10005327: 64 89 0D 00 00 00  mov         dword ptr fs:[00000000h],ecx
            00
  1000532E: 59                 pop         ecx
  1000532F: 5F                 pop         edi
  10005330: 5E                 pop         esi
  10005331: 5B                 pop         ebx
  10005332: C9                 leave
  10005333: C3                 ret
  10005334: E8 C4 E5 FF FF     call        100038FD
  10005339: CC                 int         3
  1000533A: 80 3D 28 1F 01 10  cmp         byte ptr ds:[10011F28h],0
            00
  10005341: 75 3C              jne         1000537F
  10005343: C7 05 20 1F 01 10  mov         dword ptr ds:[10011F20h],10011060h
            60 10 01 10
  1000534D: C7 05 1C 1F 01 10  mov         dword ptr ds:[10011F1Ch],10011388h
            88 13 01 10
  10005357: C7 05 18 1F 01 10  mov         dword ptr ds:[10011F18h],10011280h
            80 12 01 10
  10005361: E8 6E EB FF FF     call        10003ED4
  10005366: 68 20 1F 01 10     push        10011F20h
  1000536B: 50                 push        eax
  1000536C: 6A 01              push        1
  1000536E: 6A FD              push        0FFFFFFFDh
  10005370: E8 11 FE FF FF     call        10005186
  10005375: 83 C4 10           add         esp,10h
  10005378: C6 05 28 1F 01 10  mov         byte ptr ds:[10011F28h],1
            01
  1000537F: B0 01              mov         al,1
  10005381: C3                 ret
  10005382: 68 20 1F 01 10     push        10011F20h
  10005387: E8 8B EA FF FF     call        10003E17
  1000538C: 50                 push        eax
  1000538D: E8 08 FF FF FF     call        1000529A
  10005392: 59                 pop         ecx
  10005393: 59                 pop         ecx
  10005394: C3                 ret
  10005395: 8B FF              mov         edi,edi
  10005397: 55                 push        ebp
  10005398: 8B EC              mov         ebp,esp
  1000539A: 83 EC 20           sub         esp,20h
  1000539D: A1 10 10 01 10     mov         eax,dword ptr ds:[10011010h]
  100053A2: 33 C5              xor         eax,ebp
  100053A4: 89 45 FC           mov         dword ptr [ebp-4],eax
  100053A7: 53                 push        ebx
  100053A8: 56                 push        esi
  100053A9: 8B 75 0C           mov         esi,dword ptr [ebp+0Ch]
  100053AC: 57                 push        edi
  100053AD: FF 75 08           push        dword ptr [ebp+8]
  100053B0: E8 7B FB FF FF     call        10004F30
  100053B5: 8B D8              mov         ebx,eax
  100053B7: 59                 pop         ecx
  100053B8: 85 DB              test        ebx,ebx
  100053BA: 0F 84 B0 01 00 00  je          10005570
  100053C0: 33 FF              xor         edi,edi
  100053C2: 8B CF              mov         ecx,edi
  100053C4: 8B C7              mov         eax,edi
  100053C6: 89 4D E4           mov         dword ptr [ebp-1Ch],ecx
  100053C9: 39 98 90 14 01 10  cmp         dword ptr [eax+10011490h],ebx
  100053CF: 0F 84 F3 00 00 00  je          100054C8
  100053D5: 41                 inc         ecx
  100053D6: 83 C0 30           add         eax,30h
  100053D9: 89 4D E4           mov         dword ptr [ebp-1Ch],ecx
  100053DC: 3D F0 00 00 00     cmp         eax,0F0h
  100053E1: 72 E6              jb          100053C9
  100053E3: 81 FB E8 FD 00 00  cmp         ebx,0FDE8h
  100053E9: 0F 84 D1 00 00 00  je          100054C0
  100053EF: 0F B7 C3           movzx       eax,bx
  100053F2: 50                 push        eax
  100053F3: FF 15 98 B0 00 10  call        dword ptr ds:[1000B098h]
  100053F9: 85 C0              test        eax,eax
  100053FB: 0F 84 BF 00 00 00  je          100054C0
  10005401: B8 E9 FD 00 00     mov         eax,0FDE9h
  10005406: 3B D8              cmp         ebx,eax
  10005408: 75 26              jne         10005430
  1000540A: 89 46 04           mov         dword ptr [esi+4],eax
  1000540D: 89 BE 1C 02 00 00  mov         dword ptr [esi+0000021Ch],edi
  10005413: 89 7E 18           mov         dword ptr [esi+18h],edi
  10005416: 66 89 7E 1C        mov         word ptr [esi+1Ch],di
  1000541A: 89 7E 08           mov         dword ptr [esi+8],edi
  1000541D: 33 C0              xor         eax,eax
  1000541F: 8D 7E 0C           lea         edi,[esi+0Ch]
  10005422: AB                 stos        dword ptr es:[edi]
  10005423: AB                 stos        dword ptr es:[edi]
  10005424: AB                 stos        dword ptr es:[edi]
  10005425: 56                 push        esi
  10005426: E8 DB FB FF FF     call        10005006
  1000542B: E9 46 01 00 00     jmp         10005576
  10005430: 8D 45 E8           lea         eax,[ebp-18h]
  10005433: 50                 push        eax
  10005434: 53                 push        ebx
  10005435: FF 15 A4 B0 00 10  call        dword ptr ds:[1000B0A4h]
  1000543B: 85 C0              test        eax,eax
  1000543D: 74 75              je          100054B4
  1000543F: 68 01 01 00 00     push        101h
  10005444: 8D 46 18           lea         eax,[esi+18h]
  10005447: 57                 push        edi
  10005448: 50                 push        eax
  10005449: E8 E2 CA FF FF     call        10001F30
  1000544E: 83 C4 0C           add         esp,0Ch
  10005451: 89 5E 04           mov         dword ptr [esi+4],ebx
  10005454: 83 7D E8 02        cmp         dword ptr [ebp-18h],2
  10005458: 89 BE 1C 02 00 00  mov         dword ptr [esi+0000021Ch],edi
  1000545E: 75 BA              jne         1000541A
  10005460: 80 7D EE 00        cmp         byte ptr [ebp-12h],0
  10005464: 8D 45 EE           lea         eax,[ebp-12h]
  10005467: 74 21              je          1000548A
  10005469: 8A 48 01           mov         cl,byte ptr [eax+1]
  1000546C: 84 C9              test        cl,cl
  1000546E: 74 1A              je          1000548A
  10005470: 0F B6 D1           movzx       edx,cl
  10005473: 0F B6 08           movzx       ecx,byte ptr [eax]
  10005476: EB 06              jmp         1000547E
  10005478: 80 4C 0E 19 04     or          byte ptr [esi+ecx+19h],4
  1000547D: 41                 inc         ecx
  1000547E: 3B CA              cmp         ecx,edx
  10005480: 76 F6              jbe         10005478
  10005482: 83 C0 02           add         eax,2
  10005485: 80 38 00           cmp         byte ptr [eax],0
  10005488: 75 DF              jne         10005469
  1000548A: 8D 46 1A           lea         eax,[esi+1Ah]
  1000548D: B9 FE 00 00 00     mov         ecx,0FEh
  10005492: 80 08 08           or          byte ptr [eax],8
  10005495: 40                 inc         eax
  10005496: 83 E9 01           sub         ecx,1
  10005499: 75 F7              jne         10005492
  1000549B: FF 76 04           push        dword ptr [esi+4]
  1000549E: E8 4F FA FF FF     call        10004EF2
  100054A3: 33 FF              xor         edi,edi
  100054A5: 89 86 1C 02 00 00  mov         dword ptr [esi+0000021Ch],eax
  100054AB: 83 C4 04           add         esp,4
  100054AE: 47                 inc         edi
  100054AF: E9 66 FF FF FF     jmp         1000541A
  100054B4: 39 3D 24 1F 01 10  cmp         dword ptr ds:[10011F24h],edi
  100054BA: 0F 85 B0 00 00 00  jne         10005570
  100054C0: 83 C8 FF           or          eax,0FFFFFFFFh
  100054C3: E9 B1 00 00 00     jmp         10005579
  100054C8: 68 01 01 00 00     push        101h
  100054CD: 8D 46 18           lea         eax,[esi+18h]
  100054D0: 57                 push        edi
  100054D1: 50                 push        eax
  100054D2: E8 59 CA FF FF     call        10001F30
  100054D7: 83 C4 0C           add         esp,0Ch
  100054DA: 6B 45 E4 30        imul        eax,dword ptr [ebp-1Ch],30h
  100054DE: 89 45 E0           mov         dword ptr [ebp-20h],eax
  100054E1: 8D 80 A0 14 01 10  lea         eax,[eax+100114A0h]
  100054E7: 89 45 E4           mov         dword ptr [ebp-1Ch],eax
  100054EA: 80 38 00           cmp         byte ptr [eax],0
  100054ED: 8B C8              mov         ecx,eax
  100054EF: 74 35              je          10005526
  100054F1: 8A 41 01           mov         al,byte ptr [ecx+1]
  100054F4: 84 C0              test        al,al
  100054F6: 74 2B              je          10005523
  100054F8: 0F B6 11           movzx       edx,byte ptr [ecx]
  100054FB: 0F B6 C0           movzx       eax,al
  100054FE: EB 17              jmp         10005517
  10005500: 81 FA 00 01 00 00  cmp         edx,100h
  10005506: 73 13              jae         1000551B
  10005508: 8A 87 88 14 01 10  mov         al,byte ptr [edi+10011488h]
  1000550E: 08 44 16 19        or          byte ptr [esi+edx+19h],al
  10005512: 42                 inc         edx
  10005513: 0F B6 41 01        movzx       eax,byte ptr [ecx+1]
  10005517: 3B D0              cmp         edx,eax
  10005519: 76 E5              jbe         10005500
  1000551B: 83 C1 02           add         ecx,2
  1000551E: 80 39 00           cmp         byte ptr [ecx],0
  10005521: 75 CE              jne         100054F1
  10005523: 8B 45 E4           mov         eax,dword ptr [ebp-1Ch]
  10005526: 47                 inc         edi
  10005527: 83 C0 08           add         eax,8
  1000552A: 89 45 E4           mov         dword ptr [ebp-1Ch],eax
  1000552D: 83 FF 04           cmp         edi,4
  10005530: 72 B8              jb          100054EA
  10005532: 53                 push        ebx
  10005533: 89 5E 04           mov         dword ptr [esi+4],ebx
  10005536: C7 46 08 01 00 00  mov         dword ptr [esi+8],1
            00
  1000553D: E8 B0 F9 FF FF     call        10004EF2
  10005542: 83 C4 04           add         esp,4
  10005545: 89 86 1C 02 00 00  mov         dword ptr [esi+0000021Ch],eax
  1000554B: 8B 45 E0           mov         eax,dword ptr [ebp-20h]
  1000554E: 8D 4E 0C           lea         ecx,[esi+0Ch]
  10005551: 6A 06              push        6
  10005553: 8D 90 94 14 01 10  lea         edx,[eax+10011494h]
  10005559: 5F                 pop         edi
  1000555A: 66 8B 02           mov         ax,word ptr [edx]
  1000555D: 8D 52 02           lea         edx,[edx+2]
  10005560: 66 89 01           mov         word ptr [ecx],ax
  10005563: 8D 49 02           lea         ecx,[ecx+2]
  10005566: 83 EF 01           sub         edi,1
  10005569: 75 EF              jne         1000555A
  1000556B: E9 B5 FE FF FF     jmp         10005425
  10005570: 56                 push        esi
  10005571: E8 2B FA FF FF     call        10004FA1
  10005576: 33 C0              xor         eax,eax
  10005578: 59                 pop         ecx
  10005579: 8B 4D FC           mov         ecx,dword ptr [ebp-4]
  1000557C: 5F                 pop         edi
  1000557D: 5E                 pop         esi
  1000557E: 33 CD              xor         ecx,ebp
  10005580: 5B                 pop         ebx
  10005581: E8 56 C5 FF FF     call        10001ADC
  10005586: C9                 leave
  10005587: C3                 ret
  10005588: 8B FF              mov         edi,edi
  1000558A: 55                 push        ebp
  1000558B: 8B EC              mov         ebp,esp
  1000558D: 56                 push        esi
  1000558E: 8B 75 14           mov         esi,dword ptr [ebp+14h]
  10005591: 85 F6              test        esi,esi
  10005593: 75 04              jne         10005599
  10005595: 33 C0              xor         eax,eax
  10005597: EB 6D              jmp         10005606
  10005599: 8B 45 08           mov         eax,dword ptr [ebp+8]
  1000559C: 85 C0              test        eax,eax
  1000559E: 75 13              jne         100055B3
  100055A0: E8 FE ED FF FF     call        100043A3
  100055A5: 6A 16              push        16h
  100055A7: 5E                 pop         esi
  100055A8: 89 30              mov         dword ptr [eax],esi
  100055AA: E8 37 ED FF FF     call        100042E6
  100055AF: 8B C6              mov         eax,esi
  100055B1: EB 53              jmp         10005606
  100055B3: 57                 push        edi
  100055B4: 8B 7D 10           mov         edi,dword ptr [ebp+10h]
  100055B7: 85 FF              test        edi,edi
  100055B9: 74 14              je          100055CF
  100055BB: 39 75 0C           cmp         dword ptr [ebp+0Ch],esi
  100055BE: 72 0F              jb          100055CF
  100055C0: 56                 push        esi
  100055C1: 57                 push        edi
  100055C2: 50                 push        eax
  100055C3: E8 48 CE FF FF     call        10002410
  100055C8: 83 C4 0C           add         esp,0Ch
  100055CB: 33 C0              xor         eax,eax
  100055CD: EB 36              jmp         10005605
  100055CF: FF 75 0C           push        dword ptr [ebp+0Ch]
  100055D2: 6A 00              push        0
  100055D4: 50                 push        eax
  100055D5: E8 56 C9 FF FF     call        10001F30
  100055DA: 83 C4 0C           add         esp,0Ch
  100055DD: 85 FF              test        edi,edi
  100055DF: 75 09              jne         100055EA
  100055E1: E8 BD ED FF FF     call        100043A3
  100055E6: 6A 16              push        16h
  100055E8: EB 0C              jmp         100055F6
  100055EA: 39 75 0C           cmp         dword ptr [ebp+0Ch],esi
  100055ED: 73 13              jae         10005602
  100055EF: E8 AF ED FF FF     call        100043A3
  100055F4: 6A 22              push        22h
  100055F6: 5E                 pop         esi
  100055F7: 89 30              mov         dword ptr [eax],esi
  100055F9: E8 E8 EC FF FF     call        100042E6
  100055FE: 8B C6              mov         eax,esi
  10005600: EB 03              jmp         10005605
  10005602: 6A 16              push        16h
  10005604: 58                 pop         eax
  10005605: 5F                 pop         edi
  10005606: 5E                 pop         esi
  10005607: 5D                 pop         ebp
  10005608: C3                 ret
  10005609: 8B FF              mov         edi,edi
  1000560B: 55                 push        ebp
  1000560C: 8B EC              mov         ebp,esp
  1000560E: 83 EC 10           sub         esp,10h
  10005611: 56                 push        esi
  10005612: FF 75 08           push        dword ptr [ebp+8]
  10005615: 8D 4D F0           lea         ecx,[ebp-10h]
  10005618: E8 24 E3 FF FF     call        10003941
  1000561D: 0F B6 75 0C        movzx       esi,byte ptr [ebp+0Ch]
  10005621: 8B 45 F8           mov         eax,dword ptr [ebp-8]
  10005624: 8A 4D 14           mov         cl,byte ptr [ebp+14h]
  10005627: 84 4C 30 19        test        byte ptr [eax+esi+19h],cl
  1000562B: 75 1B              jne         10005648
  1000562D: 33 D2              xor         edx,edx
  1000562F: 39 55 10           cmp         dword ptr [ebp+10h],edx
  10005632: 74 0E              je          10005642
  10005634: 8B 45 F4           mov         eax,dword ptr [ebp-0Ch]
  10005637: 8B 00              mov         eax,dword ptr [eax]
  10005639: 0F B7 04 70        movzx       eax,word ptr [eax+esi*2]
  1000563D: 23 45 10           and         eax,dword ptr [ebp+10h]
  10005640: EB 02              jmp         10005644
  10005642: 8B C2              mov         eax,edx
  10005644: 85 C0              test        eax,eax
  10005646: 74 03              je          1000564B
  10005648: 33 D2              xor         edx,edx
  1000564A: 42                 inc         edx
  1000564B: 80 7D FC 00        cmp         byte ptr [ebp-4],0
  1000564F: 5E                 pop         esi
  10005650: 74 0A              je          1000565C
  10005652: 8B 4D F0           mov         ecx,dword ptr [ebp-10h]
  10005655: 83 A1 50 03 00 00  and         dword ptr [ecx+00000350h],0FFFFFFFDh
            FD
  1000565C: 8B C2              mov         eax,edx
  1000565E: C9                 leave
  1000565F: C3                 ret
  10005660: 8B FF              mov         edi,edi
  10005662: 55                 push        ebp
  10005663: 8B EC              mov         ebp,esp
  10005665: 6A 04              push        4
  10005667: 6A 00              push        0
  10005669: FF 75 08           push        dword ptr [ebp+8]
  1000566C: 6A 00              push        0
  1000566E: E8 96 FF FF FF     call        10005609
  10005673: 83 C4 10           add         esp,10h
  10005676: 5D                 pop         ebp
  10005677: C3                 ret
  10005678: FF 15 A8 B0 00 10  call        dword ptr ds:[1000B0A8h]
  1000567E: A3 3C 1F 01 10     mov         dword ptr ds:[10011F3Ch],eax
  10005683: FF 15 AC B0 00 10  call        dword ptr ds:[1000B0ACh]
  10005689: A3 40 1F 01 10     mov         dword ptr ds:[10011F40h],eax
  1000568E: B0 01              mov         al,1
  10005690: C3                 ret
  10005691: 8B FF              mov         edi,edi
  10005693: 55                 push        ebp
  10005694: 8B EC              mov         ebp,esp
  10005696: 8B 45 08           mov         eax,dword ptr [ebp+8]
  10005699: B9 35 C4 00 00     mov         ecx,0C435h
  1000569E: 3B C1              cmp         eax,ecx
  100056A0: 77 28              ja          100056CA
  100056A2: 74 65              je          10005709
  100056A4: 83 F8 2A           cmp         eax,2Ah
  100056A7: 74 60              je          10005709
  100056A9: 3D 2B C4 00 00     cmp         eax,0C42Bh
  100056AE: 76 15              jbe         100056C5
  100056B0: 3D 2E C4 00 00     cmp         eax,0C42Eh
  100056B5: 76 52              jbe         10005709
  100056B7: 3D 31 C4 00 00     cmp         eax,0C431h
  100056BC: 74 4B              je          10005709
  100056BE: 3D 33 C4 00 00     cmp         eax,0C433h
  100056C3: 74 44              je          10005709
  100056C5: 8B 4D 0C           mov         ecx,dword ptr [ebp+0Ch]
  100056C8: EB 29              jmp         100056F3
  100056CA: 3D 98 D6 00 00     cmp         eax,0D698h
  100056CF: 74 1C              je          100056ED
  100056D1: 3D A9 DE 00 00     cmp         eax,0DEA9h
  100056D6: 76 ED              jbe         100056C5
  100056D8: 3D B3 DE 00 00     cmp         eax,0DEB3h
  100056DD: 76 2A              jbe         10005709
  100056DF: 3D E8 FD 00 00     cmp         eax,0FDE8h
  100056E4: 74 23              je          10005709
  100056E6: 3D E9 FD 00 00     cmp         eax,0FDE9h
  100056EB: 75 D8              jne         100056C5
  100056ED: 8B 4D 0C           mov         ecx,dword ptr [ebp+0Ch]
  100056F0: 83 E1 08           and         ecx,8
  100056F3: FF 75 1C           push        dword ptr [ebp+1Ch]
  100056F6: FF 75 18           push        dword ptr [ebp+18h]
  100056F9: FF 75 14           push        dword ptr [ebp+14h]
  100056FC: FF 75 10           push        dword ptr [ebp+10h]
  100056FF: 51                 push        ecx
  10005700: 50                 push        eax
  10005701: FF 15 B0 B0 00 10  call        dword ptr ds:[1000B0B0h]
  10005707: 5D                 pop         ebp
  10005708: C3                 ret
  10005709: 33 C9              xor         ecx,ecx
  1000570B: EB E6              jmp         100056F3
  1000570D: 8B FF              mov         edi,edi
  1000570F: 55                 push        ebp
  10005710: 8B EC              mov         ebp,esp
  10005712: 8B 45 08           mov         eax,dword ptr [ebp+8]
  10005715: BA E9 FD 00 00     mov         edx,0FDE9h
  1000571A: 53                 push        ebx
  1000571B: 56                 push        esi
  1000571C: 57                 push        edi
  1000571D: 8D 72 FF           lea         esi,[edx-1]
  10005720: 3B C6              cmp         eax,esi
  10005722: 74 08              je          1000572C
  10005724: 3B C2              cmp         eax,edx
  10005726: 74 04              je          1000572C
  10005728: 32 DB              xor         bl,bl
  1000572A: EB 02              jmp         1000572E
  1000572C: B3 01              mov         bl,1
  1000572E: B9 35 C4 00 00     mov         ecx,0C435h
  10005733: 3B C1              cmp         eax,ecx
  10005735: 77 23              ja          1000575A
  10005737: 74 49              je          10005782
  10005739: 83 F8 2A           cmp         eax,2Ah
  1000573C: 74 44              je          10005782
  1000573E: 3D 2B C4 00 00     cmp         eax,0C42Bh
  10005743: 76 32              jbe         10005777
  10005745: 3D 2E C4 00 00     cmp         eax,0C42Eh
  1000574A: 76 36              jbe         10005782
  1000574C: 3D 31 C4 00 00     cmp         eax,0C431h
  10005751: 74 2F              je          10005782
  10005753: 3D 33 C4 00 00     cmp         eax,0C433h
  10005758: EB 1B              jmp         10005775
  1000575A: 3D 98 D6 00 00     cmp         eax,0D698h
  1000575F: 74 21              je          10005782
  10005761: 3D A9 DE 00 00     cmp         eax,0DEA9h
  10005766: 76 0F              jbe         10005777
  10005768: 3D B3 DE 00 00     cmp         eax,0DEB3h
  1000576D: 76 13              jbe         10005782
  1000576F: 3B C6              cmp         eax,esi
  10005771: 74 0F              je          10005782
  10005773: 3B C2              cmp         eax,edx
  10005775: 74 0B              je          10005782
  10005777: 8B 4D 0C           mov         ecx,dword ptr [ebp+0Ch]
  1000577A: 81 E1 7F FF FF FF  and         ecx,0FFFFFF7Fh
  10005780: EB 02              jmp         10005784
  10005782: 33 C9              xor         ecx,ecx
  10005784: 8B 7D 24           mov         edi,dword ptr [ebp+24h]
  10005787: 0F B6 D3           movzx       edx,bl
  1000578A: F7 DA              neg         edx
  1000578C: 0F B6 F3           movzx       esi,bl
  1000578F: 1B D2              sbb         edx,edx
  10005791: F7 D2              not         edx
  10005793: 23 D7              and         edx,edi
  10005795: F7 DE              neg         esi
  10005797: 1B F6              sbb         esi,esi
  10005799: F7 D6              not         esi
  1000579B: 23 75 20           and         esi,dword ptr [ebp+20h]
  1000579E: 84 DB              test        bl,bl
  100057A0: 74 07              je          100057A9
  100057A2: 85 FF              test        edi,edi
  100057A4: 74 03              je          100057A9
  100057A6: 83 27 00           and         dword ptr [edi],0
  100057A9: 52                 push        edx
  100057AA: 56                 push        esi
  100057AB: FF 75 1C           push        dword ptr [ebp+1Ch]
  100057AE: FF 75 18           push        dword ptr [ebp+18h]
  100057B1: FF 75 14           push        dword ptr [ebp+14h]
  100057B4: FF 75 10           push        dword ptr [ebp+10h]
  100057B7: 51                 push        ecx
  100057B8: 50                 push        eax
  100057B9: FF 15 B4 B0 00 10  call        dword ptr ds:[1000B0B4h]
  100057BF: 5F                 pop         edi
  100057C0: 5E                 pop         esi
  100057C1: 5B                 pop         ebx
  100057C2: 5D                 pop         ebp
  100057C3: C3                 ret
  100057C4: 8B FF              mov         edi,edi
  100057C6: 55                 push        ebp
  100057C7: 8B EC              mov         ebp,esp
  100057C9: 8B 55 08           mov         edx,dword ptr [ebp+8]
  100057CC: 57                 push        edi
  100057CD: 33 FF              xor         edi,edi
  100057CF: 66 39 3A           cmp         word ptr [edx],di
  100057D2: 74 21              je          100057F5
  100057D4: 56                 push        esi
  100057D5: 8B CA              mov         ecx,edx
  100057D7: 8D 71 02           lea         esi,[ecx+2]
  100057DA: 66 8B 01           mov         ax,word ptr [ecx]
  100057DD: 83 C1 02           add         ecx,2
  100057E0: 66 3B C7           cmp         ax,di
  100057E3: 75 F5              jne         100057DA
  100057E5: 2B CE              sub         ecx,esi
  100057E7: D1 F9              sar         ecx,1
  100057E9: 8D 14 4A           lea         edx,[edx+ecx*2]
  100057EC: 83 C2 02           add         edx,2
  100057EF: 66 39 3A           cmp         word ptr [edx],di
  100057F2: 75 E1              jne         100057D5
  100057F4: 5E                 pop         esi
  100057F5: 8D 42 02           lea         eax,[edx+2]
  100057F8: 5F                 pop         edi
  100057F9: 5D                 pop         ebp
  100057FA: C3                 ret
  100057FB: 8B FF              mov         edi,edi
  100057FD: 55                 push        ebp
  100057FE: 8B EC              mov         ebp,esp
  10005800: 51                 push        ecx
  10005801: 53                 push        ebx
  10005802: 56                 push        esi
  10005803: 57                 push        edi
  10005804: FF 15 B8 B0 00 10  call        dword ptr ds:[1000B0B8h]
  1000580A: 8B F0              mov         esi,eax
  1000580C: 33 FF              xor         edi,edi
  1000580E: 85 F6              test        esi,esi
  10005810: 74 59              je          1000586B
  10005812: 56                 push        esi
  10005813: E8 AC FF FF FF     call        100057C4
  10005818: 57                 push        edi
  10005819: 57                 push        edi
  1000581A: 57                 push        edi
  1000581B: 8B D8              mov         ebx,eax
  1000581D: 57                 push        edi
  1000581E: 2B DE              sub         ebx,esi
  10005820: D1 FB              sar         ebx,1
  10005822: 53                 push        ebx
  10005823: 56                 push        esi
  10005824: 57                 push        edi
  10005825: 57                 push        edi
  10005826: E8 E2 FE FF FF     call        1000570D
  1000582B: 83 C4 24           add         esp,24h
  1000582E: 89 45 FC           mov         dword ptr [ebp-4],eax
  10005831: 85 C0              test        eax,eax
  10005833: 74 36              je          1000586B
  10005835: 50                 push        eax
  10005836: E8 51 0F 00 00     call        1000678C
  1000583B: 8B F8              mov         edi,eax
  1000583D: 59                 pop         ecx
  1000583E: 85 FF              test        edi,edi
  10005840: 74 1E              je          10005860
  10005842: 33 C0              xor         eax,eax
  10005844: 50                 push        eax
  10005845: 50                 push        eax
  10005846: FF 75 FC           push        dword ptr [ebp-4]
  10005849: 57                 push        edi
  1000584A: 53                 push        ebx
  1000584B: 56                 push        esi
  1000584C: 50                 push        eax
  1000584D: 50                 push        eax
  1000584E: E8 BA FE FF FF     call        1000570D
  10005853: 83 C4 20           add         esp,20h
  10005856: 85 C0              test        eax,eax
  10005858: 74 06              je          10005860
  1000585A: 8B DF              mov         ebx,edi
  1000585C: 33 FF              xor         edi,edi
  1000585E: EB 02              jmp         10005862
  10005860: 33 DB              xor         ebx,ebx
  10005862: 57                 push        edi
  10005863: E8 AB EB FF FF     call        10004413
  10005868: 59                 pop         ecx
  10005869: EB 02              jmp         1000586D
  1000586B: 8B DF              mov         ebx,edi
  1000586D: 85 F6              test        esi,esi
  1000586F: 74 07              je          10005878
  10005871: 56                 push        esi
  10005872: FF 15 BC B0 00 10  call        dword ptr ds:[1000B0BCh]
  10005878: 5F                 pop         edi
  10005879: 5E                 pop         esi
  1000587A: 8B C3              mov         eax,ebx
  1000587C: 5B                 pop         ebx
  1000587D: C9                 leave
  1000587E: C3                 ret
  1000587F: 8B FF              mov         edi,edi
  10005881: 55                 push        ebp
  10005882: 8B EC              mov         ebp,esp
  10005884: 56                 push        esi
  10005885: 8B 75 0C           mov         esi,dword ptr [ebp+0Ch]
  10005888: 85 F6              test        esi,esi
  1000588A: 74 1B              je          100058A7
  1000588C: 6A E0              push        0FFFFFFE0h
  1000588E: 33 D2              xor         edx,edx
  10005890: 58                 pop         eax
  10005891: F7 F6              div         eax,esi
  10005893: 3B 45 10           cmp         eax,dword ptr [ebp+10h]
  10005896: 73 0F              jae         100058A7
  10005898: E8 06 EB FF FF     call        100043A3
  1000589D: C7 00 0C 00 00 00  mov         dword ptr [eax],0Ch
  100058A3: 33 C0              xor         eax,eax
  100058A5: EB 42              jmp         100058E9
  100058A7: 53                 push        ebx
  100058A8: 8B 5D 08           mov         ebx,dword ptr [ebp+8]
  100058AB: 57                 push        edi
  100058AC: 85 DB              test        ebx,ebx
  100058AE: 74 0B              je          100058BB
  100058B0: 53                 push        ebx
  100058B1: E8 63 1F 00 00     call        10007819
  100058B6: 59                 pop         ecx
  100058B7: 8B F8              mov         edi,eax
  100058B9: EB 02              jmp         100058BD
  100058BB: 33 FF              xor         edi,edi
  100058BD: 0F AF 75 10        imul        esi,dword ptr [ebp+10h]
  100058C1: 56                 push        esi
  100058C2: 53                 push        ebx
  100058C3: E8 84 1F 00 00     call        1000784C
  100058C8: 8B D8              mov         ebx,eax
  100058CA: 59                 pop         ecx
  100058CB: 59                 pop         ecx
  100058CC: 85 DB              test        ebx,ebx
  100058CE: 74 15              je          100058E5
  100058D0: 3B FE              cmp         edi,esi
  100058D2: 73 11              jae         100058E5
  100058D4: 2B F7              sub         esi,edi
  100058D6: 8D 04 3B           lea         eax,[ebx+edi]
  100058D9: 56                 push        esi
  100058DA: 6A 00              push        0
  100058DC: 50                 push        eax
  100058DD: E8 4E C6 FF FF     call        10001F30
  100058E2: 83 C4 0C           add         esp,0Ch
  100058E5: 5F                 pop         edi
  100058E6: 8B C3              mov         eax,ebx
  100058E8: 5B                 pop         ebx
  100058E9: 5E                 pop         esi
  100058EA: 5D                 pop         ebp
  100058EB: C3                 ret
  100058EC: 68 9C C3 00 10     push        1000C39Ch
  100058F1: 68 98 C3 00 10     push        1000C398h
  100058F6: 68 9C C3 00 10     push        1000C39Ch
  100058FB: 6A 00              push        0
  100058FD: E8 FF 00 00 00     call        10005A01
  10005902: 83 C4 10           add         esp,10h
  10005905: C3                 ret
  10005906: 68 DC C3 00 10     push        1000C3DCh
  1000590B: 68 D4 C3 00 10     push        1000C3D4h
  10005910: 68 DC C3 00 10     push        1000C3DCh
  10005915: 6A 14              push        14h
  10005917: E8 E5 00 00 00     call        10005A01
  1000591C: 83 C4 10           add         esp,10h
  1000591F: C3                 ret
  10005920: 68 F4 C3 00 10     push        1000C3F4h
  10005925: 68 EC C3 00 10     push        1000C3ECh
  1000592A: 68 F4 C3 00 10     push        1000C3F4h
  1000592F: 6A 16              push        16h
  10005931: E8 CB 00 00 00     call        10005A01
  10005936: 83 C4 10           add         esp,10h
  10005939: C3                 ret
  1000593A: 8B FF              mov         edi,edi
  1000593C: 55                 push        ebp
  1000593D: 8B EC              mov         ebp,esp
  1000593F: 51                 push        ecx
  10005940: 53                 push        ebx
  10005941: 56                 push        esi
  10005942: 57                 push        edi
  10005943: 8B 7D 08           mov         edi,dword ptr [ebp+8]
  10005946: E9 A2 00 00 00     jmp         100059ED
  1000594B: 8B 1F              mov         ebx,dword ptr [edi]
  1000594D: 8D 04 9D 48 1F 01  lea         eax,[ebx*4+10011F48h]
            10
  10005954: 8B 30              mov         esi,dword ptr [eax]
  10005956: 89 45 FC           mov         dword ptr [ebp-4],eax
  10005959: 90                 nop
  1000595A: 85 F6              test        esi,esi
  1000595C: 74 0B              je          10005969
  1000595E: 83 FE FF           cmp         esi,0FFFFFFFFh
  10005961: 0F 84 83 00 00 00  je          100059EA
  10005967: EB 7D              jmp         100059E6
  10005969: 8B 1C 9D 20 BF 00  mov         ebx,dword ptr [ebx*4+1000BF20h]
            10
  10005970: 68 00 08 00 00     push        800h
  10005975: 6A 00              push        0
  10005977: 53                 push        ebx
  10005978: FF 15 70 B0 00 10  call        dword ptr ds:[1000B070h]
  1000597E: 8B F0              mov         esi,eax
  10005980: 85 F6              test        esi,esi
  10005982: 75 50              jne         100059D4
  10005984: FF 15 40 B0 00 10  call        dword ptr ds:[1000B040h]
  1000598A: 83 F8 57           cmp         eax,57h
  1000598D: 75 35              jne         100059C4
  1000598F: 6A 07              push        7
  10005991: 68 AC BB 00 10     push        1000BBACh
  10005996: 53                 push        ebx
  10005997: E8 D7 E0 FF FF     call        10003A73
  1000599C: 83 C4 0C           add         esp,0Ch
  1000599F: 85 C0              test        eax,eax
  100059A1: 74 21              je          100059C4
  100059A3: 6A 07              push        7
  100059A5: 68 88 C3 00 10     push        1000C388h
  100059AA: 53                 push        ebx
  100059AB: E8 C3 E0 FF FF     call        10003A73
  100059B0: 83 C4 0C           add         esp,0Ch
  100059B3: 85 C0              test        eax,eax
  100059B5: 74 0D              je          100059C4
  100059B7: 56                 push        esi
  100059B8: 56                 push        esi
  100059B9: 53                 push        ebx
  100059BA: FF 15 70 B0 00 10  call        dword ptr ds:[1000B070h]
  100059C0: 8B F0              mov         esi,eax
  100059C2: EB 02              jmp         100059C6
  100059C4: 33 F6              xor         esi,esi
  100059C6: 85 F6              test        esi,esi
  100059C8: 75 0A              jne         100059D4
  100059CA: 8B 4D FC           mov         ecx,dword ptr [ebp-4]
  100059CD: 83 C8 FF           or          eax,0FFFFFFFFh
  100059D0: 87 01              xchg        eax,dword ptr [ecx]
  100059D2: EB 16              jmp         100059EA
  100059D4: 8B 4D FC           mov         ecx,dword ptr [ebp-4]
  100059D7: 8B C6              mov         eax,esi
  100059D9: 87 01              xchg        eax,dword ptr [ecx]
  100059DB: 85 C0              test        eax,eax
  100059DD: 74 07              je          100059E6
  100059DF: 56                 push        esi
  100059E0: FF 15 68 B0 00 10  call        dword ptr ds:[1000B068h]
  100059E6: 85 F6              test        esi,esi
  100059E8: 75 13              jne         100059FD
  100059EA: 83 C7 04           add         edi,4
  100059ED: 3B 7D 0C           cmp         edi,dword ptr [ebp+0Ch]
  100059F0: 0F 85 55 FF FF FF  jne         1000594B
  100059F6: 33 C0              xor         eax,eax
  100059F8: 5F                 pop         edi
  100059F9: 5E                 pop         esi
  100059FA: 5B                 pop         ebx
  100059FB: C9                 leave
  100059FC: C3                 ret
  100059FD: 8B C6              mov         eax,esi
  100059FF: EB F7              jmp         100059F8
  10005A01: 8B FF              mov         edi,edi
  10005A03: 55                 push        ebp
  10005A04: 8B EC              mov         ebp,esp
  10005A06: 8B 45 08           mov         eax,dword ptr [ebp+8]
  10005A09: 53                 push        ebx
  10005A0A: 57                 push        edi
  10005A0B: 8D 1C 85 98 1F 01  lea         ebx,[eax*4+10011F98h]
            10
  10005A12: 8B 03              mov         eax,dword ptr [ebx]
  10005A14: 90                 nop
  10005A15: 8B 15 10 10 01 10  mov         edx,dword ptr ds:[10011010h]
  10005A1B: 83 CF FF           or          edi,0FFFFFFFFh
  10005A1E: 8B CA              mov         ecx,edx
  10005A20: 33 D0              xor         edx,eax
  10005A22: 83 E1 1F           and         ecx,1Fh
  10005A25: D3 CA              ror         edx,cl
  10005A27: 3B D7              cmp         edx,edi
  10005A29: 75 04              jne         10005A2F
  10005A2B: 33 C0              xor         eax,eax
  10005A2D: EB 51              jmp         10005A80
  10005A2F: 85 D2              test        edx,edx
  10005A31: 74 04              je          10005A37
  10005A33: 8B C2              mov         eax,edx
  10005A35: EB 49              jmp         10005A80
  10005A37: 56                 push        esi
  10005A38: FF 75 14           push        dword ptr [ebp+14h]
  10005A3B: FF 75 10           push        dword ptr [ebp+10h]
  10005A3E: E8 F7 FE FF FF     call        1000593A
  10005A43: 59                 pop         ecx
  10005A44: 59                 pop         ecx
  10005A45: 85 C0              test        eax,eax
  10005A47: 74 1D              je          10005A66
  10005A49: FF 75 0C           push        dword ptr [ebp+0Ch]
  10005A4C: 50                 push        eax
  10005A4D: FF 15 6C B0 00 10  call        dword ptr ds:[1000B06Ch]
  10005A53: 8B F0              mov         esi,eax
  10005A55: 85 F6              test        esi,esi
  10005A57: 74 0D              je          10005A66
  10005A59: 56                 push        esi
  10005A5A: E8 39 DD FF FF     call        10003798
  10005A5F: 59                 pop         ecx
  10005A60: 87 03              xchg        eax,dword ptr [ebx]
  10005A62: 8B C6              mov         eax,esi
  10005A64: EB 19              jmp         10005A7F
  10005A66: A1 10 10 01 10     mov         eax,dword ptr ds:[10011010h]
  10005A6B: 6A 20              push        20h
  10005A6D: 83 E0 1F           and         eax,1Fh
  10005A70: 59                 pop         ecx
  10005A71: 2B C8              sub         ecx,eax
  10005A73: D3 CF              ror         edi,cl
  10005A75: 33 3D 10 10 01 10  xor         edi,dword ptr ds:[10011010h]
  10005A7B: 87 3B              xchg        edi,dword ptr [ebx]
  10005A7D: 33 C0              xor         eax,eax
  10005A7F: 5E                 pop         esi
  10005A80: 5F                 pop         edi
  10005A81: 5B                 pop         ebx
  10005A82: 5D                 pop         ebp
  10005A83: C3                 ret
  10005A84: 8B FF              mov         edi,edi
  10005A86: 55                 push        ebp
  10005A87: 8B EC              mov         ebp,esp
  10005A89: 56                 push        esi
  10005A8A: 68 0C C4 00 10     push        1000C40Ch
  10005A8F: 68 08 C4 00 10     push        1000C408h
  10005A94: 68 0C C4 00 10     push        1000C40Ch
  10005A99: 6A 1C              push        1Ch
  10005A9B: E8 61 FF FF FF     call        10005A01
  10005AA0: 8B F0              mov         esi,eax
  10005AA2: 83 C4 10           add         esp,10h
  10005AA5: 85 F6              test        esi,esi
  10005AA7: 74 11              je          10005ABA
  10005AA9: FF 75 08           push        dword ptr [ebp+8]
  10005AAC: 8B CE              mov         ecx,esi
  10005AAE: 6A FA              push        0FFFFFFFAh
  10005AB0: FF 15 04 B1 00 10  call        dword ptr ds:[1000B104h]
  10005AB6: FF D6              call        esi
  10005AB8: EB 05              jmp         10005ABF
  10005ABA: B8 25 02 00 C0     mov         eax,0C0000225h
  10005ABF: 5E                 pop         esi
  10005AC0: 5D                 pop         ebp
  10005AC1: C2 04 00           ret         4
  10005AC4: 8B FF              mov         edi,edi
  10005AC6: 56                 push        esi
  10005AC7: E8 20 FE FF FF     call        100058EC
  10005ACC: 8B F0              mov         esi,eax
  10005ACE: 85 F6              test        esi,esi
  10005AD0: 74 0C              je          10005ADE
  10005AD2: 8B CE              mov         ecx,esi
  10005AD4: FF 15 04 B1 00 10  call        dword ptr ds:[1000B104h]
  10005ADA: FF D6              call        esi
  10005ADC: 5E                 pop         esi
  10005ADD: C3                 ret
  10005ADE: 33 C0              xor         eax,eax
  10005AE0: 40                 inc         eax
  10005AE1: 5E                 pop         esi
  10005AE2: C3                 ret
  10005AE3: 8B FF              mov         edi,edi
  10005AE5: 55                 push        ebp
  10005AE6: 8B EC              mov         ebp,esp
  10005AE8: 56                 push        esi
  10005AE9: 68 B4 C3 00 10     push        1000C3B4h
  10005AEE: 68 AC C3 00 10     push        1000C3ACh
  10005AF3: 68 C4 BB 00 10     push        1000BBC4h
  10005AF8: 6A 03              push        3
  10005AFA: E8 02 FF FF FF     call        10005A01
  10005AFF: 8B F0              mov         esi,eax
  10005B01: 83 C4 10           add         esp,10h
  10005B04: 85 F6              test        esi,esi
  10005B06: 74 0F              je          10005B17
  10005B08: FF 75 08           push        dword ptr [ebp+8]
  10005B0B: 8B CE              mov         ecx,esi
  10005B0D: FF 15 04 B1 00 10  call        dword ptr ds:[1000B104h]
  10005B13: FF D6              call        esi
  10005B15: EB 06              jmp         10005B1D
  10005B17: FF 15 58 B0 00 10  call        dword ptr ds:[1000B058h]
  10005B1D: 5E                 pop         esi
  10005B1E: 5D                 pop         ebp
  10005B1F: C2 04 00           ret         4
  10005B22: 8B FF              mov         edi,edi
  10005B24: 55                 push        ebp
  10005B25: 8B EC              mov         ebp,esp
  10005B27: 56                 push        esi
  10005B28: 68 BC C3 00 10     push        1000C3BCh
  10005B2D: 68 B4 C3 00 10     push        1000C3B4h
  10005B32: 68 D8 BB 00 10     push        1000BBD8h
  10005B37: 6A 04              push        4
  10005B39: E8 C3 FE FF FF     call        10005A01
  10005B3E: 8B F0              mov         esi,eax
  10005B40: 83 C4 10           add         esp,10h
  10005B43: 85 F6              test        esi,esi
  10005B45: 74 12              je          10005B59
  10005B47: FF 75 08           push        dword ptr [ebp+8]
  10005B4A: 8B CE              mov         ecx,esi
  10005B4C: FF 15 04 B1 00 10  call        dword ptr ds:[1000B104h]
  10005B52: FF D6              call        esi
  10005B54: 5E                 pop         esi
  10005B55: 5D                 pop         ebp
  10005B56: C2 04 00           ret         4
  10005B59: 5E                 pop         esi
  10005B5A: 5D                 pop         ebp
  10005B5B: FF 25 64 B0 00 10  jmp         dword ptr ds:[1000B064h]
  10005B61: 8B FF              mov         edi,edi
  10005B63: 55                 push        ebp
  10005B64: 8B EC              mov         ebp,esp
  10005B66: 56                 push        esi
  10005B67: 68 C4 C3 00 10     push        1000C3C4h
  10005B6C: 68 BC C3 00 10     push        1000C3BCh
  10005B71: 68 E8 BB 00 10     push        1000BBE8h
  10005B76: 6A 05              push        5
  10005B78: E8 84 FE FF FF     call        10005A01
  10005B7D: 8B F0              mov         esi,eax
  10005B7F: 83 C4 10           add         esp,10h
  10005B82: 85 F6              test        esi,esi
  10005B84: 74 12              je          10005B98
  10005B86: FF 75 08           push        dword ptr [ebp+8]
  10005B89: 8B CE              mov         ecx,esi
  10005B8B: FF 15 04 B1 00 10  call        dword ptr ds:[1000B104h]
  10005B91: FF D6              call        esi
  10005B93: 5E                 pop         esi
  10005B94: 5D                 pop         ebp
  10005B95: C2 04 00           ret         4
  10005B98: 5E                 pop         esi
  10005B99: 5D                 pop         ebp
  10005B9A: FF 25 5C B0 00 10  jmp         dword ptr ds:[1000B05Ch]
  10005BA0: 8B FF              mov         edi,edi
  10005BA2: 55                 push        ebp
  10005BA3: 8B EC              mov         ebp,esp
  10005BA5: 56                 push        esi
  10005BA6: 68 CC C3 00 10     push        1000C3CCh
  10005BAB: 68 C4 C3 00 10     push        1000C3C4h
  10005BB0: 68 FC BB 00 10     push        1000BBFCh
  10005BB5: 6A 06              push        6
  10005BB7: E8 45 FE FF FF     call        10005A01
  10005BBC: 8B F0              mov         esi,eax
  10005BBE: 83 C4 10           add         esp,10h
  10005BC1: 85 F6              test        esi,esi
  10005BC3: 74 15              je          10005BDA
  10005BC5: FF 75 0C           push        dword ptr [ebp+0Ch]
  10005BC8: 8B CE              mov         ecx,esi
  10005BCA: FF 75 08           push        dword ptr [ebp+8]
  10005BCD: FF 15 04 B1 00 10  call        dword ptr ds:[1000B104h]
  10005BD3: FF D6              call        esi
  10005BD5: 5E                 pop         esi
  10005BD6: 5D                 pop         ebp
  10005BD7: C2 08 00           ret         8
  10005BDA: 5E                 pop         esi
  10005BDB: 5D                 pop         ebp
  10005BDC: FF 25 60 B0 00 10  jmp         dword ptr ds:[1000B060h]
  10005BE2: 8B FF              mov         edi,edi
  10005BE4: 55                 push        ebp
  10005BE5: 8B EC              mov         ebp,esp
  10005BE7: 56                 push        esi
  10005BE8: 68 D4 C3 00 10     push        1000C3D4h
  10005BED: 68 CC C3 00 10     push        1000C3CCh
  10005BF2: 68 10 BC 00 10     push        1000BC10h
  10005BF7: 6A 12              push        12h
  10005BF9: E8 03 FE FF FF     call        10005A01
  10005BFE: 8B F0              mov         esi,eax
  10005C00: 83 C4 10           add         esp,10h
  10005C03: 85 F6              test        esi,esi
  10005C05: 74 15              je          10005C1C
  10005C07: FF 75 10           push        dword ptr [ebp+10h]
  10005C0A: 8B CE              mov         ecx,esi
  10005C0C: FF 75 0C           push        dword ptr [ebp+0Ch]
  10005C0F: FF 75 08           push        dword ptr [ebp+8]
  10005C12: FF 15 04 B1 00 10  call        dword ptr ds:[1000B104h]
  10005C18: FF D6              call        esi
  10005C1A: EB 0C              jmp         10005C28
  10005C1C: FF 75 0C           push        dword ptr [ebp+0Ch]
  10005C1F: FF 75 08           push        dword ptr [ebp+8]
  10005C22: FF 15 54 B0 00 10  call        dword ptr ds:[1000B054h]
  10005C28: 5E                 pop         esi
  10005C29: 5D                 pop         ebp
  10005C2A: C2 0C 00           ret         0Ch
  10005C2D: 8B FF              mov         edi,edi
  10005C2F: 55                 push        ebp
  10005C30: 8B EC              mov         ebp,esp
  10005C32: 56                 push        esi
  10005C33: E8 CE FC FF FF     call        10005906
  10005C38: 8B F0              mov         esi,eax
  10005C3A: 85 F6              test        esi,esi
  10005C3C: 74 27              je          10005C65
  10005C3E: FF 75 28           push        dword ptr [ebp+28h]
  10005C41: 8B CE              mov         ecx,esi
  10005C43: FF 75 24           push        dword ptr [ebp+24h]
  10005C46: FF 75 20           push        dword ptr [ebp+20h]
  10005C49: FF 75 1C           push        dword ptr [ebp+1Ch]
  10005C4C: FF 75 18           push        dword ptr [ebp+18h]
  10005C4F: FF 75 14           push        dword ptr [ebp+14h]
  10005C52: FF 75 10           push        dword ptr [ebp+10h]
  10005C55: FF 75 0C           push        dword ptr [ebp+0Ch]
  10005C58: FF 75 08           push        dword ptr [ebp+8]
  10005C5B: FF 15 04 B1 00 10  call        dword ptr ds:[1000B104h]
  10005C61: FF D6              call        esi
  10005C63: EB 20              jmp         10005C85
  10005C65: FF 75 1C           push        dword ptr [ebp+1Ch]
  10005C68: FF 75 18           push        dword ptr [ebp+18h]
  10005C6B: FF 75 14           push        dword ptr [ebp+14h]
  10005C6E: FF 75 10           push        dword ptr [ebp+10h]
  10005C71: FF 75 0C           push        dword ptr [ebp+0Ch]
  10005C74: 6A 00              push        0
  10005C76: FF 75 08           push        dword ptr [ebp+8]
  10005C79: E8 0C 00 00 00     call        10005C8A
  10005C7E: 50                 push        eax
  10005C7F: FF 15 C0 B0 00 10  call        dword ptr ds:[1000B0C0h]
  10005C85: 5E                 pop         esi
  10005C86: 5D                 pop         ebp
  10005C87: C2 24 00           ret         24h
  10005C8A: 8B FF              mov         edi,edi
  10005C8C: 55                 push        ebp
  10005C8D: 8B EC              mov         ebp,esp
  10005C8F: 56                 push        esi
  10005C90: E8 8B FC FF FF     call        10005920
  10005C95: 8B F0              mov         esi,eax
  10005C97: 85 F6              test        esi,esi
  10005C99: 74 12              je          10005CAD
  10005C9B: FF 75 0C           push        dword ptr [ebp+0Ch]
  10005C9E: 8B CE              mov         ecx,esi
  10005CA0: FF 75 08           push        dword ptr [ebp+8]
  10005CA3: FF 15 04 B1 00 10  call        dword ptr ds:[1000B104h]
  10005CA9: FF D6              call        esi
  10005CAB: EB 09              jmp         10005CB6
  10005CAD: FF 75 08           push        dword ptr [ebp+8]
  10005CB0: E8 50 1C 00 00     call        10007905
  10005CB5: 59                 pop         ecx
  10005CB6: 5E                 pop         esi
  10005CB7: 5D                 pop         ebp
  10005CB8: C2 08 00           ret         8
  10005CBB: B9 20 20 01 10     mov         ecx,10012020h
  10005CC0: B8 98 1F 01 10     mov         eax,10011F98h
  10005CC5: 33 D2              xor         edx,edx
  10005CC7: 3B C8              cmp         ecx,eax
  10005CC9: 56                 push        esi
  10005CCA: 8B 35 10 10 01 10  mov         esi,dword ptr ds:[10011010h]
  10005CD0: 1B C9              sbb         ecx,ecx
  10005CD2: 83 E1 DE           and         ecx,0FFFFFFDEh
  10005CD5: 83 C1 22           add         ecx,22h
  10005CD8: 42                 inc         edx
  10005CD9: 89 30              mov         dword ptr [eax],esi
  10005CDB: 8D 40 04           lea         eax,[eax+4]
  10005CDE: 3B D1              cmp         edx,ecx
  10005CE0: 75 F6              jne         10005CD8
  10005CE2: B0 01              mov         al,1
  10005CE4: 5E                 pop         esi
  10005CE5: C3                 ret
  10005CE6: 8B FF              mov         edi,edi
  10005CE8: 55                 push        ebp
  10005CE9: 8B EC              mov         ebp,esp
  10005CEB: 80 7D 08 00        cmp         byte ptr [ebp+8],0
  10005CEF: 75 27              jne         10005D18
  10005CF1: 56                 push        esi
  10005CF2: BE 48 1F 01 10     mov         esi,10011F48h
  10005CF7: 83 3E 00           cmp         dword ptr [esi],0
  10005CFA: 74 10              je          10005D0C
  10005CFC: 83 3E FF           cmp         dword ptr [esi],0FFFFFFFFh
  10005CFF: 74 08              je          10005D09
  10005D01: FF 36              push        dword ptr [esi]
  10005D03: FF 15 68 B0 00 10  call        dword ptr ds:[1000B068h]
  10005D09: 83 26 00           and         dword ptr [esi],0
  10005D0C: 83 C6 04           add         esi,4
  10005D0F: 81 FE 98 1F 01 10  cmp         esi,10011F98h
  10005D15: 75 E0              jne         10005CF7
  10005D17: 5E                 pop         esi
  10005D18: B0 01              mov         al,1
  10005D1A: 5D                 pop         ebp
  10005D1B: C3                 ret
  10005D1C: FF 15 C4 B0 00 10  call        dword ptr ds:[1000B0C4h]
  10005D22: 85 C0              test        eax,eax
  10005D24: A3 20 20 01 10     mov         dword ptr ds:[10012020h],eax
  10005D29: 0F 95 C0           setne       al
  10005D2C: C3                 ret
  10005D2D: 83 25 20 20 01 10  and         dword ptr ds:[10012020h],0
            00
  10005D34: B0 01              mov         al,1
  10005D36: C3                 ret
  10005D37: 8B FF              mov         edi,edi
  10005D39: 55                 push        ebp
  10005D3A: 8B EC              mov         ebp,esp
  10005D3C: 83 EC 48           sub         esp,48h
  10005D3F: 8D 45 B8           lea         eax,[ebp-48h]
  10005D42: 50                 push        eax
  10005D43: FF 15 20 B0 00 10  call        dword ptr ds:[1000B020h]
  10005D49: 66 83 7D EA 00     cmp         word ptr [ebp-16h],0
  10005D4E: 0F 84 97 00 00 00  je          10005DEB
  10005D54: 53                 push        ebx
  10005D55: 8B 5D EC           mov         ebx,dword ptr [ebp-14h]
  10005D58: 85 DB              test        ebx,ebx
  10005D5A: 0F 84 8A 00 00 00  je          10005DEA
  10005D60: 56                 push        esi
  10005D61: 8B 33              mov         esi,dword ptr [ebx]
  10005D63: 8D 43 04           lea         eax,[ebx+4]
  10005D66: 03 C6              add         eax,esi
  10005D68: 89 45 FC           mov         dword ptr [ebp-4],eax
  10005D6B: B8 00 20 00 00     mov         eax,2000h
  10005D70: 3B F0              cmp         esi,eax
  10005D72: 7C 02              jl          10005D76
  10005D74: 8B F0              mov         esi,eax
  10005D76: 56                 push        esi
  10005D77: E8 65 1C 00 00     call        100079E1
  10005D7C: A1 28 22 01 10     mov         eax,dword ptr ds:[10012228h]
  10005D81: 59                 pop         ecx
  10005D82: 3B F0              cmp         esi,eax
  10005D84: 7E 02              jle         10005D88
  10005D86: 8B F0              mov         esi,eax
  10005D88: 57                 push        edi
  10005D89: 33 FF              xor         edi,edi
  10005D8B: 85 F6              test        esi,esi
  10005D8D: 74 59              je          10005DE8
  10005D8F: 8B 45 FC           mov         eax,dword ptr [ebp-4]
  10005D92: 8B 08              mov         ecx,dword ptr [eax]
  10005D94: 83 F9 FF           cmp         ecx,0FFFFFFFFh
  10005D97: 74 44              je          10005DDD
  10005D99: 83 F9 FE           cmp         ecx,0FFFFFFFEh
  10005D9C: 74 3F              je          10005DDD
  10005D9E: 8A 54 1F 04        mov         dl,byte ptr [edi+ebx+4]
  10005DA2: F6 C2 01           test        dl,1
  10005DA5: 74 36              je          10005DDD
  10005DA7: F6 C2 08           test        dl,8
  10005DAA: 75 0B              jne         10005DB7
  10005DAC: 51                 push        ecx
  10005DAD: FF 15 CC B0 00 10  call        dword ptr ds:[1000B0CCh]
  10005DB3: 85 C0              test        eax,eax
  10005DB5: 74 23              je          10005DDA
  10005DB7: 8B C7              mov         eax,edi
  10005DB9: 8B CF              mov         ecx,edi
  10005DBB: 83 E0 3F           and         eax,3Fh
  10005DBE: C1 F9 06           sar         ecx,6
  10005DC1: 6B D0 38           imul        edx,eax,38h
  10005DC4: 8B 45 FC           mov         eax,dword ptr [ebp-4]
  10005DC7: 03 14 8D 28 20 01  add         edx,dword ptr [ecx*4+10012028h]
            10
  10005DCE: 8B 00              mov         eax,dword ptr [eax]
  10005DD0: 89 42 18           mov         dword ptr [edx+18h],eax
  10005DD3: 8A 44 1F 04        mov         al,byte ptr [edi+ebx+4]
  10005DD7: 88 42 28           mov         byte ptr [edx+28h],al
  10005DDA: 8B 45 FC           mov         eax,dword ptr [ebp-4]
  10005DDD: 47                 inc         edi
  10005DDE: 83 C0 04           add         eax,4
  10005DE1: 89 45 FC           mov         dword ptr [ebp-4],eax
  10005DE4: 3B FE              cmp         edi,esi
  10005DE6: 75 AA              jne         10005D92
  10005DE8: 5F                 pop         edi
  10005DE9: 5E                 pop         esi
  10005DEA: 5B                 pop         ebx
  10005DEB: C9                 leave
  10005DEC: C3                 ret
  10005DED: 8B FF              mov         edi,edi
  10005DEF: 53                 push        ebx
  10005DF0: 56                 push        esi
  10005DF1: 57                 push        edi
  10005DF2: 33 FF              xor         edi,edi
  10005DF4: 8B C7              mov         eax,edi
  10005DF6: 8B CF              mov         ecx,edi
  10005DF8: 83 E0 3F           and         eax,3Fh
  10005DFB: C1 F9 06           sar         ecx,6
  10005DFE: 6B F0 38           imul        esi,eax,38h
  10005E01: 03 34 8D 28 20 01  add         esi,dword ptr [ecx*4+10012028h]
            10
  10005E08: 83 7E 18 FF        cmp         dword ptr [esi+18h],0FFFFFFFFh
  10005E0C: 74 0C              je          10005E1A
  10005E0E: 83 7E 18 FE        cmp         dword ptr [esi+18h],0FFFFFFFEh
  10005E12: 74 06              je          10005E1A
  10005E14: 80 4E 28 80        or          byte ptr [esi+28h],80h
  10005E18: EB 79              jmp         10005E93
  10005E1A: 8B C7              mov         eax,edi
  10005E1C: C6 46 28 81        mov         byte ptr [esi+28h],81h
  10005E20: 83 E8 00           sub         eax,0
  10005E23: 74 10              je          10005E35
  10005E25: 83 E8 01           sub         eax,1
  10005E28: 74 07              je          10005E31
  10005E2A: 83 E8 01           sub         eax,1
  10005E2D: 6A F4              push        0FFFFFFF4h
  10005E2F: EB 06              jmp         10005E37
  10005E31: 6A F5              push        0FFFFFFF5h
  10005E33: EB 02              jmp         10005E37
  10005E35: 6A F6              push        0FFFFFFF6h
  10005E37: 58                 pop         eax
  10005E38: 50                 push        eax
  10005E39: FF 15 C8 B0 00 10  call        dword ptr ds:[1000B0C8h]
  10005E3F: 8B D8              mov         ebx,eax
  10005E41: 83 FB FF           cmp         ebx,0FFFFFFFFh
  10005E44: 74 0D              je          10005E53
  10005E46: 85 DB              test        ebx,ebx
  10005E48: 74 09              je          10005E53
  10005E4A: 53                 push        ebx
  10005E4B: FF 15 CC B0 00 10  call        dword ptr ds:[1000B0CCh]
  10005E51: EB 02              jmp         10005E55
  10005E53: 33 C0              xor         eax,eax
  10005E55: 85 C0              test        eax,eax
  10005E57: 74 1C              je          10005E75
  10005E59: 0F B6 C0           movzx       eax,al
  10005E5C: 89 5E 18           mov         dword ptr [esi+18h],ebx
  10005E5F: 83 F8 02           cmp         eax,2
  10005E62: 75 06              jne         10005E6A
  10005E64: 80 4E 28 40        or          byte ptr [esi+28h],40h
  10005E68: EB 29              jmp         10005E93
  10005E6A: 83 F8 03           cmp         eax,3
  10005E6D: 75 24              jne         10005E93
  10005E6F: 80 4E 28 08        or          byte ptr [esi+28h],8
  10005E73: EB 1E              jmp         10005E93
  10005E75: 80 4E 28 40        or          byte ptr [esi+28h],40h
  10005E79: C7 46 18 FE FF FF  mov         dword ptr [esi+18h],0FFFFFFFEh
            FF
  10005E80: A1 4C 22 01 10     mov         eax,dword ptr ds:[1001224Ch]
  10005E85: 85 C0              test        eax,eax
  10005E87: 74 0A              je          10005E93
  10005E89: 8B 04 B8           mov         eax,dword ptr [eax+edi*4]
  10005E8C: C7 40 10 FE FF FF  mov         dword ptr [eax+10h],0FFFFFFFEh
            FF
  10005E93: 47                 inc         edi
  10005E94: 83 FF 03           cmp         edi,3
  10005E97: 0F 85 57 FF FF FF  jne         10005DF4
  10005E9D: 5F                 pop         edi
  10005E9E: 5E                 pop         esi
  10005E9F: 5B                 pop         ebx
  10005EA0: C3                 ret
  10005EA1: 6A 0C              push        0Ch
  10005EA3: 68 E0 01 01 10     push        100101E0h
  10005EA8: E8 03 BA FF FF     call        100018B0
  10005EAD: 6A 07              push        7
  10005EAF: E8 F6 E1 FF FF     call        100040AA
  10005EB4: 59                 pop         ecx
  10005EB5: 33 DB              xor         ebx,ebx
  10005EB7: 88 5D E7           mov         byte ptr [ebp-19h],bl
  10005EBA: 89 5D FC           mov         dword ptr [ebp-4],ebx
  10005EBD: 53                 push        ebx
  10005EBE: E8 1E 1B 00 00     call        100079E1
  10005EC3: 59                 pop         ecx
  10005EC4: 85 C0              test        eax,eax
  10005EC6: 75 0F              jne         10005ED7
  10005EC8: E8 6A FE FF FF     call        10005D37
  10005ECD: E8 1B FF FF FF     call        10005DED
  10005ED2: B3 01              mov         bl,1
  10005ED4: 88 5D E7           mov         byte ptr [ebp-19h],bl
  10005ED7: C7 45 FC FE FF FF  mov         dword ptr [ebp-4],0FFFFFFFEh
            FF
  10005EDE: E8 15 00 00 00     call        10005EF8
  10005EE3: 8A C3              mov         al,bl
  10005EE5: 8B 4D F0           mov         ecx,dword ptr [ebp-10h]
  10005EE8: 64 89 0D 00 00 00  mov         dword ptr fs:[00000000h],ecx
            00
  10005EEF: 59                 pop         ecx
  10005EF0: 5F                 pop         edi
  10005EF1: 5E                 pop         esi
  10005EF2: 5B                 pop         ebx
  10005EF3: C9                 leave
  10005EF4: C3                 ret
  10005EF5: 8A 5D E7           mov         bl,byte ptr [ebp-19h]
  10005EF8: 6A 07              push        7
  10005EFA: E8 F3 E1 FF FF     call        100040F2
  10005EFF: 59                 pop         ecx
  10005F00: C3                 ret
  10005F01: 8B FF              mov         edi,edi
  10005F03: 56                 push        esi
  10005F04: 33 F6              xor         esi,esi
  10005F06: 8B 86 28 20 01 10  mov         eax,dword ptr [esi+10012028h]
  10005F0C: 85 C0              test        eax,eax
  10005F0E: 74 0E              je          10005F1E
  10005F10: 50                 push        eax
  10005F11: E8 96 1A 00 00     call        100079AC
  10005F16: 83 A6 28 20 01 10  and         dword ptr [esi+10012028h],0
            00
  10005F1D: 59                 pop         ecx
  10005F1E: 83 C6 04           add         esi,4
  10005F21: 81 FE 00 02 00 00  cmp         esi,200h
  10005F27: 72 DD              jb          10005F06
  10005F29: B0 01              mov         al,1
  10005F2B: 5E                 pop         esi
  10005F2C: C3                 ret
  10005F2D: 8B FF              mov         edi,edi
  10005F2F: 55                 push        ebp
  10005F30: 8B EC              mov         ebp,esp
  10005F32: 53                 push        ebx
  10005F33: 56                 push        esi
  10005F34: 57                 push        edi
  10005F35: 8B 7D 08           mov         edi,dword ptr [ebp+8]
  10005F38: 3B 7D 0C           cmp         edi,dword ptr [ebp+0Ch]
  10005F3B: 74 51              je          10005F8E
  10005F3D: 8B F7              mov         esi,edi
  10005F3F: 8B 1E              mov         ebx,dword ptr [esi]
  10005F41: 85 DB              test        ebx,ebx
  10005F43: 74 0E              je          10005F53
  10005F45: 8B CB              mov         ecx,ebx
  10005F47: FF 15 04 B1 00 10  call        dword ptr ds:[1000B104h]
  10005F4D: FF D3              call        ebx
  10005F4F: 84 C0              test        al,al
  10005F51: 74 08              je          10005F5B
  10005F53: 83 C6 08           add         esi,8
  10005F56: 3B 75 0C           cmp         esi,dword ptr [ebp+0Ch]
  10005F59: 75 E4              jne         10005F3F
  10005F5B: 3B 75 0C           cmp         esi,dword ptr [ebp+0Ch]
  10005F5E: 74 2E              je          10005F8E
  10005F60: 3B F7              cmp         esi,edi
  10005F62: 74 26              je          10005F8A
  10005F64: 83 C6 FC           add         esi,0FFFFFFFCh
  10005F67: 83 7E FC 00        cmp         dword ptr [esi-4],0
  10005F6B: 74 13              je          10005F80
  10005F6D: 8B 1E              mov         ebx,dword ptr [esi]
  10005F6F: 85 DB              test        ebx,ebx
  10005F71: 74 0D              je          10005F80
  10005F73: 6A 00              push        0
  10005F75: 8B CB              mov         ecx,ebx
  10005F77: FF 15 04 B1 00 10  call        dword ptr ds:[1000B104h]
  10005F7D: FF D3              call        ebx
  10005F7F: 59                 pop         ecx
  10005F80: 83 EE 08           sub         esi,8
  10005F83: 8D 46 04           lea         eax,[esi+4]
  10005F86: 3B C7              cmp         eax,edi
  10005F88: 75 DD              jne         10005F67
  10005F8A: 32 C0              xor         al,al
  10005F8C: EB 02              jmp         10005F90
  10005F8E: B0 01              mov         al,1
  10005F90: 5F                 pop         edi
  10005F91: 5E                 pop         esi
  10005F92: 5B                 pop         ebx
  10005F93: 5D                 pop         ebp
  10005F94: C3                 ret
  10005F95: 8B FF              mov         edi,edi
  10005F97: 55                 push        ebp
  10005F98: 8B EC              mov         ebp,esp
  10005F9A: 56                 push        esi
  10005F9B: 8B 75 0C           mov         esi,dword ptr [ebp+0Ch]
  10005F9E: 39 75 08           cmp         dword ptr [ebp+8],esi
  10005FA1: 74 1E              je          10005FC1
  10005FA3: 57                 push        edi
  10005FA4: 8B 7E FC           mov         edi,dword ptr [esi-4]
  10005FA7: 85 FF              test        edi,edi
  10005FA9: 74 0D              je          10005FB8
  10005FAB: 6A 00              push        0
  10005FAD: 8B CF              mov         ecx,edi
  10005FAF: FF 15 04 B1 00 10  call        dword ptr ds:[1000B104h]
  10005FB5: FF D7              call        edi
  10005FB7: 59                 pop         ecx
  10005FB8: 83 EE 08           sub         esi,8
  10005FBB: 3B 75 08           cmp         esi,dword ptr [ebp+8]
  10005FBE: 75 E4              jne         10005FA4
  10005FC0: 5F                 pop         edi
  10005FC1: B0 01              mov         al,1
  10005FC3: 5E                 pop         esi
  10005FC4: 5D                 pop         ebp
  10005FC5: C3                 ret
  10005FC6: 8B FF              mov         edi,edi
  10005FC8: 55                 push        ebp
  10005FC9: 8B EC              mov         ebp,esp
  10005FCB: 8B 45 08           mov         eax,dword ptr [ebp+8]
  10005FCE: A3 2C 22 01 10     mov         dword ptr ds:[1001222Ch],eax
  10005FD3: 5D                 pop         ebp
  10005FD4: C3                 ret
  10005FD5: 8B FF              mov         edi,edi
  10005FD7: 55                 push        ebp
  10005FD8: 8B EC              mov         ebp,esp
  10005FDA: 56                 push        esi
  10005FDB: E8 22 00 00 00     call        10006002
  10005FE0: 8B F0              mov         esi,eax
  10005FE2: 85 F6              test        esi,esi
  10005FE4: 74 17              je          10005FFD
  10005FE6: FF 75 08           push        dword ptr [ebp+8]
  10005FE9: 8B CE              mov         ecx,esi
  10005FEB: FF 15 04 B1 00 10  call        dword ptr ds:[1000B104h]
  10005FF1: FF D6              call        esi
  10005FF3: 59                 pop         ecx
  10005FF4: 85 C0              test        eax,eax
  10005FF6: 74 05              je          10005FFD
  10005FF8: 33 C0              xor         eax,eax
  10005FFA: 40                 inc         eax
  10005FFB: EB 02              jmp         10005FFF
  10005FFD: 33 C0              xor         eax,eax
  10005FFF: 5E                 pop         esi
  10006000: 5D                 pop         ebp
  10006001: C3                 ret
  10006002: 6A 0C              push        0Ch
  10006004: 68 00 02 01 10     push        10010200h
  10006009: E8 A2 B8 FF FF     call        100018B0
  1000600E: 83 65 E4 00        and         dword ptr [ebp-1Ch],0
  10006012: 6A 00              push        0
  10006014: E8 91 E0 FF FF     call        100040AA
  10006019: 59                 pop         ecx
  1000601A: 83 65 FC 00        and         dword ptr [ebp-4],0
  1000601E: 8B 35 10 10 01 10  mov         esi,dword ptr ds:[10011010h]
  10006024: 8B CE              mov         ecx,esi
  10006026: 83 E1 1F           and         ecx,1Fh
  10006029: 33 35 2C 22 01 10  xor         esi,dword ptr ds:[1001222Ch]
  1000602F: D3 CE              ror         esi,cl
  10006031: 89 75 E4           mov         dword ptr [ebp-1Ch],esi
  10006034: C7 45 FC FE FF FF  mov         dword ptr [ebp-4],0FFFFFFFEh
            FF
  1000603B: E8 15 00 00 00     call        10006055
  10006040: 8B C6              mov         eax,esi
  10006042: 8B 4D F0           mov         ecx,dword ptr [ebp-10h]
  10006045: 64 89 0D 00 00 00  mov         dword ptr fs:[00000000h],ecx
            00
  1000604C: 59                 pop         ecx
  1000604D: 5F                 pop         edi
  1000604E: 5E                 pop         esi
  1000604F: 5B                 pop         ebx
  10006050: C9                 leave
  10006051: C3                 ret
  10006052: 8B 75 E4           mov         esi,dword ptr [ebp-1Ch]
  10006055: 6A 00              push        0
  10006057: E8 96 E0 FF FF     call        100040F2
  1000605C: 59                 pop         ecx
  1000605D: C3                 ret
  1000605E: 6A 0C              push        0Ch
  10006060: 68 40 02 01 10     push        10010240h
  10006065: E8 46 B8 FF FF     call        100018B0
  1000606A: 83 65 E4 00        and         dword ptr [ebp-1Ch],0
  1000606E: 8B 45 08           mov         eax,dword ptr [ebp+8]
  10006071: FF 30              push        dword ptr [eax]
  10006073: E8 32 E0 FF FF     call        100040AA
  10006078: 59                 pop         ecx
  10006079: 83 65 FC 00        and         dword ptr [ebp-4],0
  1000607D: 8B 35 10 10 01 10  mov         esi,dword ptr ds:[10011010h]
  10006083: 8B CE              mov         ecx,esi
  10006085: 83 E1 1F           and         ecx,1Fh
  10006088: 33 35 38 22 01 10  xor         esi,dword ptr ds:[10012238h]
  1000608E: D3 CE              ror         esi,cl
  10006090: 89 75 E4           mov         dword ptr [ebp-1Ch],esi
  10006093: C7 45 FC FE FF FF  mov         dword ptr [ebp-4],0FFFFFFFEh
            FF
  1000609A: E8 17 00 00 00     call        100060B6
  1000609F: 8B C6              mov         eax,esi
  100060A1: 8B 4D F0           mov         ecx,dword ptr [ebp-10h]
  100060A4: 64 89 0D 00 00 00  mov         dword ptr fs:[00000000h],ecx
            00
  100060AB: 59                 pop         ecx
  100060AC: 5F                 pop         edi
  100060AD: 5E                 pop         esi
  100060AE: 5B                 pop         ebx
  100060AF: C9                 leave
  100060B0: C2 0C 00           ret         0Ch
  100060B3: 8B 75 E4           mov         esi,dword ptr [ebp-1Ch]
  100060B6: 8B 4D 10           mov         ecx,dword ptr [ebp+10h]
  100060B9: FF 31              push        dword ptr [ecx]
  100060BB: E8 32 E0 FF FF     call        100040F2
  100060C0: 59                 pop         ecx
  100060C1: C3                 ret
  100060C2: 8B FF              mov         edi,edi
  100060C4: 55                 push        ebp
  100060C5: 8B EC              mov         ebp,esp
  100060C7: 8B 45 08           mov         eax,dword ptr [ebp+8]
  100060CA: 48                 dec         eax
  100060CB: 83 E8 01           sub         eax,1
  100060CE: 74 2D              je          100060FD
  100060D0: 83 E8 04           sub         eax,4
  100060D3: 74 21              je          100060F6
  100060D5: 83 E8 09           sub         eax,9
  100060D8: 74 15              je          100060EF
  100060DA: 83 E8 06           sub         eax,6
  100060DD: 74 09              je          100060E8
  100060DF: 83 E8 01           sub         eax,1
  100060E2: 74 12              je          100060F6
  100060E4: 33 C0              xor         eax,eax
  100060E6: 5D                 pop         ebp
  100060E7: C3                 ret
  100060E8: B8 34 22 01 10     mov         eax,10012234h
  100060ED: 5D                 pop         ebp
  100060EE: C3                 ret
  100060EF: B8 3C 22 01 10     mov         eax,1001223Ch
  100060F4: 5D                 pop         ebp
  100060F5: C3                 ret
  100060F6: B8 38 22 01 10     mov         eax,10012238h
  100060FB: 5D                 pop         ebp
  100060FC: C3                 ret
  100060FD: B8 30 22 01 10     mov         eax,10012230h
  10006102: 5D                 pop         ebp
  10006103: C3                 ret
  10006104: 8B FF              mov         edi,edi
  10006106: 55                 push        ebp
  10006107: 8B EC              mov         ebp,esp
  10006109: 6B 0D C0 BC 00 10  imul        ecx,dword ptr ds:[1000BCC0h],0Ch
            0C
  10006110: 8B 45 0C           mov         eax,dword ptr [ebp+0Ch]
  10006113: 03 C8              add         ecx,eax
  10006115: 3B C1              cmp         eax,ecx
  10006117: 74 0F              je          10006128
  10006119: 8B 55 08           mov         edx,dword ptr [ebp+8]
  1000611C: 39 50 04           cmp         dword ptr [eax+4],edx
  1000611F: 74 09              je          1000612A
  10006121: 83 C0 0C           add         eax,0Ch
  10006124: 3B C1              cmp         eax,ecx
  10006126: 75 F4              jne         1000611C
  10006128: 33 C0              xor         eax,eax
  1000612A: 5D                 pop         ebp
  1000612B: C3                 ret
  1000612C: 8B FF              mov         edi,edi
  1000612E: 55                 push        ebp
  1000612F: 8B EC              mov         ebp,esp
  10006131: 83 EC 0C           sub         esp,0Ch
  10006134: 6A 03              push        3
  10006136: 58                 pop         eax
  10006137: 89 45 F8           mov         dword ptr [ebp-8],eax
  1000613A: 8D 4D FF           lea         ecx,[ebp-1]
  1000613D: 89 45 F4           mov         dword ptr [ebp-0Ch],eax
  10006140: 8D 45 F8           lea         eax,[ebp-8]
  10006143: 50                 push        eax
  10006144: 8D 45 FF           lea         eax,[ebp-1]
  10006147: 50                 push        eax
  10006148: 8D 45 F4           lea         eax,[ebp-0Ch]
  1000614B: 50                 push        eax
  1000614C: E8 0D FF FF FF     call        1000605E
  10006151: C9                 leave
  10006152: C3                 ret
  10006153: 8B FF              mov         edi,edi
  10006155: 55                 push        ebp
  10006156: 8B EC              mov         ebp,esp
  10006158: 8B 45 08           mov         eax,dword ptr [ebp+8]
  1000615B: A3 30 22 01 10     mov         dword ptr ds:[10012230h],eax
  10006160: A3 34 22 01 10     mov         dword ptr ds:[10012234h],eax
  10006165: A3 38 22 01 10     mov         dword ptr ds:[10012238h],eax
  1000616A: A3 3C 22 01 10     mov         dword ptr ds:[1001223Ch],eax
  1000616F: 5D                 pop         ebp
  10006170: C3                 ret
  10006171: 6A 24              push        24h
  10006173: 68 20 02 01 10     push        10010220h
  10006178: E8 33 B7 FF FF     call        100018B0
  1000617D: 83 65 E0 00        and         dword ptr [ebp-20h],0
  10006181: 83 65 D0 00        and         dword ptr [ebp-30h],0
  10006185: B1 01              mov         cl,1
  10006187: 88 4D E7           mov         byte ptr [ebp-19h],cl
  1000618A: 8B 75 08           mov         esi,dword ptr [ebp+8]
  1000618D: 6A 08              push        8
  1000618F: 5B                 pop         ebx
  10006190: 3B F3              cmp         esi,ebx
  10006192: 7F 18              jg          100061AC
  10006194: 74 37              je          100061CD
  10006196: 8D 46 FF           lea         eax,[esi-1]
  10006199: 83 E8 01           sub         eax,1
  1000619C: 74 22              je          100061C0
  1000619E: 48                 dec         eax
  1000619F: 83 E8 01           sub         eax,1
  100061A2: 74 29              je          100061CD
  100061A4: 48                 dec         eax
  100061A5: 83 E8 01           sub         eax,1
  100061A8: 75 47              jne         100061F1
  100061AA: EB 14              jmp         100061C0
  100061AC: 83 FE 0B           cmp         esi,0Bh
  100061AF: 74 1C              je          100061CD
  100061B1: 83 FE 0F           cmp         esi,0Fh
  100061B4: 74 0A              je          100061C0
  100061B6: 83 FE 14           cmp         esi,14h
  100061B9: 7E 36              jle         100061F1
  100061BB: 83 FE 16           cmp         esi,16h
  100061BE: 7F 31              jg          100061F1
  100061C0: 56                 push        esi
  100061C1: E8 FC FE FF FF     call        100060C2
  100061C6: 83 C4 04           add         esp,4
  100061C9: 8B F8              mov         edi,eax
  100061CB: EB 3E              jmp         1000620B
  100061CD: E8 9C DD FF FF     call        10003F6E
  100061D2: 8B F8              mov         edi,eax
  100061D4: 89 7D E0           mov         dword ptr [ebp-20h],edi
  100061D7: 85 FF              test        edi,edi
  100061D9: 75 08              jne         100061E3
  100061DB: 83 C8 FF           or          eax,0FFFFFFFFh
  100061DE: E9 5D 01 00 00     jmp         10006340
  100061E3: FF 37              push        dword ptr [edi]
  100061E5: 56                 push        esi
  100061E6: E8 19 FF FF FF     call        10006104
  100061EB: 59                 pop         ecx
  100061EC: 59                 pop         ecx
  100061ED: 85 C0              test        eax,eax
  100061EF: 75 12              jne         10006203
  100061F1: E8 AD E1 FF FF     call        100043A3
  100061F6: C7 00 16 00 00 00  mov         dword ptr [eax],16h
  100061FC: E8 E5 E0 FF FF     call        100042E6
  10006201: EB D8              jmp         100061DB
  10006203: 8D 78 08           lea         edi,[eax+8]
  10006206: 32 C9              xor         cl,cl
  10006208: 88 4D E7           mov         byte ptr [ebp-19h],cl
  1000620B: 89 7D DC           mov         dword ptr [ebp-24h],edi
  1000620E: 83 65 D4 00        and         dword ptr [ebp-2Ch],0
  10006212: 84 C9              test        cl,cl
  10006214: 74 0B              je          10006221
  10006216: 6A 03              push        3
  10006218: E8 8D DE FF FF     call        100040AA
  1000621D: 59                 pop         ecx
  1000621E: 8A 4D E7           mov         cl,byte ptr [ebp-19h]
  10006221: 83 65 D8 00        and         dword ptr [ebp-28h],0
  10006225: C6 45 E6 00        mov         byte ptr [ebp-1Ah],0
  10006229: 83 65 FC 00        and         dword ptr [ebp-4],0
  1000622D: 8B 3F              mov         edi,dword ptr [edi]
  1000622F: 84 C9              test        cl,cl
  10006231: 74 14              je          10006247
  10006233: 8B 0D 10 10 01 10  mov         ecx,dword ptr ds:[10011010h]
  10006239: 83 E1 1F           and         ecx,1Fh
  1000623C: 33 3D 10 10 01 10  xor         edi,dword ptr ds:[10011010h]
  10006242: D3 CF              ror         edi,cl
  10006244: 8A 4D E7           mov         cl,byte ptr [ebp-19h]
  10006247: 89 7D D8           mov         dword ptr [ebp-28h],edi
  1000624A: 83 FF 01           cmp         edi,1
  1000624D: 0F 94 C0           sete        al
  10006250: 88 45 E6           mov         byte ptr [ebp-1Ah],al
  10006253: 84 C0              test        al,al
  10006255: 75 71              jne         100062C8
  10006257: 85 FF              test        edi,edi
  10006259: 0F 84 F1 00 00 00  je          10006350
  1000625F: 3B F3              cmp         esi,ebx
  10006261: 74 0A              je          1000626D
  10006263: 83 FE 0B           cmp         esi,0Bh
  10006266: 74 05              je          1000626D
  10006268: 83 FE 04           cmp         esi,4
  1000626B: 75 28              jne         10006295
  1000626D: 8B 45 E0           mov         eax,dword ptr [ebp-20h]
  10006270: 8B 48 04           mov         ecx,dword ptr [eax+4]
  10006273: 89 4D D4           mov         dword ptr [ebp-2Ch],ecx
  10006276: 83 60 04 00        and         dword ptr [eax+4],0
  1000627A: 3B F3              cmp         esi,ebx
  1000627C: 75 40              jne         100062BE
  1000627E: E8 94 DB FF FF     call        10003E17
  10006283: 8B 40 08           mov         eax,dword ptr [eax+8]
  10006286: 89 45 D0           mov         dword ptr [ebp-30h],eax
  10006289: E8 89 DB FF FF     call        10003E17
  1000628E: C7 40 08 8C 00 00  mov         dword ptr [eax+8],8Ch
            00
  10006295: 8B 45 E0           mov         eax,dword ptr [ebp-20h]
  10006298: 3B F3              cmp         esi,ebx
  1000629A: 75 22              jne         100062BE
  1000629C: 6B 0D C4 BC 00 10  imul        ecx,dword ptr ds:[1000BCC4h],0Ch
            0C
  100062A3: 03 08              add         ecx,dword ptr [eax]
  100062A5: 6B 05 C8 BC 00 10  imul        eax,dword ptr ds:[1000BCC8h],0Ch
            0C
  100062AC: 03 C1              add         eax,ecx
  100062AE: 89 4D CC           mov         dword ptr [ebp-34h],ecx
  100062B1: 3B C8              cmp         ecx,eax
  100062B3: 74 13              je          100062C8
  100062B5: 83 61 08 00        and         dword ptr [ecx+8],0
  100062B9: 83 C1 0C           add         ecx,0Ch
  100062BC: EB F0              jmp         100062AE
  100062BE: A1 10 10 01 10     mov         eax,dword ptr ds:[10011010h]
  100062C3: 8B 4D DC           mov         ecx,dword ptr [ebp-24h]
  100062C6: 89 01              mov         dword ptr [ecx],eax
  100062C8: C7 45 FC FE FF FF  mov         dword ptr [ebp-4],0FFFFFFFEh
            FF
  100062CF: E8 29 00 00 00     call        100062FD
  100062D4: 80 7D E6 00        cmp         byte ptr [ebp-1Ah],0
  100062D8: 75 64              jne         1000633E
  100062DA: 3B F3              cmp         esi,ebx
  100062DC: 75 2E              jne         1000630C
  100062DE: E8 34 DB FF FF     call        10003E17
  100062E3: FF 70 08           push        dword ptr [eax+8]
  100062E6: 53                 push        ebx
  100062E7: 8B CF              mov         ecx,edi
  100062E9: FF 15 04 B1 00 10  call        dword ptr ds:[1000B104h]
  100062EF: FF D7              call        edi
  100062F1: 59                 pop         ecx
  100062F2: EB 23              jmp         10006317
  100062F4: 6A 08              push        8
  100062F6: 5B                 pop         ebx
  100062F7: 8B 75 08           mov         esi,dword ptr [ebp+8]
  100062FA: 8B 7D D8           mov         edi,dword ptr [ebp-28h]
  100062FD: 80 7D E7 00        cmp         byte ptr [ebp-19h],0
  10006301: 74 08              je          1000630B
  10006303: 6A 03              push        3
  10006305: E8 E8 DD FF FF     call        100040F2
  1000630A: 59                 pop         ecx
  1000630B: C3                 ret
  1000630C: 56                 push        esi
  1000630D: 8B CF              mov         ecx,edi
  1000630F: FF 15 04 B1 00 10  call        dword ptr ds:[1000B104h]
  10006315: FF D7              call        edi
  10006317: 59                 pop         ecx
  10006318: 3B F3              cmp         esi,ebx
  1000631A: 74 0A              je          10006326
  1000631C: 83 FE 0B           cmp         esi,0Bh
  1000631F: 74 05              je          10006326
  10006321: 83 FE 04           cmp         esi,4
  10006324: 75 18              jne         1000633E
  10006326: 8B 45 E0           mov         eax,dword ptr [ebp-20h]
  10006329: 8B 4D D4           mov         ecx,dword ptr [ebp-2Ch]
  1000632C: 89 48 04           mov         dword ptr [eax+4],ecx
  1000632F: 3B F3              cmp         esi,ebx
  10006331: 75 0B              jne         1000633E
  10006333: E8 DF DA FF FF     call        10003E17
  10006338: 8B 4D D0           mov         ecx,dword ptr [ebp-30h]
  1000633B: 89 48 08           mov         dword ptr [eax+8],ecx
  1000633E: 33 C0              xor         eax,eax
  10006340: 8B 4D F0           mov         ecx,dword ptr [ebp-10h]
  10006343: 64 89 0D 00 00 00  mov         dword ptr fs:[00000000h],ecx
            00
  1000634A: 59                 pop         ecx
  1000634B: 5F                 pop         edi
  1000634C: 5E                 pop         esi
  1000634D: 5B                 pop         ebx
  1000634E: C9                 leave
  1000634F: C3                 ret
  10006350: 84 C9              test        cl,cl
  10006352: 74 08              je          1000635C
  10006354: 6A 03              push        3
  10006356: E8 97 DD FF FF     call        100040F2
  1000635B: 59                 pop         ecx
  1000635C: 6A 03              push        3
  1000635E: E8 CC CC FF FF     call        1000302F
  10006363: CC                 int         3
  10006364: A1 10 10 01 10     mov         eax,dword ptr ds:[10011010h]
  10006369: 8B C8              mov         ecx,eax
  1000636B: 33 05 40 22 01 10  xor         eax,dword ptr ds:[10012240h]
  10006371: 83 E1 1F           and         ecx,1Fh
  10006374: D3 C8              ror         eax,cl
  10006376: 85 C0              test        eax,eax
  10006378: 0F 95 C0           setne       al
  1000637B: C3                 ret
  1000637C: 8B FF              mov         edi,edi
  1000637E: 55                 push        ebp
  1000637F: 8B EC              mov         ebp,esp
  10006381: 8B 45 08           mov         eax,dword ptr [ebp+8]
  10006384: A3 40 22 01 10     mov         dword ptr ds:[10012240h],eax
  10006389: 5D                 pop         ebp
  1000638A: C3                 ret
  1000638B: 8B FF              mov         edi,edi
  1000638D: 55                 push        ebp
  1000638E: 8B EC              mov         ebp,esp
  10006390: 56                 push        esi
  10006391: 8B 35 10 10 01 10  mov         esi,dword ptr ds:[10011010h]
  10006397: 8B CE              mov         ecx,esi
  10006399: 33 35 40 22 01 10  xor         esi,dword ptr ds:[10012240h]
  1000639F: 83 E1 1F           and         ecx,1Fh
  100063A2: D3 CE              ror         esi,cl
  100063A4: 85 F6              test        esi,esi
  100063A6: 75 04              jne         100063AC
  100063A8: 33 C0              xor         eax,eax
  100063AA: EB 0E              jmp         100063BA
  100063AC: FF 75 08           push        dword ptr [ebp+8]
  100063AF: 8B CE              mov         ecx,esi
  100063B1: FF 15 04 B1 00 10  call        dword ptr ds:[1000B104h]
  100063B7: FF D6              call        esi
  100063B9: 59                 pop         ecx
  100063BA: 5E                 pop         esi
  100063BB: 5D                 pop         ebp
  100063BC: C3                 ret
  100063BD: 6A 08              push        8
  100063BF: 68 60 02 01 10     push        10010260h
  100063C4: E8 E7 B4 FF FF     call        100018B0
  100063C9: 8B 45 08           mov         eax,dword ptr [ebp+8]
  100063CC: FF 30              push        dword ptr [eax]
  100063CE: E8 91 03 00 00     call        10006764
  100063D3: 59                 pop         ecx
  100063D4: 83 65 FC 00        and         dword ptr [ebp-4],0
  100063D8: 8B 75 0C           mov         esi,dword ptr [ebp+0Ch]
  100063DB: FF 76 04           push        dword ptr [esi+4]
  100063DE: 8B 06              mov         eax,dword ptr [esi]
  100063E0: FF 30              push        dword ptr [eax]
  100063E2: E8 5B 01 00 00     call        10006542
  100063E7: 59                 pop         ecx
  100063E8: 59                 pop         ecx
  100063E9: 84 C0              test        al,al
  100063EB: 74 32              je          1000641F
  100063ED: 8B 46 08           mov         eax,dword ptr [esi+8]
  100063F0: 80 38 00           cmp         byte ptr [eax],0
  100063F3: 75 0E              jne         10006403
  100063F5: 8B 06              mov         eax,dword ptr [esi]
  100063F7: 8B 00              mov         eax,dword ptr [eax]
  100063F9: 8B 40 0C           mov         eax,dword ptr [eax+0Ch]
  100063FC: 90                 nop
  100063FD: D1 E8              shr         eax,1
  100063FF: A8 01              test        al,1
  10006401: 74 1C              je          1000641F
  10006403: 8B 06              mov         eax,dword ptr [esi]
  10006405: FF 30              push        dword ptr [eax]
  10006407: E8 F3 01 00 00     call        100065FF
  1000640C: 59                 pop         ecx
  1000640D: 83 F8 FF           cmp         eax,0FFFFFFFFh
  10006410: 74 07              je          10006419
  10006412: 8B 46 04           mov         eax,dword ptr [esi+4]
  10006415: FF 00              inc         dword ptr [eax]
  10006417: EB 06              jmp         1000641F
  10006419: 8B 46 0C           mov         eax,dword ptr [esi+0Ch]
  1000641C: 83 08 FF           or          dword ptr [eax],0FFFFFFFFh
  1000641F: C7 45 FC FE FF FF  mov         dword ptr [ebp-4],0FFFFFFFEh
            FF
  10006426: E8 12 00 00 00     call        1000643D
  1000642B: 8B 4D F0           mov         ecx,dword ptr [ebp-10h]
  1000642E: 64 89 0D 00 00 00  mov         dword ptr fs:[00000000h],ecx
            00
  10006435: 59                 pop         ecx
  10006436: 5F                 pop         edi
  10006437: 5E                 pop         esi
  10006438: 5B                 pop         ebx
  10006439: C9                 leave
  1000643A: C2 0C 00           ret         0Ch
  1000643D: 8B 45 10           mov         eax,dword ptr [ebp+10h]
  10006440: FF 30              push        dword ptr [eax]
  10006442: E8 31 03 00 00     call        10006778
  10006447: 59                 pop         ecx
  10006448: C3                 ret
  10006449: 6A 2C              push        2Ch
  1000644B: 68 80 02 01 10     push        10010280h
  10006450: E8 5B B4 FF FF     call        100018B0
  10006455: 8B 45 08           mov         eax,dword ptr [ebp+8]
  10006458: FF 30              push        dword ptr [eax]
  1000645A: E8 4B DC FF FF     call        100040AA
  1000645F: 59                 pop         ecx
  10006460: 83 65 FC 00        and         dword ptr [ebp-4],0
  10006464: 8B 35 4C 22 01 10  mov         esi,dword ptr ds:[1001224Ch]
  1000646A: A1 48 22 01 10     mov         eax,dword ptr ds:[10012248h]
  1000646F: 8D 1C 86           lea         ebx,[esi+eax*4]
  10006472: 8B 7D 0C           mov         edi,dword ptr [ebp+0Ch]
  10006475: 89 75 D4           mov         dword ptr [ebp-2Ch],esi
  10006478: 3B F3              cmp         esi,ebx
  1000647A: 74 4F              je          100064CB
  1000647C: 8B 06              mov         eax,dword ptr [esi]
  1000647E: 89 45 E0           mov         dword ptr [ebp-20h],eax
  10006481: FF 37              push        dword ptr [edi]
  10006483: 50                 push        eax
  10006484: E8 B9 00 00 00     call        10006542
  10006489: 59                 pop         ecx
  1000648A: 59                 pop         ecx
  1000648B: 84 C0              test        al,al
  1000648D: 74 37              je          100064C6
  1000648F: 8B 57 08           mov         edx,dword ptr [edi+8]
  10006492: 8B 4F 04           mov         ecx,dword ptr [edi+4]
  10006495: 8B 07              mov         eax,dword ptr [edi]
  10006497: 8D 7D E0           lea         edi,[ebp-20h]
  1000649A: 89 7D C4           mov         dword ptr [ebp-3Ch],edi
  1000649D: 89 45 C8           mov         dword ptr [ebp-38h],eax
  100064A0: 89 4D CC           mov         dword ptr [ebp-34h],ecx
  100064A3: 89 55 D0           mov         dword ptr [ebp-30h],edx
  100064A6: 8B 45 E0           mov         eax,dword ptr [ebp-20h]
  100064A9: 89 45 DC           mov         dword ptr [ebp-24h],eax
  100064AC: 89 45 D8           mov         dword ptr [ebp-28h],eax
  100064AF: 8D 45 DC           lea         eax,[ebp-24h]
  100064B2: 50                 push        eax
  100064B3: 8D 45 C4           lea         eax,[ebp-3Ch]
  100064B6: 50                 push        eax
  100064B7: 8D 45 D8           lea         eax,[ebp-28h]
  100064BA: 50                 push        eax
  100064BB: 8D 4D E7           lea         ecx,[ebp-19h]
  100064BE: E8 FA FE FF FF     call        100063BD
  100064C3: 8B 7D 0C           mov         edi,dword ptr [ebp+0Ch]
  100064C6: 83 C6 04           add         esi,4
  100064C9: EB AA              jmp         10006475
  100064CB: C7 45 FC FE FF FF  mov         dword ptr [ebp-4],0FFFFFFFEh
            FF
  100064D2: E8 12 00 00 00     call        100064E9
  100064D7: 8B 4D F0           mov         ecx,dword ptr [ebp-10h]
  100064DA: 64 89 0D 00 00 00  mov         dword ptr fs:[00000000h],ecx
            00
  100064E1: 59                 pop         ecx
  100064E2: 5F                 pop         edi
  100064E3: 5E                 pop         esi
  100064E4: 5B                 pop         ebx
  100064E5: C9                 leave
  100064E6: C2 0C 00           ret         0Ch
  100064E9: 8B 45 10           mov         eax,dword ptr [ebp+10h]
  100064EC: FF 30              push        dword ptr [eax]
  100064EE: E8 FF DB FF FF     call        100040F2
  100064F3: 59                 pop         ecx
  100064F4: C3                 ret
  100064F5: 8B FF              mov         edi,edi
  100064F7: 55                 push        ebp
  100064F8: 8B EC              mov         ebp,esp
  100064FA: 83 EC 20           sub         esp,20h
  100064FD: 83 65 F8 00        and         dword ptr [ebp-8],0
  10006501: 8D 45 F8           lea         eax,[ebp-8]
  10006504: 83 65 F4 00        and         dword ptr [ebp-0Ch],0
  10006508: 8D 4D FF           lea         ecx,[ebp-1]
  1000650B: 89 45 E0           mov         dword ptr [ebp-20h],eax
  1000650E: 8D 45 08           lea         eax,[ebp+8]
  10006511: 89 45 E4           mov         dword ptr [ebp-1Ch],eax
  10006514: 8D 45 F4           lea         eax,[ebp-0Ch]
  10006517: 6A 08              push        8
  10006519: 89 45 E8           mov         dword ptr [ebp-18h],eax
  1000651C: 58                 pop         eax
  1000651D: 89 45 F0           mov         dword ptr [ebp-10h],eax
  10006520: 89 45 EC           mov         dword ptr [ebp-14h],eax
  10006523: 8D 45 F0           lea         eax,[ebp-10h]
  10006526: 50                 push        eax
  10006527: 8D 45 E0           lea         eax,[ebp-20h]
  1000652A: 50                 push        eax
  1000652B: 8D 45 EC           lea         eax,[ebp-14h]
  1000652E: 50                 push        eax
  1000652F: E8 15 FF FF FF     call        10006449
  10006534: 80 7D 08 00        cmp         byte ptr [ebp+8],0
  10006538: 8B 45 F8           mov         eax,dword ptr [ebp-8]
  1000653B: 75 03              jne         10006540
  1000653D: 8B 45 F4           mov         eax,dword ptr [ebp-0Ch]
  10006540: C9                 leave
  10006541: C3                 ret
  10006542: 8B FF              mov         edi,edi
  10006544: 55                 push        ebp
  10006545: 8B EC              mov         ebp,esp
  10006547: 8B 45 08           mov         eax,dword ptr [ebp+8]
  1000654A: 85 C0              test        eax,eax
  1000654C: 74 1F              je          1000656D
  1000654E: 8B 48 0C           mov         ecx,dword ptr [eax+0Ch]
  10006551: 90                 nop
  10006552: 8B C1              mov         eax,ecx
  10006554: C1 E8 0D           shr         eax,0Dh
  10006557: A8 01              test        al,1
  10006559: 74 12              je          1000656D
  1000655B: 51                 push        ecx
  1000655C: E8 14 00 00 00     call        10006575
  10006561: 83 C4 04           add         esp,4
  10006564: 84 C0              test        al,al
  10006566: 75 09              jne         10006571
  10006568: 8B 45 0C           mov         eax,dword ptr [ebp+0Ch]
  1000656B: FF 00              inc         dword ptr [eax]
  1000656D: 32 C0              xor         al,al
  1000656F: 5D                 pop         ebp
  10006570: C3                 ret
  10006571: B0 01              mov         al,1
  10006573: 5D                 pop         ebp
  10006574: C3                 ret
  10006575: 8B FF              mov         edi,edi
  10006577: 55                 push        ebp
  10006578: 8B EC              mov         ebp,esp
  1000657A: 8B 45 08           mov         eax,dword ptr [ebp+8]
  1000657D: 24 03              and         al,3
  1000657F: 3C 02              cmp         al,2
  10006581: 75 06              jne         10006589
  10006583: F6 45 08 C0        test        byte ptr [ebp+8],0C0h
  10006587: 75 09              jne         10006592
  10006589: F7 45 08 00 08 00  test        dword ptr [ebp+8],800h
            00
  10006590: 74 04              je          10006596
  10006592: B0 01              mov         al,1
  10006594: 5D                 pop         ebp
  10006595: C3                 ret
  10006596: 32 C0              xor         al,al
  10006598: 5D                 pop         ebp
  10006599: C3                 ret
  1000659A: 8B FF              mov         edi,edi
  1000659C: 55                 push        ebp
  1000659D: 8B EC              mov         ebp,esp
  1000659F: 8B 4D 08           mov         ecx,dword ptr [ebp+8]
  100065A2: 56                 push        esi
  100065A3: 57                 push        edi
  100065A4: 8D 71 0C           lea         esi,[ecx+0Ch]
  100065A7: 8B 16              mov         edx,dword ptr [esi]
  100065A9: 90                 nop
  100065AA: 8B C2              mov         eax,edx
  100065AC: 24 03              and         al,3
  100065AE: 3C 02              cmp         al,2
  100065B0: 75 47              jne         100065F9
  100065B2: F6 C2 C0           test        dl,0C0h
  100065B5: 74 42              je          100065F9
  100065B7: 8B 39              mov         edi,dword ptr [ecx]
  100065B9: 8B 41 04           mov         eax,dword ptr [ecx+4]
  100065BC: 2B F8              sub         edi,eax
  100065BE: 89 01              mov         dword ptr [ecx],eax
  100065C0: 83 61 08 00        and         dword ptr [ecx+8],0
  100065C4: 85 FF              test        edi,edi
  100065C6: 7E 31              jle         100065F9
  100065C8: 57                 push        edi
  100065C9: 50                 push        eax
  100065CA: 51                 push        ecx
  100065CB: E8 C0 03 00 00     call        10006990
  100065D0: 59                 pop         ecx
  100065D1: 50                 push        eax
  100065D2: E8 83 1E 00 00     call        1000845A
  100065D7: 83 C4 0C           add         esp,0Ch
  100065DA: 3B F8              cmp         edi,eax
  100065DC: 74 0B              je          100065E9
  100065DE: 6A 10              push        10h
  100065E0: 58                 pop         eax
  100065E1: F0 09 06           lock or     dword ptr [esi],eax
  100065E4: 83 C8 FF           or          eax,0FFFFFFFFh
  100065E7: EB 12              jmp         100065FB
  100065E9: 8B 06              mov         eax,dword ptr [esi]
  100065EB: 90                 nop
  100065EC: C1 E8 02           shr         eax,2
  100065EF: A8 01              test        al,1
  100065F1: 74 06              je          100065F9
  100065F3: 6A FD              push        0FFFFFFFDh
  100065F5: 58                 pop         eax
  100065F6: F0 21 06           lock and    dword ptr [esi],eax
  100065F9: 33 C0              xor         eax,eax
  100065FB: 5F                 pop         edi
  100065FC: 5E                 pop         esi
  100065FD: 5D                 pop         ebp
  100065FE: C3                 ret
  100065FF: 8B FF              mov         edi,edi
  10006601: 55                 push        ebp
  10006602: 8B EC              mov         ebp,esp
  10006604: 56                 push        esi
  10006605: 8B 75 08           mov         esi,dword ptr [ebp+8]
  10006608: 85 F6              test        esi,esi
  1000660A: 75 09              jne         10006615
  1000660C: 56                 push        esi
  1000660D: E8 E3 FE FF FF     call        100064F5
  10006612: 59                 pop         ecx
  10006613: EB 2F              jmp         10006644
  10006615: 56                 push        esi
  10006616: E8 7F FF FF FF     call        1000659A
  1000661B: 59                 pop         ecx
  1000661C: 85 C0              test        eax,eax
  1000661E: 75 21              jne         10006641
  10006620: 8B 46 0C           mov         eax,dword ptr [esi+0Ch]
  10006623: 90                 nop
  10006624: C1 E8 0B           shr         eax,0Bh
  10006627: A8 01              test        al,1
  10006629: 74 12              je          1000663D
  1000662B: 56                 push        esi
  1000662C: E8 5F 03 00 00     call        10006990
  10006631: 50                 push        eax
  10006632: E8 2B 16 00 00     call        10007C62
  10006637: 59                 pop         ecx
  10006638: 59                 pop         ecx
  10006639: 85 C0              test        eax,eax
  1000663B: 75 04              jne         10006641
  1000663D: 33 C0              xor         eax,eax
  1000663F: EB 03              jmp         10006644
  10006641: 83 C8 FF           or          eax,0FFFFFFFFh
  10006644: 5E                 pop         esi
  10006645: 5D                 pop         ebp
  10006646: C3                 ret
  10006647: 6A 01              push        1
  10006649: E8 A7 FE FF FF     call        100064F5
  1000664E: 59                 pop         ecx
  1000664F: C3                 ret
  10006650: A1 48 22 01 10     mov         eax,dword ptr ds:[10012248h]
  10006655: 56                 push        esi
  10006656: 6A 03              push        3
  10006658: 5E                 pop         esi
  10006659: 85 C0              test        eax,eax
  1000665B: 75 07              jne         10006664
  1000665D: B8 00 02 00 00     mov         eax,200h
  10006662: EB 06              jmp         1000666A
  10006664: 3B C6              cmp         eax,esi
  10006666: 7D 07              jge         1000666F
  10006668: 8B C6              mov         eax,esi
  1000666A: A3 48 22 01 10     mov         dword ptr ds:[10012248h],eax
  1000666F: 6A 04              push        4
  10006671: 50                 push        eax
  10006672: E8 3F DD FF FF     call        100043B6
  10006677: 6A 00              push        0
  10006679: A3 4C 22 01 10     mov         dword ptr ds:[1001224Ch],eax
  1000667E: E8 90 DD FF FF     call        10004413
  10006683: 83 C4 0C           add         esp,0Ch
  10006686: 83 3D 4C 22 01 10  cmp         dword ptr ds:[1001224Ch],0
            00
  1000668D: 75 2B              jne         100066BA
  1000668F: 6A 04              push        4
  10006691: 56                 push        esi
  10006692: 89 35 48 22 01 10  mov         dword ptr ds:[10012248h],esi
  10006698: E8 19 DD FF FF     call        100043B6
  1000669D: 6A 00              push        0
  1000669F: A3 4C 22 01 10     mov         dword ptr ds:[1001224Ch],eax
  100066A4: E8 6A DD FF FF     call        10004413
  100066A9: 83 C4 0C           add         esp,0Ch
  100066AC: 83 3D 4C 22 01 10  cmp         dword ptr ds:[1001224Ch],0
            00
  100066B3: 75 05              jne         100066BA
  100066B5: 83 C8 FF           or          eax,0FFFFFFFFh
  100066B8: 5E                 pop         esi
  100066B9: C3                 ret
  100066BA: 57                 push        edi
  100066BB: 33 FF              xor         edi,edi
  100066BD: BE 48 16 01 10     mov         esi,10011648h
  100066C2: 6A 00              push        0
  100066C4: 68 A0 0F 00 00     push        0FA0h
  100066C9: 8D 46 20           lea         eax,[esi+20h]
  100066CC: 50                 push        eax
  100066CD: E8 10 F5 FF FF     call        10005BE2
  100066D2: A1 4C 22 01 10     mov         eax,dword ptr ds:[1001224Ch]
  100066D7: 8B D7              mov         edx,edi
  100066D9: C1 FA 06           sar         edx,6
  100066DC: 89 34 B8           mov         dword ptr [eax+edi*4],esi
  100066DF: 8B C7              mov         eax,edi
  100066E1: 83 E0 3F           and         eax,3Fh
  100066E4: 6B C8 38           imul        ecx,eax,38h
  100066E7: 8B 04 95 28 20 01  mov         eax,dword ptr [edx*4+10012028h]
            10
  100066EE: 8B 44 08 18        mov         eax,dword ptr [eax+ecx+18h]
  100066F2: 83 F8 FF           cmp         eax,0FFFFFFFFh
  100066F5: 74 09              je          10006700
  100066F7: 83 F8 FE           cmp         eax,0FFFFFFFEh
  100066FA: 74 04              je          10006700
  100066FC: 85 C0              test        eax,eax
  100066FE: 75 07              jne         10006707
  10006700: C7 46 10 FE FF FF  mov         dword ptr [esi+10h],0FFFFFFFEh
            FF
  10006707: 83 C6 38           add         esi,38h
  1000670A: 47                 inc         edi
  1000670B: 81 FE F0 16 01 10  cmp         esi,100116F0h
  10006711: 75 AF              jne         100066C2
  10006713: 5F                 pop         edi
  10006714: 33 C0              xor         eax,eax
  10006716: 5E                 pop         esi
  10006717: C3                 ret
  10006718: 8B FF              mov         edi,edi
  1000671A: 56                 push        esi
  1000671B: E8 27 FF FF FF     call        10006647
  10006720: E8 01 20 00 00     call        10008726
  10006725: 33 F6              xor         esi,esi
  10006727: A1 4C 22 01 10     mov         eax,dword ptr ds:[1001224Ch]
  1000672C: FF 34 06           push        dword ptr [esi+eax]
  1000672F: E8 9D 20 00 00     call        100087D1
  10006734: A1 4C 22 01 10     mov         eax,dword ptr ds:[1001224Ch]
  10006739: 59                 pop         ecx
  1000673A: 8B 04 06           mov         eax,dword ptr [esi+eax]
  1000673D: 83 C0 20           add         eax,20h
  10006740: 50                 push        eax
  10006741: FF 15 50 B0 00 10  call        dword ptr ds:[1000B050h]
  10006747: 83 C6 04           add         esi,4
  1000674A: 83 FE 0C           cmp         esi,0Ch
  1000674D: 75 D8              jne         10006727
  1000674F: FF 35 4C 22 01 10  push        dword ptr ds:[1001224Ch]
  10006755: E8 B9 DC FF FF     call        10004413
  1000675A: 83 25 4C 22 01 10  and         dword ptr ds:[1001224Ch],0
            00
  10006761: 59                 pop         ecx
  10006762: 5E                 pop         esi
  10006763: C3                 ret
  10006764: 8B FF              mov         edi,edi
  10006766: 55                 push        ebp
  10006767: 8B EC              mov         ebp,esp
  10006769: 8B 45 08           mov         eax,dword ptr [ebp+8]
  1000676C: 83 C0 20           add         eax,20h
  1000676F: 50                 push        eax
  10006770: FF 15 48 B0 00 10  call        dword ptr ds:[1000B048h]
  10006776: 5D                 pop         ebp
  10006777: C3                 ret
  10006778: 8B FF              mov         edi,edi
  1000677A: 55                 push        ebp
  1000677B: 8B EC              mov         ebp,esp
  1000677D: 8B 45 08           mov         eax,dword ptr [ebp+8]
  10006780: 83 C0 20           add         eax,20h
  10006783: 50                 push        eax
  10006784: FF 15 4C B0 00 10  call        dword ptr ds:[1000B04Ch]
  1000678A: 5D                 pop         ebp
  1000678B: C3                 ret
  1000678C: 8B FF              mov         edi,edi
  1000678E: 55                 push        ebp
  1000678F: 8B EC              mov         ebp,esp
  10006791: 56                 push        esi
  10006792: 8B 75 08           mov         esi,dword ptr [ebp+8]
  10006795: 83 FE E0           cmp         esi,0FFFFFFE0h
  10006798: 77 30              ja          100067CA
  1000679A: 85 F6              test        esi,esi
  1000679C: 75 17              jne         100067B5
  1000679E: 46                 inc         esi
  1000679F: EB 14              jmp         100067B5
  100067A1: E8 6F 06 00 00     call        10006E15
  100067A6: 85 C0              test        eax,eax
  100067A8: 74 20              je          100067CA
  100067AA: 56                 push        esi
  100067AB: E8 25 F8 FF FF     call        10005FD5
  100067B0: 59                 pop         ecx
  100067B1: 85 C0              test        eax,eax
  100067B3: 74 15              je          100067CA
  100067B5: 56                 push        esi
  100067B6: 6A 00              push        0
  100067B8: FF 35 20 20 01 10  push        dword ptr ds:[10012020h]
  100067BE: FF 15 84 B0 00 10  call        dword ptr ds:[1000B084h]
  100067C4: 85 C0              test        eax,eax
  100067C6: 74 D9              je          100067A1
  100067C8: EB 0D              jmp         100067D7
  100067CA: E8 D4 DB FF FF     call        100043A3
  100067CF: C7 00 0C 00 00 00  mov         dword ptr [eax],0Ch
  100067D5: 33 C0              xor         eax,eax
  100067D7: 5E                 pop         esi
  100067D8: 5D                 pop         ebp
  100067D9: C3                 ret
  100067DA: 8B FF              mov         edi,edi
  100067DC: 55                 push        ebp
  100067DD: 8B EC              mov         ebp,esp
  100067DF: 83 EC 10           sub         esp,10h
  100067E2: 53                 push        ebx
  100067E3: 57                 push        edi
  100067E4: 8B 7D 0C           mov         edi,dword ptr [ebp+0Ch]
  100067E7: 85 FF              test        edi,edi
  100067E9: 0F 84 19 01 00 00  je          10006908
  100067EF: 8B 5D 10           mov         ebx,dword ptr [ebp+10h]
  100067F2: 85 DB              test        ebx,ebx
  100067F4: 0F 84 0E 01 00 00  je          10006908
  100067FA: 80 3F 00           cmp         byte ptr [edi],0
  100067FD: 75 15              jne         10006814
  100067FF: 8B 45 08           mov         eax,dword ptr [ebp+8]
  10006802: 85 C0              test        eax,eax
  10006804: 0F 84 0C 01 00 00  je          10006916
  1000680A: 33 C9              xor         ecx,ecx
  1000680C: 66 89 08           mov         word ptr [eax],cx
  1000680F: E9 02 01 00 00     jmp         10006916
  10006814: 56                 push        esi
  10006815: FF 75 14           push        dword ptr [ebp+14h]
  10006818: 8D 4D F0           lea         ecx,[ebp-10h]
  1000681B: E8 21 D1 FF FF     call        10003941
  10006820: 8B 45 F4           mov         eax,dword ptr [ebp-0Ch]
  10006823: 81 78 08 E9 FD 00  cmp         dword ptr [eax+8],0FDE9h
            00
  1000682A: 75 21              jne         1000684D
  1000682C: 68 58 22 01 10     push        10012258h
  10006831: 53                 push        ebx
  10006832: 57                 push        edi
  10006833: FF 75 08           push        dword ptr [ebp+8]
  10006836: E8 92 20 00 00     call        100088CD
  1000683B: 8B F0              mov         esi,eax
  1000683D: 83 C4 10           add         esp,10h
  10006840: 85 F6              test        esi,esi
  10006842: 0F 89 AB 00 00 00  jns         100068F3
  10006848: E9 A3 00 00 00     jmp         100068F0
  1000684D: 83 B8 A8 00 00 00  cmp         dword ptr [eax+000000A8h],0
            00
  10006854: 75 15              jne         1000686B
  10006856: 8B 4D 08           mov         ecx,dword ptr [ebp+8]
  10006859: 85 C9              test        ecx,ecx
  1000685B: 74 06              je          10006863
  1000685D: 0F B6 07           movzx       eax,byte ptr [edi]
  10006860: 66 89 01           mov         word ptr [ecx],ax
  10006863: 33 F6              xor         esi,esi
  10006865: 46                 inc         esi
  10006866: E9 88 00 00 00     jmp         100068F3
  1000686B: 8D 45 F4           lea         eax,[ebp-0Ch]
  1000686E: 50                 push        eax
  1000686F: 0F B6 07           movzx       eax,byte ptr [edi]
  10006872: 50                 push        eax
  10006873: E8 EF 1F 00 00     call        10008867
  10006878: 59                 pop         ecx
  10006879: 59                 pop         ecx
  1000687A: 85 C0              test        eax,eax
  1000687C: 74 42              je          100068C0
  1000687E: 8B 75 F4           mov         esi,dword ptr [ebp-0Ch]
  10006881: 83 7E 04 01        cmp         dword ptr [esi+4],1
  10006885: 7E 29              jle         100068B0
  10006887: 3B 5E 04           cmp         ebx,dword ptr [esi+4]
  1000688A: 7C 27              jl          100068B3
  1000688C: 33 C0              xor         eax,eax
  1000688E: 39 45 08           cmp         dword ptr [ebp+8],eax
  10006891: 0F 95 C0           setne       al
  10006894: 50                 push        eax
  10006895: FF 75 08           push        dword ptr [ebp+8]
  10006898: FF 76 04           push        dword ptr [esi+4]
  1000689B: 57                 push        edi
  1000689C: 6A 09              push        9
  1000689E: FF 76 08           push        dword ptr [esi+8]
  100068A1: E8 EB ED FF FF     call        10005691
  100068A6: 8B 75 F4           mov         esi,dword ptr [ebp-0Ch]
  100068A9: 83 C4 18           add         esp,18h
  100068AC: 85 C0              test        eax,eax
  100068AE: 75 0B              jne         100068BB
  100068B0: 3B 5E 04           cmp         ebx,dword ptr [esi+4]
  100068B3: 72 30              jb          100068E5
  100068B5: 80 7F 01 00        cmp         byte ptr [edi+1],0
  100068B9: 74 2A              je          100068E5
  100068BB: 8B 76 04           mov         esi,dword ptr [esi+4]
  100068BE: EB 33              jmp         100068F3
  100068C0: 33 C0              xor         eax,eax
  100068C2: 39 45 08           cmp         dword ptr [ebp+8],eax
  100068C5: 0F 95 C0           setne       al
  100068C8: 33 F6              xor         esi,esi
  100068CA: 50                 push        eax
  100068CB: FF 75 08           push        dword ptr [ebp+8]
  100068CE: 8B 45 F4           mov         eax,dword ptr [ebp-0Ch]
  100068D1: 46                 inc         esi
  100068D2: 56                 push        esi
  100068D3: 57                 push        edi
  100068D4: 6A 09              push        9
  100068D6: FF 70 08           push        dword ptr [eax+8]
  100068D9: E8 B3 ED FF FF     call        10005691
  100068DE: 83 C4 18           add         esp,18h
  100068E1: 85 C0              test        eax,eax
  100068E3: 75 0E              jne         100068F3
  100068E5: E8 B9 DA FF FF     call        100043A3
  100068EA: C7 00 2A 00 00 00  mov         dword ptr [eax],2Ah
  100068F0: 83 CE FF           or          esi,0FFFFFFFFh
  100068F3: 80 7D FC 00        cmp         byte ptr [ebp-4],0
  100068F7: 74 0A              je          10006903
  100068F9: 8B 4D F0           mov         ecx,dword ptr [ebp-10h]
  100068FC: 83 A1 50 03 00 00  and         dword ptr [ecx+00000350h],0FFFFFFFDh
            FD
  10006903: 8B C6              mov         eax,esi
  10006905: 5E                 pop         esi
  10006906: EB 10              jmp         10006918
  10006908: 83 25 58 22 01 10  and         dword ptr ds:[10012258h],0
            00
  1000690F: 83 25 5C 22 01 10  and         dword ptr ds:[1001225Ch],0
            00
  10006916: 33 C0              xor         eax,eax
  10006918: 5F                 pop         edi
  10006919: 5B                 pop         ebx
  1000691A: C9                 leave
  1000691B: C3                 ret
  1000691C: 8B FF              mov         edi,edi
  1000691E: 55                 push        ebp
  1000691F: 8B EC              mov         ebp,esp
  10006921: 6A 00              push        0
  10006923: FF 75 10           push        dword ptr [ebp+10h]
  10006926: FF 75 0C           push        dword ptr [ebp+0Ch]
  10006929: FF 75 08           push        dword ptr [ebp+8]
  1000692C: E8 A9 FE FF FF     call        100067DA
  10006931: 83 C4 10           add         esp,10h
  10006934: 5D                 pop         ebp
  10006935: C3                 ret
  10006936: 8B FF              mov         edi,edi
  10006938: 55                 push        ebp
  10006939: 8B EC              mov         ebp,esp
  1000693B: 56                 push        esi
  1000693C: 8B 75 0C           mov         esi,dword ptr [ebp+0Ch]
  1000693F: 8B 06              mov         eax,dword ptr [esi]
  10006941: 3B 05 44 22 01 10  cmp         eax,dword ptr ds:[10012244h]
  10006947: 74 17              je          10006960
  10006949: 8B 4D 08           mov         ecx,dword ptr [ebp+8]
  1000694C: A1 F0 16 01 10     mov         eax,dword ptr ds:[100116F0h]
  10006951: 85 81 50 03 00 00  test        dword ptr [ecx+00000350h],eax
  10006957: 75 07              jne         10006960
  10006959: E8 E6 03 00 00     call        10006D44
  1000695E: 89 06              mov         dword ptr [esi],eax
  10006960: 5E                 pop         esi
  10006961: 5D                 pop         ebp
  10006962: C3                 ret
  10006963: 8B FF              mov         edi,edi
  10006965: 55                 push        ebp
  10006966: 8B EC              mov         ebp,esp
  10006968: 56                 push        esi
  10006969: 8B 75 0C           mov         esi,dword ptr [ebp+0Ch]
  1000696C: 8B 06              mov         eax,dword ptr [esi]
  1000696E: 3B 05 20 1F 01 10  cmp         eax,dword ptr ds:[10011F20h]
  10006974: 74 17              je          1000698D
  10006976: 8B 4D 08           mov         ecx,dword ptr [ebp+8]
  10006979: A1 F0 16 01 10     mov         eax,dword ptr ds:[100116F0h]
  1000697E: 85 81 50 03 00 00  test        dword ptr [ecx+00000350h],eax
  10006984: 75 07              jne         1000698D
  10006986: E8 F7 E9 FF FF     call        10005382
  1000698B: 89 06              mov         dword ptr [esi],eax
  1000698D: 5E                 pop         esi
  1000698E: 5D                 pop         ebp
  1000698F: C3                 ret
  10006990: 8B FF              mov         edi,edi
  10006992: 55                 push        ebp
  10006993: 8B EC              mov         ebp,esp
  10006995: 8B 45 08           mov         eax,dword ptr [ebp+8]
  10006998: 85 C0              test        eax,eax
  1000699A: 75 15              jne         100069B1
  1000699C: E8 02 DA FF FF     call        100043A3
  100069A1: C7 00 16 00 00 00  mov         dword ptr [eax],16h
  100069A7: E8 3A D9 FF FF     call        100042E6
  100069AC: 83 C8 FF           or          eax,0FFFFFFFFh
  100069AF: 5D                 pop         ebp
  100069B0: C3                 ret
  100069B1: 8B 40 10           mov         eax,dword ptr [eax+10h]
  100069B4: 90                 nop
  100069B5: 5D                 pop         ebp
  100069B6: C3                 ret
  100069B7: 6A 0C              push        0Ch
  100069B9: 68 A0 02 01 10     push        100102A0h
  100069BE: E8 ED AE FF FF     call        100018B0
  100069C3: 8B 45 08           mov         eax,dword ptr [ebp+8]
  100069C6: FF 30              push        dword ptr [eax]
  100069C8: E8 DD D6 FF FF     call        100040AA
  100069CD: 59                 pop         ecx
  100069CE: 83 65 FC 00        and         dword ptr [ebp-4],0
  100069D2: BE 44 22 01 10     mov         esi,10012244h
  100069D7: BF 80 15 01 10     mov         edi,10011580h
  100069DC: 89 75 E4           mov         dword ptr [ebp-1Ch],esi
  100069DF: 81 FE 48 22 01 10  cmp         esi,10012248h
  100069E5: 74 14              je          100069FB
  100069E7: 39 3E              cmp         dword ptr [esi],edi
  100069E9: 74 0B              je          100069F6
  100069EB: 57                 push        edi
  100069EC: 56                 push        esi
  100069ED: E8 D3 03 00 00     call        10006DC5
  100069F2: 59                 pop         ecx
  100069F3: 59                 pop         ecx
  100069F4: 89 06              mov         dword ptr [esi],eax
  100069F6: 83 C6 04           add         esi,4
  100069F9: EB E1              jmp         100069DC
  100069FB: C7 45 FC FE FF FF  mov         dword ptr [ebp-4],0FFFFFFFEh
            FF
  10006A02: E8 12 00 00 00     call        10006A19
  10006A07: 8B 4D F0           mov         ecx,dword ptr [ebp-10h]
  10006A0A: 64 89 0D 00 00 00  mov         dword ptr fs:[00000000h],ecx
            00
  10006A11: 59                 pop         ecx
  10006A12: 5F                 pop         edi
  10006A13: 5E                 pop         esi
  10006A14: 5B                 pop         ebx
  10006A15: C9                 leave
  10006A16: C2 0C 00           ret         0Ch
  10006A19: 8B 45 10           mov         eax,dword ptr [ebp+10h]
  10006A1C: FF 30              push        dword ptr [eax]
  10006A1E: E8 CF D6 FF FF     call        100040F2
  10006A23: 59                 pop         ecx
  10006A24: C3                 ret
  10006A25: 33 C0              xor         eax,eax
  10006A27: B9 60 22 01 10     mov         ecx,10012260h
  10006A2C: 40                 inc         eax
  10006A2D: 87 01              xchg        eax,dword ptr [ecx]
  10006A2F: C3                 ret
  10006A30: 8B FF              mov         edi,edi
  10006A32: 55                 push        ebp
  10006A33: 8B EC              mov         ebp,esp
  10006A35: 83 EC 0C           sub         esp,0Ch
  10006A38: 6A 04              push        4
  10006A3A: 58                 pop         eax
  10006A3B: 89 45 F8           mov         dword ptr [ebp-8],eax
  10006A3E: 8D 4D FF           lea         ecx,[ebp-1]
  10006A41: 89 45 F4           mov         dword ptr [ebp-0Ch],eax
  10006A44: 8D 45 F8           lea         eax,[ebp-8]
  10006A47: 50                 push        eax
  10006A48: 8D 45 FF           lea         eax,[ebp-1]
  10006A4B: 50                 push        eax
  10006A4C: 8D 45 F4           lea         eax,[ebp-0Ch]
  10006A4F: 50                 push        eax
  10006A50: E8 62 FF FF FF     call        100069B7
  10006A55: C9                 leave
  10006A56: C3                 ret
  10006A57: 8B FF              mov         edi,edi
  10006A59: 55                 push        ebp
  10006A5A: 8B EC              mov         ebp,esp
  10006A5C: 51                 push        ecx
  10006A5D: E8 B5 D3 FF FF     call        10003E17
  10006A62: 8B 48 4C           mov         ecx,dword ptr [eax+4Ch]
  10006A65: 89 4D FC           mov         dword ptr [ebp-4],ecx
  10006A68: 8D 4D FC           lea         ecx,[ebp-4]
  10006A6B: 51                 push        ecx
  10006A6C: 50                 push        eax
  10006A6D: E8 C4 FE FF FF     call        10006936
  10006A72: 8B 45 FC           mov         eax,dword ptr [ebp-4]
  10006A75: 59                 pop         ecx
  10006A76: 59                 pop         ecx
  10006A77: 8B 00              mov         eax,dword ptr [eax]
  10006A79: C9                 leave
  10006A7A: C3                 ret
  10006A7B: 8B FF              mov         edi,edi
  10006A7D: 55                 push        ebp
  10006A7E: 8B EC              mov         ebp,esp
  10006A80: 8B 45 08           mov         eax,dword ptr [ebp+8]
  10006A83: F0 FF 40 0C        lock inc    dword ptr [eax+0Ch]
  10006A87: 8B 48 7C           mov         ecx,dword ptr [eax+7Ch]
  10006A8A: 85 C9              test        ecx,ecx
  10006A8C: 74 03              je          10006A91
  10006A8E: F0 FF 01           lock inc    dword ptr [ecx]
  10006A91: 8B 88 84 00 00 00  mov         ecx,dword ptr [eax+00000084h]
  10006A97: 85 C9              test        ecx,ecx
  10006A99: 74 03              je          10006A9E
  10006A9B: F0 FF 01           lock inc    dword ptr [ecx]
  10006A9E: 8B 88 80 00 00 00  mov         ecx,dword ptr [eax+00000080h]
  10006AA4: 85 C9              test        ecx,ecx
  10006AA6: 74 03              je          10006AAB
  10006AA8: F0 FF 01           lock inc    dword ptr [ecx]
  10006AAB: 8B 88 8C 00 00 00  mov         ecx,dword ptr [eax+0000008Ch]
  10006AB1: 85 C9              test        ecx,ecx
  10006AB3: 74 03              je          10006AB8
  10006AB5: F0 FF 01           lock inc    dword ptr [ecx]
  10006AB8: 56                 push        esi
  10006AB9: 6A 06              push        6
  10006ABB: 8D 48 28           lea         ecx,[eax+28h]
  10006ABE: 5E                 pop         esi
  10006ABF: 81 79 F8 40 16 01  cmp         dword ptr [ecx-8],10011640h
            10
  10006AC6: 74 09              je          10006AD1
  10006AC8: 8B 11              mov         edx,dword ptr [ecx]
  10006ACA: 85 D2              test        edx,edx
  10006ACC: 74 03              je          10006AD1
  10006ACE: F0 FF 02           lock inc    dword ptr [edx]
  10006AD1: 83 79 F4 00        cmp         dword ptr [ecx-0Ch],0
  10006AD5: 74 0A              je          10006AE1
  10006AD7: 8B 51 FC           mov         edx,dword ptr [ecx-4]
  10006ADA: 85 D2              test        edx,edx
  10006ADC: 74 03              je          10006AE1
  10006ADE: F0 FF 02           lock inc    dword ptr [edx]
  10006AE1: 83 C1 10           add         ecx,10h
  10006AE4: 83 EE 01           sub         esi,1
  10006AE7: 75 D6              jne         10006ABF
  10006AE9: FF B0 9C 00 00 00  push        dword ptr [eax+0000009Ch]
  10006AEF: E8 4C 01 00 00     call        10006C40
  10006AF4: 59                 pop         ecx
  10006AF5: 5E                 pop         esi
  10006AF6: 5D                 pop         ebp
  10006AF7: C3                 ret
  10006AF8: 8B FF              mov         edi,edi
  10006AFA: 55                 push        ebp
  10006AFB: 8B EC              mov         ebp,esp
  10006AFD: 51                 push        ecx
  10006AFE: 53                 push        ebx
  10006AFF: 56                 push        esi
  10006B00: 8B 75 08           mov         esi,dword ptr [ebp+8]
  10006B03: 57                 push        edi
  10006B04: 8B 86 88 00 00 00  mov         eax,dword ptr [esi+00000088h]
  10006B0A: 85 C0              test        eax,eax
  10006B0C: 74 6C              je          10006B7A
  10006B0E: 3D F8 16 01 10     cmp         eax,100116F8h
  10006B13: 74 65              je          10006B7A
  10006B15: 8B 46 7C           mov         eax,dword ptr [esi+7Ch]
  10006B18: 85 C0              test        eax,eax
  10006B1A: 74 5E              je          10006B7A
  10006B1C: 83 38 00           cmp         dword ptr [eax],0
  10006B1F: 75 59              jne         10006B7A
  10006B21: 8B 86 84 00 00 00  mov         eax,dword ptr [esi+00000084h]
  10006B27: 85 C0              test        eax,eax
  10006B29: 74 18              je          10006B43
  10006B2B: 83 38 00           cmp         dword ptr [eax],0
  10006B2E: 75 13              jne         10006B43
  10006B30: 50                 push        eax
  10006B31: E8 DD D8 FF FF     call        10004413
  10006B36: FF B6 88 00 00 00  push        dword ptr [esi+00000088h]
  10006B3C: E8 E6 1E 00 00     call        10008A27
  10006B41: 59                 pop         ecx
  10006B42: 59                 pop         ecx
  10006B43: 8B 86 80 00 00 00  mov         eax,dword ptr [esi+00000080h]
  10006B49: 85 C0              test        eax,eax
  10006B4B: 74 18              je          10006B65
  10006B4D: 83 38 00           cmp         dword ptr [eax],0
  10006B50: 75 13              jne         10006B65
  10006B52: 50                 push        eax
  10006B53: E8 BB D8 FF FF     call        10004413
  10006B58: FF B6 88 00 00 00  push        dword ptr [esi+00000088h]
  10006B5E: E8 C2 1F 00 00     call        10008B25
  10006B63: 59                 pop         ecx
  10006B64: 59                 pop         ecx
  10006B65: FF 76 7C           push        dword ptr [esi+7Ch]
  10006B68: E8 A6 D8 FF FF     call        10004413
  10006B6D: FF B6 88 00 00 00  push        dword ptr [esi+00000088h]
  10006B73: E8 9B D8 FF FF     call        10004413
  10006B78: 59                 pop         ecx
  10006B79: 59                 pop         ecx
  10006B7A: 8B 86 8C 00 00 00  mov         eax,dword ptr [esi+0000008Ch]
  10006B80: 85 C0              test        eax,eax
  10006B82: 74 45              je          10006BC9
  10006B84: 83 38 00           cmp         dword ptr [eax],0
  10006B87: 75 40              jne         10006BC9
  10006B89: 8B 86 90 00 00 00  mov         eax,dword ptr [esi+00000090h]
  10006B8F: 2D FE 00 00 00     sub         eax,0FEh
  10006B94: 50                 push        eax
  10006B95: E8 79 D8 FF FF     call        10004413
  10006B9A: 8B 86 94 00 00 00  mov         eax,dword ptr [esi+00000094h]
  10006BA0: BF 80 00 00 00     mov         edi,80h
  10006BA5: 2B C7              sub         eax,edi
  10006BA7: 50                 push        eax
  10006BA8: E8 66 D8 FF FF     call        10004413
  10006BAD: 8B 86 98 00 00 00  mov         eax,dword ptr [esi+00000098h]
  10006BB3: 2B C7              sub         eax,edi
  10006BB5: 50                 push        eax
  10006BB6: E8 58 D8 FF FF     call        10004413
  10006BBB: FF B6 8C 00 00 00  push        dword ptr [esi+0000008Ch]
  10006BC1: E8 4D D8 FF FF     call        10004413
  10006BC6: 83 C4 10           add         esp,10h
  10006BC9: FF B6 9C 00 00 00  push        dword ptr [esi+0000009Ch]
  10006BCF: E8 95 00 00 00     call        10006C69
  10006BD4: 59                 pop         ecx
  10006BD5: 6A 06              push        6
  10006BD7: 58                 pop         eax
  10006BD8: 8D 9E A0 00 00 00  lea         ebx,[esi+000000A0h]
  10006BDE: 89 45 FC           mov         dword ptr [ebp-4],eax
  10006BE1: 8D 7E 28           lea         edi,[esi+28h]
  10006BE4: 81 7F F8 40 16 01  cmp         dword ptr [edi-8],10011640h
            10
  10006BEB: 74 1D              je          10006C0A
  10006BED: 8B 07              mov         eax,dword ptr [edi]
  10006BEF: 85 C0              test        eax,eax
  10006BF1: 74 14              je          10006C07
  10006BF3: 83 38 00           cmp         dword ptr [eax],0
  10006BF6: 75 0F              jne         10006C07
  10006BF8: 50                 push        eax
  10006BF9: E8 15 D8 FF FF     call        10004413
  10006BFE: FF 33              push        dword ptr [ebx]
  10006C00: E8 0E D8 FF FF     call        10004413
  10006C05: 59                 pop         ecx
  10006C06: 59                 pop         ecx
  10006C07: 8B 45 FC           mov         eax,dword ptr [ebp-4]
  10006C0A: 83 7F F4 00        cmp         dword ptr [edi-0Ch],0
  10006C0E: 74 16              je          10006C26
  10006C10: 8B 47 FC           mov         eax,dword ptr [edi-4]
  10006C13: 85 C0              test        eax,eax
  10006C15: 74 0C              je          10006C23
  10006C17: 83 38 00           cmp         dword ptr [eax],0
  10006C1A: 75 07              jne         10006C23
  10006C1C: 50                 push        eax
  10006C1D: E8 F1 D7 FF FF     call        10004413
  10006C22: 59                 pop         ecx
  10006C23: 8B 45 FC           mov         eax,dword ptr [ebp-4]
  10006C26: 83 C3 04           add         ebx,4
  10006C29: 83 C7 10           add         edi,10h
  10006C2C: 83 E8 01           sub         eax,1
  10006C2F: 89 45 FC           mov         dword ptr [ebp-4],eax
  10006C32: 75 B0              jne         10006BE4
  10006C34: 56                 push        esi
  10006C35: E8 D9 D7 FF FF     call        10004413
  10006C3A: 59                 pop         ecx
  10006C3B: 5F                 pop         edi
  10006C3C: 5E                 pop         esi
  10006C3D: 5B                 pop         ebx
  10006C3E: C9                 leave
  10006C3F: C3                 ret
  10006C40: 8B FF              mov         edi,edi
  10006C42: 55                 push        ebp
  10006C43: 8B EC              mov         ebp,esp
  10006C45: 8B 4D 08           mov         ecx,dword ptr [ebp+8]
  10006C48: 85 C9              test        ecx,ecx
  10006C4A: 74 16              je          10006C62
  10006C4C: 81 F9 38 C4 00 10  cmp         ecx,1000C438h
  10006C52: 74 0E              je          10006C62
  10006C54: 33 C0              xor         eax,eax
  10006C56: 40                 inc         eax
  10006C57: F0 0F C1 81 B0 00  lock xadd   dword ptr [ecx+000000B0h],eax
            00 00
  10006C5F: 40                 inc         eax
  10006C60: 5D                 pop         ebp
  10006C61: C3                 ret
  10006C62: B8 FF FF FF 7F     mov         eax,7FFFFFFFh
  10006C67: 5D                 pop         ebp
  10006C68: C3                 ret
  10006C69: 8B FF              mov         edi,edi
  10006C6B: 55                 push        ebp
  10006C6C: 8B EC              mov         ebp,esp
  10006C6E: 56                 push        esi
  10006C6F: 8B 75 08           mov         esi,dword ptr [ebp+8]
  10006C72: 85 F6              test        esi,esi
  10006C74: 74 21              je          10006C97
  10006C76: 81 FE 38 C4 00 10  cmp         esi,1000C438h
  10006C7C: 74 19              je          10006C97
  10006C7E: 8B 86 B0 00 00 00  mov         eax,dword ptr [esi+000000B0h]
  10006C84: 90                 nop
  10006C85: 85 C0              test        eax,eax
  10006C87: 75 0E              jne         10006C97
  10006C89: 56                 push        esi
  10006C8A: E8 37 1F 00 00     call        10008BC6
  10006C8F: 56                 push        esi
  10006C90: E8 7E D7 FF FF     call        10004413
  10006C95: 59                 pop         ecx
  10006C96: 59                 pop         ecx
  10006C97: 5E                 pop         esi
  10006C98: 5D                 pop         ebp
  10006C99: C3                 ret
  10006C9A: 8B FF              mov         edi,edi
  10006C9C: 55                 push        ebp
  10006C9D: 8B EC              mov         ebp,esp
  10006C9F: 8B 4D 08           mov         ecx,dword ptr [ebp+8]
  10006CA2: 85 C9              test        ecx,ecx
  10006CA4: 74 16              je          10006CBC
  10006CA6: 81 F9 38 C4 00 10  cmp         ecx,1000C438h
  10006CAC: 74 0E              je          10006CBC
  10006CAE: 83 C8 FF           or          eax,0FFFFFFFFh
  10006CB1: F0 0F C1 81 B0 00  lock xadd   dword ptr [ecx+000000B0h],eax
            00 00
  10006CB9: 48                 dec         eax
  10006CBA: 5D                 pop         ebp
  10006CBB: C3                 ret
  10006CBC: B8 FF FF FF 7F     mov         eax,7FFFFFFFh
  10006CC1: 5D                 pop         ebp
  10006CC2: C3                 ret
  10006CC3: 8B FF              mov         edi,edi
  10006CC5: 55                 push        ebp
  10006CC6: 8B EC              mov         ebp,esp
  10006CC8: 8B 45 08           mov         eax,dword ptr [ebp+8]
  10006CCB: 85 C0              test        eax,eax
  10006CCD: 74 73              je          10006D42
  10006CCF: F0 FF 48 0C        lock dec    dword ptr [eax+0Ch]
  10006CD3: 8B 48 7C           mov         ecx,dword ptr [eax+7Ch]
  10006CD6: 85 C9              test        ecx,ecx
  10006CD8: 74 03              je          10006CDD
  10006CDA: F0 FF 09           lock dec    dword ptr [ecx]
  10006CDD: 8B 88 84 00 00 00  mov         ecx,dword ptr [eax+00000084h]
  10006CE3: 85 C9              test        ecx,ecx
  10006CE5: 74 03              je          10006CEA
  10006CE7: F0 FF 09           lock dec    dword ptr [ecx]
  10006CEA: 8B 88 80 00 00 00  mov         ecx,dword ptr [eax+00000080h]
  10006CF0: 85 C9              test        ecx,ecx
  10006CF2: 74 03              je          10006CF7
  10006CF4: F0 FF 09           lock dec    dword ptr [ecx]
  10006CF7: 8B 88 8C 00 00 00  mov         ecx,dword ptr [eax+0000008Ch]
  10006CFD: 85 C9              test        ecx,ecx
  10006CFF: 74 03              je          10006D04
  10006D01: F0 FF 09           lock dec    dword ptr [ecx]
  10006D04: 56                 push        esi
  10006D05: 6A 06              push        6
  10006D07: 8D 48 28           lea         ecx,[eax+28h]
  10006D0A: 5E                 pop         esi
  10006D0B: 81 79 F8 40 16 01  cmp         dword ptr [ecx-8],10011640h
            10
  10006D12: 74 09              je          10006D1D
  10006D14: 8B 11              mov         edx,dword ptr [ecx]
  10006D16: 85 D2              test        edx,edx
  10006D18: 74 03              je          10006D1D
  10006D1A: F0 FF 0A           lock dec    dword ptr [edx]
  10006D1D: 83 79 F4 00        cmp         dword ptr [ecx-0Ch],0
  10006D21: 74 0A              je          10006D2D
  10006D23: 8B 51 FC           mov         edx,dword ptr [ecx-4]
  10006D26: 85 D2              test        edx,edx
  10006D28: 74 03              je          10006D2D
  10006D2A: F0 FF 0A           lock dec    dword ptr [edx]
  10006D2D: 83 C1 10           add         ecx,10h
  10006D30: 83 EE 01           sub         esi,1
  10006D33: 75 D6              jne         10006D0B
  10006D35: FF B0 9C 00 00 00  push        dword ptr [eax+0000009Ch]
  10006D3B: E8 5A FF FF FF     call        10006C9A
  10006D40: 59                 pop         ecx
  10006D41: 5E                 pop         esi
  10006D42: 5D                 pop         ebp
  10006D43: C3                 ret
  10006D44: 6A 0C              push        0Ch
  10006D46: 68 C0 02 01 10     push        100102C0h
  10006D4B: E8 60 AB FF FF     call        100018B0
  10006D50: 83 65 E4 00        and         dword ptr [ebp-1Ch],0
  10006D54: E8 BE D0 FF FF     call        10003E17
  10006D59: 8D 78 4C           lea         edi,[eax+4Ch]
  10006D5C: 8B 0D F0 16 01 10  mov         ecx,dword ptr ds:[100116F0h]
  10006D62: 85 88 50 03 00 00  test        dword ptr [eax+00000350h],ecx
  10006D68: 74 06              je          10006D70
  10006D6A: 8B 37              mov         esi,dword ptr [edi]
  10006D6C: 85 F6              test        esi,esi
  10006D6E: 75 3D              jne         10006DAD
  10006D70: 6A 04              push        4
  10006D72: E8 33 D3 FF FF     call        100040AA
  10006D77: 59                 pop         ecx
  10006D78: 83 65 FC 00        and         dword ptr [ebp-4],0
  10006D7C: FF 35 44 22 01 10  push        dword ptr ds:[10012244h]
  10006D82: 57                 push        edi
  10006D83: E8 3D 00 00 00     call        10006DC5
  10006D88: 59                 pop         ecx
  10006D89: 59                 pop         ecx
  10006D8A: 8B F0              mov         esi,eax
  10006D8C: 89 75 E4           mov         dword ptr [ebp-1Ch],esi
  10006D8F: C7 45 FC FE FF FF  mov         dword ptr [ebp-4],0FFFFFFFEh
            FF
  10006D96: E8 09 00 00 00     call        10006DA4
  10006D9B: 85 F6              test        esi,esi
  10006D9D: 74 20              je          10006DBF
  10006D9F: EB 0C              jmp         10006DAD
  10006DA1: 8B 75 E4           mov         esi,dword ptr [ebp-1Ch]
  10006DA4: 6A 04              push        4
  10006DA6: E8 47 D3 FF FF     call        100040F2
  10006DAB: 59                 pop         ecx
  10006DAC: C3                 ret
  10006DAD: 8B C6              mov         eax,esi
  10006DAF: 8B 4D F0           mov         ecx,dword ptr [ebp-10h]
  10006DB2: 64 89 0D 00 00 00  mov         dword ptr fs:[00000000h],ecx
            00
  10006DB9: 59                 pop         ecx
  10006DBA: 5F                 pop         edi
  10006DBB: 5E                 pop         esi
  10006DBC: 5B                 pop         ebx
  10006DBD: C9                 leave
  10006DBE: C3                 ret
  10006DBF: E8 39 CB FF FF     call        100038FD
  10006DC4: CC                 int         3
  10006DC5: 8B FF              mov         edi,edi
  10006DC7: 55                 push        ebp
  10006DC8: 8B EC              mov         ebp,esp
  10006DCA: 56                 push        esi
  10006DCB: 8B 75 0C           mov         esi,dword ptr [ebp+0Ch]
  10006DCE: 57                 push        edi
  10006DCF: 85 F6              test        esi,esi
  10006DD1: 74 3C              je          10006E0F
  10006DD3: 8B 45 08           mov         eax,dword ptr [ebp+8]
  10006DD6: 85 C0              test        eax,eax
  10006DD8: 74 35              je          10006E0F
  10006DDA: 8B 38              mov         edi,dword ptr [eax]
  10006DDC: 3B FE              cmp         edi,esi
  10006DDE: 75 04              jne         10006DE4
  10006DE0: 8B C6              mov         eax,esi
  10006DE2: EB 2D              jmp         10006E11
  10006DE4: 56                 push        esi
  10006DE5: 89 30              mov         dword ptr [eax],esi
  10006DE7: E8 8F FC FF FF     call        10006A7B
  10006DEC: 59                 pop         ecx
  10006DED: 85 FF              test        edi,edi
  10006DEF: 74 EF              je          10006DE0
  10006DF1: 57                 push        edi
  10006DF2: E8 CC FE FF FF     call        10006CC3
  10006DF7: 83 7F 0C 00        cmp         dword ptr [edi+0Ch],0
  10006DFB: 59                 pop         ecx
  10006DFC: 75 E2              jne         10006DE0
  10006DFE: 81 FF 80 15 01 10  cmp         edi,10011580h
  10006E04: 74 DA              je          10006DE0
  10006E06: 57                 push        edi
  10006E07: E8 EC FC FF FF     call        10006AF8
  10006E0C: 59                 pop         ecx
  10006E0D: EB D1              jmp         10006DE0
  10006E0F: 33 C0              xor         eax,eax
  10006E11: 5F                 pop         edi
  10006E12: 5E                 pop         esi
  10006E13: 5D                 pop         ebp
  10006E14: C3                 ret
  10006E15: A1 64 22 01 10     mov         eax,dword ptr ds:[10012264h]
  10006E1A: 90                 nop
  10006E1B: C3                 ret
  10006E1C: CC                 int         3
  10006E1D: CC                 int         3
  10006E1E: CC                 int         3
  10006E1F: CC                 int         3
  10006E20: 8B FF              mov         edi,edi
  10006E22: 55                 push        ebp
  10006E23: 8B EC              mov         ebp,esp
  10006E25: 81 EC 18 01 00 00  sub         esp,118h
  10006E2B: A1 10 10 01 10     mov         eax,dword ptr ds:[10011010h]
  10006E30: 33 C5              xor         eax,ebp
  10006E32: 89 45 FC           mov         dword ptr [ebp-4],eax
  10006E35: 8B 4D 0C           mov         ecx,dword ptr [ebp+0Ch]
  10006E38: 53                 push        ebx
  10006E39: 8B 5D 14           mov         ebx,dword ptr [ebp+14h]
  10006E3C: 56                 push        esi
  10006E3D: 8B 75 08           mov         esi,dword ptr [ebp+8]
  10006E40: 89 B5 FC FE FF FF  mov         dword ptr [ebp+FFFFFEFCh],esi
  10006E46: 89 9D F8 FE FF FF  mov         dword ptr [ebp+FFFFFEF8h],ebx
  10006E4C: 57                 push        edi
  10006E4D: 8B 7D 10           mov         edi,dword ptr [ebp+10h]
  10006E50: 89 BD 00 FF FF FF  mov         dword ptr [ebp+FFFFFF00h],edi
  10006E56: 85 F6              test        esi,esi
  10006E58: 75 25              jne         10006E7F
  10006E5A: 85 C9              test        ecx,ecx
  10006E5C: 74 21              je          10006E7F
  10006E5E: E8 40 D5 FF FF     call        100043A3
  10006E63: C7 00 16 00 00 00  mov         dword ptr [eax],16h
  10006E69: E8 78 D4 FF FF     call        100042E6
  10006E6E: 8B 4D FC           mov         ecx,dword ptr [ebp-4]
  10006E71: 5F                 pop         edi
  10006E72: 5E                 pop         esi
  10006E73: 33 CD              xor         ecx,ebp
  10006E75: 5B                 pop         ebx
  10006E76: E8 61 AC FF FF     call        10001ADC
  10006E7B: 8B E5              mov         esp,ebp
  10006E7D: 5D                 pop         ebp
  10006E7E: C3                 ret
  10006E7F: 85 FF              test        edi,edi
  10006E81: 74 DB              je          10006E5E
  10006E83: 85 DB              test        ebx,ebx
  10006E85: 74 D7              je          10006E5E
  10006E87: C7 85 E8 FE FF FF  mov         dword ptr [ebp+FFFFFEE8h],0
            00 00 00 00
  10006E91: 83 F9 02           cmp         ecx,2
  10006E94: 72 D8              jb          10006E6E
  10006E96: 49                 dec         ecx
  10006E97: 0F AF CF           imul        ecx,edi
  10006E9A: 03 CE              add         ecx,esi
  10006E9C: 89 8D 08 FF FF FF  mov         dword ptr [ebp+FFFFFF08h],ecx
  10006EA2: 8B C1              mov         eax,ecx
  10006EA4: 33 D2              xor         edx,edx
  10006EA6: 2B C6              sub         eax,esi
  10006EA8: F7 F7              div         eax,edi
  10006EAA: 40                 inc         eax
  10006EAB: 83 F8 08           cmp         eax,8
  10006EAE: 0F 87 B6 00 00 00  ja          10006F6A
  10006EB4: 3B CE              cmp         ecx,esi
  10006EB6: 0F 86 27 04 00 00  jbe         100072E3
  10006EBC: 8D 14 37           lea         edx,[edi+esi]
  10006EBF: 89 95 F0 FE FF FF  mov         dword ptr [ebp+FFFFFEF0h],edx
  10006EC5: 8B C6              mov         eax,esi
  10006EC7: 8B F2              mov         esi,edx
  10006EC9: 89 85 04 FF FF FF  mov         dword ptr [ebp+FFFFFF04h],eax
  10006ECF: 3B F1              cmp         esi,ecx
  10006ED1: 77 2F              ja          10006F02
  10006ED3: 50                 push        eax
  10006ED4: 56                 push        esi
  10006ED5: 8B CB              mov         ecx,ebx
  10006ED7: FF 15 04 B1 00 10  call        dword ptr ds:[1000B104h]
  10006EDD: FF D3              call        ebx
  10006EDF: 83 C4 08           add         esp,8
  10006EE2: 85 C0              test        eax,eax
  10006EE4: 7E 0A              jle         10006EF0
  10006EE6: 8B C6              mov         eax,esi
  10006EE8: 89 85 04 FF FF FF  mov         dword ptr [ebp+FFFFFF04h],eax
  10006EEE: EB 06              jmp         10006EF6
  10006EF0: 8B 85 04 FF FF FF  mov         eax,dword ptr [ebp+FFFFFF04h]
  10006EF6: 8B 8D 08 FF FF FF  mov         ecx,dword ptr [ebp+FFFFFF08h]
  10006EFC: 03 F7              add         esi,edi
  10006EFE: 3B F1              cmp         esi,ecx
  10006F00: 76 D1              jbe         10006ED3
  10006F02: 89 BD F4 FE FF FF  mov         dword ptr [ebp+FFFFFEF4h],edi
  10006F08: 8B D1              mov         edx,ecx
  10006F0A: 3B C1              cmp         eax,ecx
  10006F0C: 74 3B              je          10006F49
  10006F0E: 2B C1              sub         eax,ecx
  10006F10: 8B DF              mov         ebx,edi
  10006F12: 89 85 04 FF FF FF  mov         dword ptr [ebp+FFFFFF04h],eax
  10006F18: EB 06              jmp         10006F20
  10006F1A: 8D 9B 00 00 00 00  lea         ebx,[ebx+00000000h]
  10006F20: 8A 0C 10           mov         cl,byte ptr [eax+edx]
  10006F23: 8D 52 01           lea         edx,[edx+1]
  10006F26: 8B B5 04 FF FF FF  mov         esi,dword ptr [ebp+FFFFFF04h]
  10006F2C: 8A 42 FF           mov         al,byte ptr [edx-1]
  10006F2F: 88 44 16 FF        mov         byte ptr [esi+edx-1],al
  10006F33: 8B C6              mov         eax,esi
  10006F35: 88 4A FF           mov         byte ptr [edx-1],cl
  10006F38: 83 EB 01           sub         ebx,1
  10006F3B: 75 E3              jne         10006F20
  10006F3D: 8B 9D F8 FE FF FF  mov         ebx,dword ptr [ebp+FFFFFEF8h]
  10006F43: 8B 8D 08 FF FF FF  mov         ecx,dword ptr [ebp+FFFFFF08h]
  10006F49: 8B B5 FC FE FF FF  mov         esi,dword ptr [ebp+FFFFFEFCh]
  10006F4F: 2B CF              sub         ecx,edi
  10006F51: 8B 95 F0 FE FF FF  mov         edx,dword ptr [ebp+FFFFFEF0h]
  10006F57: 89 8D 08 FF FF FF  mov         dword ptr [ebp+FFFFFF08h],ecx
  10006F5D: 3B CE              cmp         ecx,esi
  10006F5F: 0F 87 60 FF FF FF  ja          10006EC5
  10006F65: E9 79 03 00 00     jmp         100072E3
  10006F6A: D1 E8              shr         eax,1
  10006F6C: 8B CB              mov         ecx,ebx
  10006F6E: 0F AF C7           imul        eax,edi
  10006F71: 89 85 04 FF FF FF  mov         dword ptr [ebp+FFFFFF04h],eax
  10006F77: 8D 3C 30           lea         edi,[eax+esi]
  10006F7A: 57                 push        edi
  10006F7B: 56                 push        esi
  10006F7C: 89 BD EC FE FF FF  mov         dword ptr [ebp+FFFFFEECh],edi
  10006F82: FF 15 04 B1 00 10  call        dword ptr ds:[1000B104h]
  10006F88: FF D3              call        ebx
  10006F8A: 8B B5 00 FF FF FF  mov         esi,dword ptr [ebp+FFFFFF00h]
  10006F90: 83 C4 08           add         esp,8
  10006F93: 85 C0              test        eax,eax
  10006F95: 8B 85 FC FE FF FF  mov         eax,dword ptr [ebp+FFFFFEFCh]
  10006F9B: 7E 4D              jle         10006FEA
  10006F9D: 89 B5 F4 FE FF FF  mov         dword ptr [ebp+FFFFFEF4h],esi
  10006FA3: 89 BD F0 FE FF FF  mov         dword ptr [ebp+FFFFFEF0h],edi
  10006FA9: 3B C7              cmp         eax,edi
  10006FAB: 74 3D              je          10006FEA
  10006FAD: 8B 9D F4 FE FF FF  mov         ebx,dword ptr [ebp+FFFFFEF4h]
  10006FB3: 8B F7              mov         esi,edi
  10006FB5: 8B BD 04 FF FF FF  mov         edi,dword ptr [ebp+FFFFFF04h]
  10006FBB: EB 03              jmp         10006FC0
  10006FBD: 8D 49 00           lea         ecx,[ecx]
  10006FC0: 8A 06              mov         al,byte ptr [esi]
  10006FC2: 8B D6              mov         edx,esi
  10006FC4: 2B D7              sub         edx,edi
  10006FC6: 8A 0A              mov         cl,byte ptr [edx]
  10006FC8: 88 02              mov         byte ptr [edx],al
  10006FCA: 88 0E              mov         byte ptr [esi],cl
  10006FCC: 46                 inc         esi
  10006FCD: 83 EB 01           sub         ebx,1
  10006FD0: 75 EE              jne         10006FC0
  10006FD2: 8B BD EC FE FF FF  mov         edi,dword ptr [ebp+FFFFFEECh]
  10006FD8: 8B 9D F8 FE FF FF  mov         ebx,dword ptr [ebp+FFFFFEF8h]
  10006FDE: 8B B5 00 FF FF FF  mov         esi,dword ptr [ebp+FFFFFF00h]
  10006FE4: 8B 85 FC FE FF FF  mov         eax,dword ptr [ebp+FFFFFEFCh]
  10006FEA: FF B5 08 FF FF FF  push        dword ptr [ebp+FFFFFF08h]
  10006FF0: 8B CB              mov         ecx,ebx
  10006FF2: 50                 push        eax
  10006FF3: FF 15 04 B1 00 10  call        dword ptr ds:[1000B104h]
  10006FF9: FF D3              call        ebx
  10006FFB: 8B 95 08 FF FF FF  mov         edx,dword ptr [ebp+FFFFFF08h]
  10007001: 83 C4 08           add         esp,8
  10007004: 85 C0              test        eax,eax
  10007006: 7E 49              jle         10007051
  10007008: 8B 85 FC FE FF FF  mov         eax,dword ptr [ebp+FFFFFEFCh]
  1000700E: 89 B5 EC FE FF FF  mov         dword ptr [ebp+FFFFFEECh],esi
  10007014: 8B F2              mov         esi,edx
  10007016: 3B C2              cmp         eax,edx
  10007018: 74 37              je          10007051
  1000701A: 8B 9D EC FE FF FF  mov         ebx,dword ptr [ebp+FFFFFEECh]
  10007020: 2B C2              sub         eax,edx
  10007022: 89 85 F0 FE FF FF  mov         dword ptr [ebp+FFFFFEF0h],eax
  10007028: 8B D0              mov         edx,eax
  1000702A: 8D 9B 00 00 00 00  lea         ebx,[ebx+00000000h]
  10007030: 8A 06              mov         al,byte ptr [esi]
  10007032: 8D 76 01           lea         esi,[esi+1]
  10007035: 8A 4C 32 FF        mov         cl,byte ptr [edx+esi-1]
  10007039: 88 44 32 FF        mov         byte ptr [edx+esi-1],al
  1000703D: 88 4E FF           mov         byte ptr [esi-1],cl
  10007040: 83 EB 01           sub         ebx,1
  10007043: 75 EB              jne         10007030
  10007045: 8B 9D F8 FE FF FF  mov         ebx,dword ptr [ebp+FFFFFEF8h]
  1000704B: 8B 95 08 FF FF FF  mov         edx,dword ptr [ebp+FFFFFF08h]
  10007051: 52                 push        edx
  10007052: 57                 push        edi
  10007053: 8B CB              mov         ecx,ebx
  10007055: FF 15 04 B1 00 10  call        dword ptr ds:[1000B104h]
  1000705B: FF D3              call        ebx
  1000705D: 8B 95 08 FF FF FF  mov         edx,dword ptr [ebp+FFFFFF08h]
  10007063: 83 C4 08           add         esp,8
  10007066: 85 C0              test        eax,eax
  10007068: 8B 85 00 FF FF FF  mov         eax,dword ptr [ebp+FFFFFF00h]
  1000706E: 7E 35              jle         100070A5
  10007070: 8B D8              mov         ebx,eax
  10007072: 8B F2              mov         esi,edx
  10007074: 3B FA              cmp         edi,edx
  10007076: 74 2D              je          100070A5
  10007078: 8B C7              mov         eax,edi
  1000707A: 2B C2              sub         eax,edx
  1000707C: 89 85 EC FE FF FF  mov         dword ptr [ebp+FFFFFEECh],eax
  10007082: 8B D0              mov         edx,eax
  10007084: 8A 06              mov         al,byte ptr [esi]
  10007086: 8D 76 01           lea         esi,[esi+1]
  10007089: 8A 4C 32 FF        mov         cl,byte ptr [edx+esi-1]
  1000708D: 88 44 32 FF        mov         byte ptr [edx+esi-1],al
  10007091: 88 4E FF           mov         byte ptr [esi-1],cl
  10007094: 83 EB 01           sub         ebx,1
  10007097: 75 EB              jne         10007084
  10007099: 8B 85 00 FF FF FF  mov         eax,dword ptr [ebp+FFFFFF00h]
  1000709F: 8B 95 08 FF FF FF  mov         edx,dword ptr [ebp+FFFFFF08h]
  100070A5: 8B B5 FC FE FF FF  mov         esi,dword ptr [ebp+FFFFFEFCh]
  100070AB: 8B DA              mov         ebx,edx
  100070AD: 89 95 04 FF FF FF  mov         dword ptr [ebp+FFFFFF04h],edx
  100070B3: 3B FE              cmp         edi,esi
  100070B5: 76 3E              jbe         100070F5
  100070B7: EB 07              jmp         100070C0
  100070B9: 8D A4 24 00 00 00  lea         esp,[esp+00000000h]
            00
  100070C0: 03 F0              add         esi,eax
  100070C2: 89 B5 F4 FE FF FF  mov         dword ptr [ebp+FFFFFEF4h],esi
  100070C8: 3B F7              cmp         esi,edi
  100070CA: 73 23              jae         100070EF
  100070CC: 8B 8D F8 FE FF FF  mov         ecx,dword ptr [ebp+FFFFFEF8h]
  100070D2: 57                 push        edi
  100070D3: 56                 push        esi
  100070D4: FF 15 04 B1 00 10  call        dword ptr ds:[1000B104h]
  100070DA: FF 95 F8 FE FF FF  call        dword ptr [ebp+FFFFFEF8h]
  100070E0: 83 C4 08           add         esp,8
  100070E3: 85 C0              test        eax,eax
  100070E5: 8B 85 00 FF FF FF  mov         eax,dword ptr [ebp+FFFFFF00h]
  100070EB: 7E D3              jle         100070C0
  100070ED: EB 42              jmp         10007131
  100070EF: 8B 95 08 FF FF FF  mov         edx,dword ptr [ebp+FFFFFF08h]
  100070F5: 8B 9D F8 FE FF FF  mov         ebx,dword ptr [ebp+FFFFFEF8h]
  100070FB: EB 03              jmp         10007100
  100070FD: 8D 49 00           lea         ecx,[ecx]
  10007100: 03 F0              add         esi,eax
  10007102: 3B F2              cmp         esi,edx
  10007104: 77 1F              ja          10007125
  10007106: 57                 push        edi
  10007107: 56                 push        esi
  10007108: 8B CB              mov         ecx,ebx
  1000710A: FF 15 04 B1 00 10  call        dword ptr ds:[1000B104h]
  10007110: FF D3              call        ebx
  10007112: 8B 95 08 FF FF FF  mov         edx,dword ptr [ebp+FFFFFF08h]
  10007118: 83 C4 08           add         esp,8
  1000711B: 85 C0              test        eax,eax
  1000711D: 8B 85 00 FF FF FF  mov         eax,dword ptr [ebp+FFFFFF00h]
  10007123: 7E DB              jle         10007100
  10007125: 8B 9D 04 FF FF FF  mov         ebx,dword ptr [ebp+FFFFFF04h]
  1000712B: 89 B5 F4 FE FF FF  mov         dword ptr [ebp+FFFFFEF4h],esi
  10007131: 8B B5 F8 FE FF FF  mov         esi,dword ptr [ebp+FFFFFEF8h]
  10007137: EB 07              jmp         10007140
  10007139: 8D A4 24 00 00 00  lea         esp,[esp+00000000h]
            00
  10007140: 8B 85 00 FF FF FF  mov         eax,dword ptr [ebp+FFFFFF00h]
  10007146: 8B CB              mov         ecx,ebx
  10007148: 2B D8              sub         ebx,eax
  1000714A: 89 8D 04 FF FF FF  mov         dword ptr [ebp+FFFFFF04h],ecx
  10007150: 3B DF              cmp         ebx,edi
  10007152: 76 1F              jbe         10007173
  10007154: 57                 push        edi
  10007155: 53                 push        ebx
  10007156: 8B CE              mov         ecx,esi
  10007158: FF 15 04 B1 00 10  call        dword ptr ds:[1000B104h]
  1000715E: FF D6              call        esi
  10007160: 83 C4 08           add         esp,8
  10007163: 85 C0              test        eax,eax
  10007165: 7F D9              jg          10007140
  10007167: 8B 85 00 FF FF FF  mov         eax,dword ptr [ebp+FFFFFF00h]
  1000716D: 8B 8D 04 FF FF FF  mov         ecx,dword ptr [ebp+FFFFFF04h]
  10007173: 8B B5 F4 FE FF FF  mov         esi,dword ptr [ebp+FFFFFEF4h]
  10007179: 89 9D 04 FF FF FF  mov         dword ptr [ebp+FFFFFF04h],ebx
  1000717F: 3B DE              cmp         ebx,esi
  10007181: 72 4A              jb          100071CD
  10007183: 89 85 F0 FE FF FF  mov         dword ptr [ebp+FFFFFEF0h],eax
  10007189: 8B D3              mov         edx,ebx
  1000718B: 74 2B              je          100071B8
  1000718D: 2B F3              sub         esi,ebx
  1000718F: 8B D8              mov         ebx,eax
  10007191: 8A 02              mov         al,byte ptr [edx]
  10007193: 8D 52 01           lea         edx,[edx+1]
  10007196: 8A 4C 16 FF        mov         cl,byte ptr [esi+edx-1]
  1000719A: 88 44 16 FF        mov         byte ptr [esi+edx-1],al
  1000719E: 88 4A FF           mov         byte ptr [edx-1],cl
  100071A1: 83 EB 01           sub         ebx,1
  100071A4: 75 EB              jne         10007191
  100071A6: 8B B5 F4 FE FF FF  mov         esi,dword ptr [ebp+FFFFFEF4h]
  100071AC: 8B 9D 04 FF FF FF  mov         ebx,dword ptr [ebp+FFFFFF04h]
  100071B2: 8B 85 00 FF FF FF  mov         eax,dword ptr [ebp+FFFFFF00h]
  100071B8: 8B 95 08 FF FF FF  mov         edx,dword ptr [ebp+FFFFFF08h]
  100071BE: 3B FB              cmp         edi,ebx
  100071C0: 0F 85 ED FE FF FF  jne         100070B3
  100071C6: 8B FE              mov         edi,esi
  100071C8: E9 E6 FE FF FF     jmp         100070B3
  100071CD: 3B F9              cmp         edi,ecx
  100071CF: 73 3C              jae         1000720D
  100071D1: 8B 9D F8 FE FF FF  mov         ebx,dword ptr [ebp+FFFFFEF8h]
  100071D7: EB 07              jmp         100071E0
  100071D9: 8D A4 24 00 00 00  lea         esp,[esp+00000000h]
            00
  100071E0: 2B C8              sub         ecx,eax
  100071E2: 89 8D 04 FF FF FF  mov         dword ptr [ebp+FFFFFF04h],ecx
  100071E8: 3B CF              cmp         ecx,edi
  100071EA: 76 21              jbe         1000720D
  100071EC: 57                 push        edi
  100071ED: 51                 push        ecx
  100071EE: 8B CB              mov         ecx,ebx
  100071F0: FF 15 04 B1 00 10  call        dword ptr ds:[1000B104h]
  100071F6: FF D3              call        ebx
  100071F8: 8B 8D 04 FF FF FF  mov         ecx,dword ptr [ebp+FFFFFF04h]
  100071FE: 83 C4 08           add         esp,8
  10007201: 85 C0              test        eax,eax
  10007203: 8B 85 00 FF FF FF  mov         eax,dword ptr [ebp+FFFFFF00h]
  10007209: 74 D5              je          100071E0
  1000720B: EB 44              jmp         10007251
  1000720D: 8B 9D F8 FE FF FF  mov         ebx,dword ptr [ebp+FFFFFEF8h]
  10007213: 8B B5 FC FE FF FF  mov         esi,dword ptr [ebp+FFFFFEFCh]
  10007219: 8D A4 24 00 00 00  lea         esp,[esp+00000000h]
            00
  10007220: 2B C8              sub         ecx,eax
  10007222: 89 8D 04 FF FF FF  mov         dword ptr [ebp+FFFFFF04h],ecx
  10007228: 3B CE              cmp         ecx,esi
  1000722A: 76 1F              jbe         1000724B
  1000722C: 57                 push        edi
  1000722D: 51                 push        ecx
  1000722E: 8B CB              mov         ecx,ebx
  10007230: FF 15 04 B1 00 10  call        dword ptr ds:[1000B104h]
  10007236: FF D3              call        ebx
  10007238: 8B 8D 04 FF FF FF  mov         ecx,dword ptr [ebp+FFFFFF04h]
  1000723E: 83 C4 08           add         esp,8
  10007241: 85 C0              test        eax,eax
  10007243: 8B 85 00 FF FF FF  mov         eax,dword ptr [ebp+FFFFFF00h]
  10007249: 74 D5              je          10007220
  1000724B: 8B B5 F4 FE FF FF  mov         esi,dword ptr [ebp+FFFFFEF4h]
  10007251: 8B 95 08 FF FF FF  mov         edx,dword ptr [ebp+FFFFFF08h]
  10007257: 8B CA              mov         ecx,edx
  10007259: 8B BD 04 FF FF FF  mov         edi,dword ptr [ebp+FFFFFF04h]
  1000725F: 2B CE              sub         ecx,esi
  10007261: 8B C7              mov         eax,edi
  10007263: 2B 85 FC FE FF FF  sub         eax,dword ptr [ebp+FFFFFEFCh]
  10007269: 3B C1              cmp         eax,ecx
  1000726B: 7C 3D              jl          100072AA
  1000726D: 8B 85 FC FE FF FF  mov         eax,dword ptr [ebp+FFFFFEFCh]
  10007273: 3B C7              cmp         eax,edi
  10007275: 73 18              jae         1000728F
  10007277: 8B 8D E8 FE FF FF  mov         ecx,dword ptr [ebp+FFFFFEE8h]
  1000727D: 89 44 8D 84        mov         dword ptr [ebp+ecx*4-7Ch],eax
  10007281: 89 BC 8D 0C FF FF  mov         dword ptr [ebp+ecx*4+FFFFFF0Ch],edi
            FF
  10007288: 41                 inc         ecx
  10007289: 89 8D E8 FE FF FF  mov         dword ptr [ebp+FFFFFEE8h],ecx
  1000728F: 8B 8D 08 FF FF FF  mov         ecx,dword ptr [ebp+FFFFFF08h]
  10007295: 8B BD 00 FF FF FF  mov         edi,dword ptr [ebp+FFFFFF00h]
  1000729B: 3B F1              cmp         esi,ecx
  1000729D: 73 44              jae         100072E3
  1000729F: 89 B5 FC FE FF FF  mov         dword ptr [ebp+FFFFFEFCh],esi
  100072A5: E9 F8 FB FF FF     jmp         10006EA2
  100072AA: 3B F2              cmp         esi,edx
  100072AC: 73 18              jae         100072C6
  100072AE: 8B 85 E8 FE FF FF  mov         eax,dword ptr [ebp+FFFFFEE8h]
  100072B4: 89 74 85 84        mov         dword ptr [ebp+eax*4-7Ch],esi
  100072B8: 89 94 85 0C FF FF  mov         dword ptr [ebp+eax*4+FFFFFF0Ch],edx
            FF
  100072BF: 40                 inc         eax
  100072C0: 89 85 E8 FE FF FF  mov         dword ptr [ebp+FFFFFEE8h],eax
  100072C6: 8B B5 FC FE FF FF  mov         esi,dword ptr [ebp+FFFFFEFCh]
  100072CC: 3B F7              cmp         esi,edi
  100072CE: 73 0D              jae         100072DD
  100072D0: 8B CF              mov         ecx,edi
  100072D2: 8B BD 00 FF FF FF  mov         edi,dword ptr [ebp+FFFFFF00h]
  100072D8: E9 BF FB FF FF     jmp         10006E9C
  100072DD: 8B BD 00 FF FF FF  mov         edi,dword ptr [ebp+FFFFFF00h]
  100072E3: 8B 85 E8 FE FF FF  mov         eax,dword ptr [ebp+FFFFFEE8h]
  100072E9: 83 E8 01           sub         eax,1
  100072EC: 89 85 E8 FE FF FF  mov         dword ptr [ebp+FFFFFEE8h],eax
  100072F2: 0F 88 76 FB FF FF  js          10006E6E
  100072F8: 8B 74 85 84        mov         esi,dword ptr [ebp+eax*4-7Ch]
  100072FC: 8B 8C 85 0C FF FF  mov         ecx,dword ptr [ebp+eax*4+FFFFFF0Ch]
            FF
  10007303: 89 B5 FC FE FF FF  mov         dword ptr [ebp+FFFFFEFCh],esi
  10007309: E9 8E FB FF FF     jmp         10006E9C
  1000730E: 8B FF              mov         edi,edi
  10007310: 55                 push        ebp
  10007311: 8B EC              mov         ebp,esp
  10007313: 8B 4D 08           mov         ecx,dword ptr [ebp+8]
  10007316: 53                 push        ebx
  10007317: 8B 5D 10           mov         ebx,dword ptr [ebp+10h]
  1000731A: 56                 push        esi
  1000731B: 8B 75 14           mov         esi,dword ptr [ebp+14h]
  1000731E: 85 F6              test        esi,esi
  10007320: 75 1E              jne         10007340
  10007322: 85 C9              test        ecx,ecx
  10007324: 75 1E              jne         10007344
  10007326: 39 75 0C           cmp         dword ptr [ebp+0Ch],esi
  10007329: 74 27              je          10007352
  1000732B: E8 73 D0 FF FF     call        100043A3
  10007330: 6A 16              push        16h
  10007332: 5E                 pop         esi
  10007333: 89 30              mov         dword ptr [eax],esi
  10007335: E8 AC CF FF FF     call        100042E6
  1000733A: 8B C6              mov         eax,esi
  1000733C: 5E                 pop         esi
  1000733D: 5B                 pop         ebx
  1000733E: 5D                 pop         ebp
  1000733F: C3                 ret
  10007340: 85 C9              test        ecx,ecx
  10007342: 74 E7              je          1000732B
  10007344: 8B 45 0C           mov         eax,dword ptr [ebp+0Ch]
  10007347: 85 C0              test        eax,eax
  10007349: 74 E0              je          1000732B
  1000734B: 85 F6              test        esi,esi
  1000734D: 75 07              jne         10007356
  1000734F: C6 01 00           mov         byte ptr [ecx],0
  10007352: 33 C0              xor         eax,eax
  10007354: EB E6              jmp         1000733C
  10007356: 85 DB              test        ebx,ebx
  10007358: 75 04              jne         1000735E
  1000735A: 88 19              mov         byte ptr [ecx],bl
  1000735C: EB CD              jmp         1000732B
  1000735E: 2B D9              sub         ebx,ecx
  10007360: 8B D1              mov         edx,ecx
  10007362: 57                 push        edi
  10007363: 8B F8              mov         edi,eax
  10007365: 83 FE FF           cmp         esi,0FFFFFFFFh
  10007368: 75 11              jne         1000737B
  1000736A: 8A 04 13           mov         al,byte ptr [ebx+edx]
  1000736D: 88 02              mov         byte ptr [edx],al
  1000736F: 42                 inc         edx
  10007370: 84 C0              test        al,al
  10007372: 74 27              je          1000739B
  10007374: 83 EF 01           sub         edi,1
  10007377: 75 F1              jne         1000736A
  10007379: EB 20              jmp         1000739B
  1000737B: 8B CE              mov         ecx,esi
  1000737D: 8A 04 13           mov         al,byte ptr [ebx+edx]
  10007380: 88 02              mov         byte ptr [edx],al
  10007382: 42                 inc         edx
  10007383: 84 C0              test        al,al
  10007385: 74 0A              je          10007391
  10007387: 83 EF 01           sub         edi,1
  1000738A: 74 05              je          10007391
  1000738C: 83 E9 01           sub         ecx,1
  1000738F: 75 EC              jne         1000737D
  10007391: 85 C9              test        ecx,ecx
  10007393: 8B 4D 08           mov         ecx,dword ptr [ebp+8]
  10007396: 75 03              jne         1000739B
  10007398: C6 02 00           mov         byte ptr [edx],0
  1000739B: 85 FF              test        edi,edi
  1000739D: 5F                 pop         edi
  1000739E: 75 B2              jne         10007352
  100073A0: 83 FE FF           cmp         esi,0FFFFFFFFh
  100073A3: 75 0D              jne         100073B2
  100073A5: 8B 45 0C           mov         eax,dword ptr [ebp+0Ch]
  100073A8: 6A 50              push        50h
  100073AA: C6 44 01 FF 00     mov         byte ptr [ecx+eax-1],0
  100073AF: 58                 pop         eax
  100073B0: EB 8A              jmp         1000733C
  100073B2: C6 01 00           mov         byte ptr [ecx],0
  100073B5: E8 E9 CF FF FF     call        100043A3
  100073BA: 6A 22              push        22h
  100073BC: E9 71 FF FF FF     jmp         10007332
  100073C1: 8B FF              mov         edi,edi
  100073C3: 55                 push        ebp
  100073C4: 8B EC              mov         ebp,esp
  100073C6: 5D                 pop         ebp
  100073C7: E9 42 FF FF FF     jmp         1000730E
  100073CC: CC                 int         3
  100073CD: CC                 int         3
  100073CE: CC                 int         3
  100073CF: CC                 int         3
  100073D0: 55                 push        ebp
  100073D1: 8B EC              mov         ebp,esp
  100073D3: 56                 push        esi
  100073D4: 33 C0              xor         eax,eax
  100073D6: 50                 push        eax
  100073D7: 50                 push        eax
  100073D8: 50                 push        eax
  100073D9: 50                 push        eax
  100073DA: 50                 push        eax
  100073DB: 50                 push        eax
  100073DC: 50                 push        eax
  100073DD: 50                 push        eax
  100073DE: 8B 55 0C           mov         edx,dword ptr [ebp+0Ch]
  100073E1: 8D 49 00           lea         ecx,[ecx]
  100073E4: 8A 02              mov         al,byte ptr [edx]
  100073E6: 0A C0              or          al,al
  100073E8: 74 09              je          100073F3
  100073EA: 83 C2 01           add         edx,1
  100073ED: 0F AB 04 24        bts         dword ptr [esp],eax
  100073F1: EB F1              jmp         100073E4
  100073F3: 8B 75 08           mov         esi,dword ptr [ebp+8]
  100073F6: 8B FF              mov         edi,edi
  100073F8: 8A 06              mov         al,byte ptr [esi]
  100073FA: 0A C0              or          al,al
  100073FC: 74 0C              je          1000740A
  100073FE: 83 C6 01           add         esi,1
  10007401: 0F A3 04 24        bt          dword ptr [esp],eax
  10007405: 73 F1              jae         100073F8
  10007407: 8D 46 FF           lea         eax,[esi-1]
  1000740A: 83 C4 20           add         esp,20h
  1000740D: 5E                 pop         esi
  1000740E: C9                 leave
  1000740F: C3                 ret
  10007410: 8B FF              mov         edi,edi
  10007412: 55                 push        ebp
  10007413: 8B EC              mov         ebp,esp
  10007415: 6A 00              push        0
  10007417: FF 75 0C           push        dword ptr [ebp+0Ch]
  1000741A: FF 75 08           push        dword ptr [ebp+8]
  1000741D: E8 05 00 00 00     call        10007427
  10007422: 83 C4 0C           add         esp,0Ch
  10007425: 5D                 pop         ebp
  10007426: C3                 ret
  10007427: 8B FF              mov         edi,edi
  10007429: 55                 push        ebp
  1000742A: 8B EC              mov         ebp,esp
  1000742C: 83 EC 10           sub         esp,10h
  1000742F: 83 7D 08 00        cmp         dword ptr [ebp+8],0
  10007433: 75 14              jne         10007449
  10007435: E8 69 CF FF FF     call        100043A3
  1000743A: C7 00 16 00 00 00  mov         dword ptr [eax],16h
  10007440: E8 A1 CE FF FF     call        100042E6
  10007445: 33 C0              xor         eax,eax
  10007447: C9                 leave
  10007448: C3                 ret
  10007449: 56                 push        esi
  1000744A: 8B 75 0C           mov         esi,dword ptr [ebp+0Ch]
  1000744D: 85 F6              test        esi,esi
  1000744F: 75 12              jne         10007463
  10007451: E8 4D CF FF FF     call        100043A3
  10007456: C7 00 16 00 00 00  mov         dword ptr [eax],16h
  1000745C: E8 85 CE FF FF     call        100042E6
  10007461: EB 05              jmp         10007468
  10007463: 39 75 08           cmp         dword ptr [ebp+8],esi
  10007466: 72 04              jb          1000746C
  10007468: 33 C0              xor         eax,eax
  1000746A: EB 45              jmp         100074B1
  1000746C: FF 75 10           push        dword ptr [ebp+10h]
  1000746F: 8D 4D F0           lea         ecx,[ebp-10h]
  10007472: E8 CA C4 FF FF     call        10003941
  10007477: 8B 4D F8           mov         ecx,dword ptr [ebp-8]
  1000747A: 8D 56 FF           lea         edx,[esi-1]
  1000747D: 83 79 08 00        cmp         dword ptr [ecx+8],0
  10007481: 74 1C              je          1000749F
  10007483: 4A                 dec         edx
  10007484: 39 55 08           cmp         dword ptr [ebp+8],edx
  10007487: 77 0A              ja          10007493
  10007489: 0F B6 02           movzx       eax,byte ptr [edx]
  1000748C: F6 44 08 19 04     test        byte ptr [eax+ecx+19h],4
  10007491: 75 F0              jne         10007483
  10007493: 8B C6              mov         eax,esi
  10007495: 2B C2              sub         eax,edx
  10007497: 8B D6              mov         edx,esi
  10007499: 83 E0 01           and         eax,1
  1000749C: 2B D0              sub         edx,eax
  1000749E: 4A                 dec         edx
  1000749F: 80 7D FC 00        cmp         byte ptr [ebp-4],0
  100074A3: 74 0A              je          100074AF
  100074A5: 8B 4D F0           mov         ecx,dword ptr [ebp-10h]
  100074A8: 83 A1 50 03 00 00  and         dword ptr [ecx+00000350h],0FFFFFFFDh
            FD
  100074AF: 8B C2              mov         eax,edx
  100074B1: 5E                 pop         esi
  100074B2: C9                 leave
  100074B3: C3                 ret
  100074B4: 8B FF              mov         edi,edi
  100074B6: 55                 push        ebp
  100074B7: 8B EC              mov         ebp,esp
  100074B9: 83 EC 1C           sub         esp,1Ch
  100074BC: A1 10 10 01 10     mov         eax,dword ptr ds:[10011010h]
  100074C1: 33 C5              xor         eax,ebp
  100074C3: 89 45 FC           mov         dword ptr [ebp-4],eax
  100074C6: 53                 push        ebx
  100074C7: 56                 push        esi
  100074C8: 57                 push        edi
  100074C9: FF 75 08           push        dword ptr [ebp+8]
  100074CC: 8D 4D E4           lea         ecx,[ebp-1Ch]
  100074CF: E8 6D C4 FF FF     call        10003941
  100074D4: 8B 5D 1C           mov         ebx,dword ptr [ebp+1Ch]
  100074D7: 85 DB              test        ebx,ebx
  100074D9: 75 06              jne         100074E1
  100074DB: 8B 45 E8           mov         eax,dword ptr [ebp-18h]
  100074DE: 8B 58 08           mov         ebx,dword ptr [eax+8]
  100074E1: 33 C0              xor         eax,eax
  100074E3: 33 FF              xor         edi,edi
  100074E5: 39 45 20           cmp         dword ptr [ebp+20h],eax
  100074E8: 57                 push        edi
  100074E9: 57                 push        edi
  100074EA: FF 75 14           push        dword ptr [ebp+14h]
  100074ED: 0F 95 C0           setne       al
  100074F0: FF 75 10           push        dword ptr [ebp+10h]
  100074F3: 8D 04 C5 01 00 00  lea         eax,[eax*8+00000001h]
            00
  100074FA: 50                 push        eax
  100074FB: 53                 push        ebx
  100074FC: E8 90 E1 FF FF     call        10005691
  10007501: 83 C4 18           add         esp,18h
  10007504: 89 45 F4           mov         dword ptr [ebp-0Ch],eax
  10007507: 85 C0              test        eax,eax
  10007509: 0F 84 84 00 00 00  je          10007593
  1000750F: 8D 14 00           lea         edx,[eax+eax]
  10007512: 8D 4A 08           lea         ecx,[edx+8]
  10007515: 89 55 F8           mov         dword ptr [ebp-8],edx
  10007518: 3B D1              cmp         edx,ecx
  1000751A: 1B C0              sbb         eax,eax
  1000751C: 23 C1              and         eax,ecx
  1000751E: 74 35              je          10007555
  10007520: 3D 00 04 00 00     cmp         eax,400h
  10007525: 77 13              ja          1000753A
  10007527: E8 B4 39 00 00     call        1000AEE0
  1000752C: 8B F4              mov         esi,esp
  1000752E: 85 F6              test        esi,esi
  10007530: 74 1E              je          10007550
  10007532: C7 06 CC CC 00 00  mov         dword ptr [esi],0CCCCh
  10007538: EB 13              jmp         1000754D
  1000753A: 50                 push        eax
  1000753B: E8 4C F2 FF FF     call        1000678C
  10007540: 8B F0              mov         esi,eax
  10007542: 59                 pop         ecx
  10007543: 85 F6              test        esi,esi
  10007545: 74 09              je          10007550
  10007547: C7 06 DD DD 00 00  mov         dword ptr [esi],0DDDDh
  1000754D: 83 C6 08           add         esi,8
  10007550: 8B 55 F8           mov         edx,dword ptr [ebp-8]
  10007553: EB 02              jmp         10007557
  10007555: 8B F7              mov         esi,edi
  10007557: 85 F6              test        esi,esi
  10007559: 74 31              je          1000758C
  1000755B: 52                 push        edx
  1000755C: 57                 push        edi
  1000755D: 56                 push        esi
  1000755E: E8 CD A9 FF FF     call        10001F30
  10007563: FF 75 F4           push        dword ptr [ebp-0Ch]
  10007566: 56                 push        esi
  10007567: FF 75 14           push        dword ptr [ebp+14h]
  1000756A: FF 75 10           push        dword ptr [ebp+10h]
  1000756D: 6A 01              push        1
  1000756F: 53                 push        ebx
  10007570: E8 1C E1 FF FF     call        10005691
  10007575: 83 C4 24           add         esp,24h
  10007578: 85 C0              test        eax,eax
  1000757A: 74 10              je          1000758C
  1000757C: FF 75 18           push        dword ptr [ebp+18h]
  1000757F: 50                 push        eax
  10007580: 56                 push        esi
  10007581: FF 75 0C           push        dword ptr [ebp+0Ch]
  10007584: FF 15 D0 B0 00 10  call        dword ptr ds:[1000B0D0h]
  1000758A: 8B F8              mov         edi,eax
  1000758C: 56                 push        esi
  1000758D: E8 25 00 00 00     call        100075B7
  10007592: 59                 pop         ecx
  10007593: 80 7D F0 00        cmp         byte ptr [ebp-10h],0
  10007597: 74 0A              je          100075A3
  10007599: 8B 45 E4           mov         eax,dword ptr [ebp-1Ch]
  1000759C: 83 A0 50 03 00 00  and         dword ptr [eax+00000350h],0FFFFFFFDh
            FD
  100075A3: 8B C7              mov         eax,edi
  100075A5: 8D 65 D8           lea         esp,[ebp-28h]
  100075A8: 5F                 pop         edi
  100075A9: 5E                 pop         esi
  100075AA: 5B                 pop         ebx
  100075AB: 8B 4D FC           mov         ecx,dword ptr [ebp-4]
  100075AE: 33 CD              xor         ecx,ebp
  100075B0: E8 27 A5 FF FF     call        10001ADC
  100075B5: C9                 leave
  100075B6: C3                 ret
  100075B7: 8B FF              mov         edi,edi
  100075B9: 55                 push        ebp
  100075BA: 8B EC              mov         ebp,esp
  100075BC: 8B 45 08           mov         eax,dword ptr [ebp+8]
  100075BF: 85 C0              test        eax,eax
  100075C1: 74 12              je          100075D5
  100075C3: 83 E8 08           sub         eax,8
  100075C6: 81 38 DD DD 00 00  cmp         dword ptr [eax],0DDDDh
  100075CC: 75 07              jne         100075D5
  100075CE: 50                 push        eax
  100075CF: E8 3F CE FF FF     call        10004413
  100075D4: 59                 pop         ecx
  100075D5: 5D                 pop         ebp
  100075D6: C3                 ret
  100075D7: 8B FF              mov         edi,edi
  100075D9: 55                 push        ebp
  100075DA: 8B EC              mov         ebp,esp
  100075DC: 51                 push        ecx
  100075DD: 51                 push        ecx
  100075DE: A1 10 10 01 10     mov         eax,dword ptr ds:[10011010h]
  100075E3: 33 C5              xor         eax,ebp
  100075E5: 89 45 FC           mov         dword ptr [ebp-4],eax
  100075E8: 53                 push        ebx
  100075E9: 56                 push        esi
  100075EA: 8B 75 18           mov         esi,dword ptr [ebp+18h]
  100075ED: 57                 push        edi
  100075EE: 85 F6              test        esi,esi
  100075F0: 7E 14              jle         10007606
  100075F2: 56                 push        esi
  100075F3: FF 75 14           push        dword ptr [ebp+14h]
  100075F6: E8 AF 16 00 00     call        10008CAA
  100075FB: 59                 pop         ecx
  100075FC: 3B C6              cmp         eax,esi
  100075FE: 59                 pop         ecx
  100075FF: 8D 70 01           lea         esi,[eax+1]
  10007602: 7C 02              jl          10007606
  10007604: 8B F0              mov         esi,eax
  10007606: 8B 7D 24           mov         edi,dword ptr [ebp+24h]
  10007609: 85 FF              test        edi,edi
  1000760B: 75 0B              jne         10007618
  1000760D: 8B 45 08           mov         eax,dword ptr [ebp+8]
  10007610: 8B 00              mov         eax,dword ptr [eax]
  10007612: 8B 78 08           mov         edi,dword ptr [eax+8]
  10007615: 89 7D 24           mov         dword ptr [ebp+24h],edi
  10007618: 33 C0              xor         eax,eax
  1000761A: 39 45 28           cmp         dword ptr [ebp+28h],eax
  1000761D: 6A 00              push        0
  1000761F: 6A 00              push        0
  10007621: 0F 95 C0           setne       al
  10007624: 56                 push        esi
  10007625: FF 75 14           push        dword ptr [ebp+14h]
  10007628: 8D 04 C5 01 00 00  lea         eax,[eax*8+00000001h]
            00
  1000762F: 50                 push        eax
  10007630: 57                 push        edi
  10007631: E8 5B E0 FF FF     call        10005691
  10007636: 8B D0              mov         edx,eax
  10007638: 83 C4 18           add         esp,18h
  1000763B: 89 55 F8           mov         dword ptr [ebp-8],edx
  1000763E: 85 D2              test        edx,edx
  10007640: 0F 84 58 01 00 00  je          1000779E
  10007646: 8D 04 12           lea         eax,[edx+edx]
  10007649: 8D 48 08           lea         ecx,[eax+8]
  1000764C: 3B C1              cmp         eax,ecx
  1000764E: 1B C0              sbb         eax,eax
  10007650: 23 C1              and         eax,ecx
  10007652: 74 35              je          10007689
  10007654: 3D 00 04 00 00     cmp         eax,400h
  10007659: 77 13              ja          1000766E
  1000765B: E8 80 38 00 00     call        1000AEE0
  10007660: 8B DC              mov         ebx,esp
  10007662: 85 DB              test        ebx,ebx
  10007664: 74 1E              je          10007684
  10007666: C7 03 CC CC 00 00  mov         dword ptr [ebx],0CCCCh
  1000766C: EB 13              jmp         10007681
  1000766E: 50                 push        eax
  1000766F: E8 18 F1 FF FF     call        1000678C
  10007674: 8B D8              mov         ebx,eax
  10007676: 59                 pop         ecx
  10007677: 85 DB              test        ebx,ebx
  10007679: 74 09              je          10007684
  1000767B: C7 03 DD DD 00 00  mov         dword ptr [ebx],0DDDDh
  10007681: 83 C3 08           add         ebx,8
  10007684: 8B 55 F8           mov         edx,dword ptr [ebp-8]
  10007687: EB 02              jmp         1000768B
  10007689: 33 DB              xor         ebx,ebx
  1000768B: 85 DB              test        ebx,ebx
  1000768D: 0F 84 00 01 00 00  je          10007793
  10007693: 52                 push        edx
  10007694: 53                 push        ebx
  10007695: 56                 push        esi
  10007696: FF 75 14           push        dword ptr [ebp+14h]
  10007699: 6A 01              push        1
  1000769B: 57                 push        edi
  1000769C: E8 F0 DF FF FF     call        10005691
  100076A1: 83 C4 18           add         esp,18h
  100076A4: 85 C0              test        eax,eax
  100076A6: 0F 84 E7 00 00 00  je          10007793
  100076AC: 8B 7D F8           mov         edi,dword ptr [ebp-8]
  100076AF: 33 C0              xor         eax,eax
  100076B1: 50                 push        eax
  100076B2: 50                 push        eax
  100076B3: 50                 push        eax
  100076B4: 50                 push        eax
  100076B5: 50                 push        eax
  100076B6: 57                 push        edi
  100076B7: 53                 push        ebx
  100076B8: FF 75 10           push        dword ptr [ebp+10h]
  100076BB: FF 75 0C           push        dword ptr [ebp+0Ch]
  100076BE: E8 6A E5 FF FF     call        10005C2D
  100076C3: 8B F0              mov         esi,eax
  100076C5: 85 F6              test        esi,esi
  100076C7: 0F 84 C6 00 00 00  je          10007793
  100076CD: BA 00 04 00 00     mov         edx,400h
  100076D2: 85 55 10           test        dword ptr [ebp+10h],edx
  100076D5: 74 38              je          1000770F
  100076D7: 8B 45 20           mov         eax,dword ptr [ebp+20h]
  100076DA: 85 C0              test        eax,eax
  100076DC: 0F 84 B3 00 00 00  je          10007795
  100076E2: 3B F0              cmp         esi,eax
  100076E4: 0F 8F A9 00 00 00  jg          10007793
  100076EA: 33 C9              xor         ecx,ecx
  100076EC: 51                 push        ecx
  100076ED: 51                 push        ecx
  100076EE: 51                 push        ecx
  100076EF: 50                 push        eax
  100076F0: FF 75 1C           push        dword ptr [ebp+1Ch]
  100076F3: 57                 push        edi
  100076F4: 53                 push        ebx
  100076F5: FF 75 10           push        dword ptr [ebp+10h]
  100076F8: FF 75 0C           push        dword ptr [ebp+0Ch]
  100076FB: E8 2D E5 FF FF     call        10005C2D
  10007700: 8B F0              mov         esi,eax
  10007702: 85 F6              test        esi,esi
  10007704: 0F 85 8B 00 00 00  jne         10007795
  1000770A: E9 84 00 00 00     jmp         10007793
  1000770F: 8D 04 36           lea         eax,[esi+esi]
  10007712: 8D 48 08           lea         ecx,[eax+8]
  10007715: 3B C1              cmp         eax,ecx
  10007717: 1B C0              sbb         eax,eax
  10007719: 23 C1              and         eax,ecx
  1000771B: 74 2F              je          1000774C
  1000771D: 3B C2              cmp         eax,edx
  1000771F: 77 13              ja          10007734
  10007721: E8 BA 37 00 00     call        1000AEE0
  10007726: 8B FC              mov         edi,esp
  10007728: 85 FF              test        edi,edi
  1000772A: 74 60              je          1000778C
  1000772C: C7 07 CC CC 00 00  mov         dword ptr [edi],0CCCCh
  10007732: EB 13              jmp         10007747
  10007734: 50                 push        eax
  10007735: E8 52 F0 FF FF     call        1000678C
  1000773A: 8B F8              mov         edi,eax
  1000773C: 59                 pop         ecx
  1000773D: 85 FF              test        edi,edi
  1000773F: 74 4B              je          1000778C
  10007741: C7 07 DD DD 00 00  mov         dword ptr [edi],0DDDDh
  10007747: 83 C7 08           add         edi,8
  1000774A: EB 02              jmp         1000774E
  1000774C: 33 FF              xor         edi,edi
  1000774E: 85 FF              test        edi,edi
  10007750: 74 3A              je          1000778C
  10007752: 6A 00              push        0
  10007754: 6A 00              push        0
  10007756: 6A 00              push        0
  10007758: 56                 push        esi
  10007759: 57                 push        edi
  1000775A: FF 75 F8           push        dword ptr [ebp-8]
  1000775D: 53                 push        ebx
  1000775E: FF 75 10           push        dword ptr [ebp+10h]
  10007761: FF 75 0C           push        dword ptr [ebp+0Ch]
  10007764: E8 C4 E4 FF FF     call        10005C2D
  10007769: 85 C0              test        eax,eax
  1000776B: 74 1F              je          1000778C
  1000776D: 33 C0              xor         eax,eax
  1000776F: 50                 push        eax
  10007770: 50                 push        eax
  10007771: 39 45 20           cmp         dword ptr [ebp+20h],eax
  10007774: 75 3A              jne         100077B0
  10007776: 50                 push        eax
  10007777: 50                 push        eax
  10007778: 56                 push        esi
  10007779: 57                 push        edi
  1000777A: 50                 push        eax
  1000777B: FF 75 24           push        dword ptr [ebp+24h]
  1000777E: E8 8A DF FF FF     call        1000570D
  10007783: 8B F0              mov         esi,eax
  10007785: 83 C4 20           add         esp,20h
  10007788: 85 F6              test        esi,esi
  1000778A: 75 2C              jne         100077B8
  1000778C: 57                 push        edi
  1000778D: E8 25 FE FF FF     call        100075B7
  10007792: 59                 pop         ecx
  10007793: 33 F6              xor         esi,esi
  10007795: 53                 push        ebx
  10007796: E8 1C FE FF FF     call        100075B7
  1000779B: 59                 pop         ecx
  1000779C: 8B C6              mov         eax,esi
  1000779E: 8D 65 EC           lea         esp,[ebp-14h]
  100077A1: 5F                 pop         edi
  100077A2: 5E                 pop         esi
  100077A3: 5B                 pop         ebx
  100077A4: 8B 4D FC           mov         ecx,dword ptr [ebp-4]
  100077A7: 33 CD              xor         ecx,ebp
  100077A9: E8 2E A3 FF FF     call        10001ADC
  100077AE: C9                 leave
  100077AF: C3                 ret
  100077B0: FF 75 20           push        dword ptr [ebp+20h]
  100077B3: FF 75 1C           push        dword ptr [ebp+1Ch]
  100077B6: EB C0              jmp         10007778
  100077B8: 57                 push        edi
  100077B9: E8 F9 FD FF FF     call        100075B7
  100077BE: 59                 pop         ecx
  100077BF: EB D4              jmp         10007795
  100077C1: 8B FF              mov         edi,edi
  100077C3: 55                 push        ebp
  100077C4: 8B EC              mov         ebp,esp
  100077C6: 83 EC 10           sub         esp,10h
  100077C9: FF 75 08           push        dword ptr [ebp+8]
  100077CC: 8D 4D F0           lea         ecx,[ebp-10h]
  100077CF: E8 6D C1 FF FF     call        10003941
  100077D4: FF 75 28           push        dword ptr [ebp+28h]
  100077D7: 8D 45 F4           lea         eax,[ebp-0Ch]
  100077DA: FF 75 24           push        dword ptr [ebp+24h]
  100077DD: FF 75 20           push        dword ptr [ebp+20h]
  100077E0: FF 75 1C           push        dword ptr [ebp+1Ch]
  100077E3: FF 75 18           push        dword ptr [ebp+18h]
  100077E6: FF 75 14           push        dword ptr [ebp+14h]
  100077E9: FF 75 10           push        dword ptr [ebp+10h]
  100077EC: FF 75 0C           push        dword ptr [ebp+0Ch]
  100077EF: 50                 push        eax
  100077F0: E8 E2 FD FF FF     call        100075D7
  100077F5: 83 C4 24           add         esp,24h
  100077F8: 80 7D FC 00        cmp         byte ptr [ebp-4],0
  100077FC: 74 0A              je          10007808
  100077FE: 8B 4D F0           mov         ecx,dword ptr [ebp-10h]
  10007801: 83 A1 50 03 00 00  and         dword ptr [ecx+00000350h],0FFFFFFFDh
            FD
  10007808: C9                 leave
  10007809: C3                 ret
  1000780A: E8 2B DB FF FF     call        1000533A
  1000780F: 33 C9              xor         ecx,ecx
  10007811: 84 C0              test        al,al
  10007813: 0F 94 C1           sete        cl
  10007816: 8B C1              mov         eax,ecx
  10007818: C3                 ret
  10007819: 8B FF              mov         edi,edi
  1000781B: 55                 push        ebp
  1000781C: 8B EC              mov         ebp,esp
  1000781E: 83 7D 08 00        cmp         dword ptr [ebp+8],0
  10007822: 75 15              jne         10007839
  10007824: E8 7A CB FF FF     call        100043A3
  10007829: C7 00 16 00 00 00  mov         dword ptr [eax],16h
  1000782F: E8 B2 CA FF FF     call        100042E6
  10007834: 83 C8 FF           or          eax,0FFFFFFFFh
  10007837: 5D                 pop         ebp
  10007838: C3                 ret
  10007839: FF 75 08           push        dword ptr [ebp+8]
  1000783C: 6A 00              push        0
  1000783E: FF 35 20 20 01 10  push        dword ptr ds:[10012020h]
  10007844: FF 15 D4 B0 00 10  call        dword ptr ds:[1000B0D4h]
  1000784A: 5D                 pop         ebp
  1000784B: C3                 ret
  1000784C: 8B FF              mov         edi,edi
  1000784E: 55                 push        ebp
  1000784F: 8B EC              mov         ebp,esp
  10007851: 57                 push        edi
  10007852: 8B 7D 08           mov         edi,dword ptr [ebp+8]
  10007855: 85 FF              test        edi,edi
  10007857: 75 0B              jne         10007864
  10007859: FF 75 0C           push        dword ptr [ebp+0Ch]
  1000785C: E8 2B EF FF FF     call        1000678C
  10007861: 59                 pop         ecx
  10007862: EB 24              jmp         10007888
  10007864: 56                 push        esi
  10007865: 8B 75 0C           mov         esi,dword ptr [ebp+0Ch]
  10007868: 85 F6              test        esi,esi
  1000786A: 75 09              jne         10007875
  1000786C: 57                 push        edi
  1000786D: E8 A1 CB FF FF     call        10004413
  10007872: 59                 pop         ecx
  10007873: EB 10              jmp         10007885
  10007875: 83 FE E0           cmp         esi,0FFFFFFE0h
  10007878: 76 25              jbe         1000789F
  1000787A: E8 24 CB FF FF     call        100043A3
  1000787F: C7 00 0C 00 00 00  mov         dword ptr [eax],0Ch
  10007885: 33 C0              xor         eax,eax
  10007887: 5E                 pop         esi
  10007888: 5F                 pop         edi
  10007889: 5D                 pop         ebp
  1000788A: C3                 ret
  1000788B: E8 85 F5 FF FF     call        10006E15
  10007890: 85 C0              test        eax,eax
  10007892: 74 E6              je          1000787A
  10007894: 56                 push        esi
  10007895: E8 3B E7 FF FF     call        10005FD5
  1000789A: 59                 pop         ecx
  1000789B: 85 C0              test        eax,eax
  1000789D: 74 DB              je          1000787A
  1000789F: 56                 push        esi
  100078A0: 57                 push        edi
  100078A1: 6A 00              push        0
  100078A3: FF 35 20 20 01 10  push        dword ptr ds:[10012020h]
  100078A9: FF 15 D8 B0 00 10  call        dword ptr ds:[1000B0D8h]
  100078AF: 85 C0              test        eax,eax
  100078B1: 74 D8              je          1000788B
  100078B3: EB D2              jmp         10007887
  100078B5: 8B FF              mov         edi,edi
  100078B7: 55                 push        ebp
  100078B8: 8B EC              mov         ebp,esp
  100078BA: 53                 push        ebx
  100078BB: 56                 push        esi
  100078BC: 57                 push        edi
  100078BD: 33 FF              xor         edi,edi
  100078BF: BB E3 00 00 00     mov         ebx,0E3h
  100078C4: 8D 04 3B           lea         eax,[ebx+edi]
  100078C7: 99                 cdq
  100078C8: 2B C2              sub         eax,edx
  100078CA: 8B F0              mov         esi,eax
  100078CC: D1 FE              sar         esi,1
  100078CE: 6A 55              push        55h
  100078D0: FF 34 F5 20 E0 00  push        dword ptr [esi*8+1000E020h]
            10
  100078D7: FF 75 08           push        dword ptr [ebp+8]
  100078DA: E8 E7 13 00 00     call        10008CC6
  100078DF: 83 C4 0C           add         esp,0Ch
  100078E2: 85 C0              test        eax,eax
  100078E4: 74 13              je          100078F9
  100078E6: 79 05              jns         100078ED
  100078E8: 8D 5E FF           lea         ebx,[esi-1]
  100078EB: EB 03              jmp         100078F0
  100078ED: 8D 7E 01           lea         edi,[esi+1]
  100078F0: 3B FB              cmp         edi,ebx
  100078F2: 7E D0              jle         100078C4
  100078F4: 83 C8 FF           or          eax,0FFFFFFFFh
  100078F7: EB 07              jmp         10007900
  100078F9: 8B 04 F5 24 E0 00  mov         eax,dword ptr [esi*8+1000E024h]
            10
  10007900: 5F                 pop         edi
  10007901: 5E                 pop         esi
  10007902: 5B                 pop         ebx
  10007903: 5D                 pop         ebp
  10007904: C3                 ret
  10007905: 8B FF              mov         edi,edi
  10007907: 55                 push        ebp
  10007908: 8B EC              mov         ebp,esp
  1000790A: 83 7D 08 00        cmp         dword ptr [ebp+8],0
  1000790E: 74 1D              je          1000792D
  10007910: FF 75 08           push        dword ptr [ebp+8]
  10007913: E8 9D FF FF FF     call        100078B5
  10007918: 59                 pop         ecx
  10007919: 85 C0              test        eax,eax
  1000791B: 78 10              js          1000792D
  1000791D: 3D E4 00 00 00     cmp         eax,0E4h
  10007922: 73 09              jae         1000792D
  10007924: 8B 04 C5 F8 CE 00  mov         eax,dword ptr [eax*8+1000CEF8h]
            10
  1000792B: 5D                 pop         ebp
  1000792C: C3                 ret
  1000792D: 33 C0              xor         eax,eax
  1000792F: 5D                 pop         ebp
  10007930: C3                 ret
  10007931: 8B FF              mov         edi,edi
  10007933: 55                 push        ebp
  10007934: 8B EC              mov         ebp,esp
  10007936: 51                 push        ecx
  10007937: 51                 push        ecx
  10007938: 53                 push        ebx
  10007939: 56                 push        esi
  1000793A: 6A 38              push        38h
  1000793C: 6A 40              push        40h
  1000793E: E8 73 CA FF FF     call        100043B6
  10007943: 8B F0              mov         esi,eax
  10007945: 33 DB              xor         ebx,ebx
  10007947: 89 75 F8           mov         dword ptr [ebp-8],esi
  1000794A: 59                 pop         ecx
  1000794B: 59                 pop         ecx
  1000794C: 85 F6              test        esi,esi
  1000794E: 75 04              jne         10007954
  10007950: 8B F3              mov         esi,ebx
  10007952: EB 4B              jmp         1000799F
  10007954: 8D 86 00 0E 00 00  lea         eax,[esi+00000E00h]
  1000795A: 3B F0              cmp         esi,eax
  1000795C: 74 41              je          1000799F
  1000795E: 57                 push        edi
  1000795F: 8D 7E 20           lea         edi,[esi+20h]
  10007962: 8B F0              mov         esi,eax
  10007964: 53                 push        ebx
  10007965: 68 A0 0F 00 00     push        0FA0h
  1000796A: 8D 47 E0           lea         eax,[edi-20h]
  1000796D: 50                 push        eax
  1000796E: E8 6F E2 FF FF     call        10005BE2
  10007973: 83 4F F8 FF        or          dword ptr [edi-8],0FFFFFFFFh
  10007977: 80 67 0D F8        and         byte ptr [edi+0Dh],0F8h
  1000797B: 89 1F              mov         dword ptr [edi],ebx
  1000797D: 8D 7F 38           lea         edi,[edi+38h]
  10007980: 89 5F CC           mov         dword ptr [edi-34h],ebx
  10007983: 8D 47 E0           lea         eax,[edi-20h]
  10007986: C7 47 D0 00 00 0A  mov         dword ptr [edi-30h],0A0A0000h
            0A
  1000798D: C6 47 D4 0A        mov         byte ptr [edi-2Ch],0Ah
  10007991: 89 5F D6           mov         dword ptr [edi-2Ah],ebx
  10007994: 88 5F DA           mov         byte ptr [edi-26h],bl
  10007997: 3B C6              cmp         eax,esi
  10007999: 75 C9              jne         10007964
  1000799B: 8B 75 F8           mov         esi,dword ptr [ebp-8]
  1000799E: 5F                 pop         edi
  1000799F: 53                 push        ebx
  100079A0: E8 6E CA FF FF     call        10004413
  100079A5: 59                 pop         ecx
  100079A6: 8B C6              mov         eax,esi
  100079A8: 5E                 pop         esi
  100079A9: 5B                 pop         ebx
  100079AA: C9                 leave
  100079AB: C3                 ret
  100079AC: 8B FF              mov         edi,edi
  100079AE: 55                 push        ebp
  100079AF: 8B EC              mov         ebp,esp
  100079B1: 56                 push        esi
  100079B2: 8B 75 08           mov         esi,dword ptr [ebp+8]
  100079B5: 85 F6              test        esi,esi
  100079B7: 74 25              je          100079DE
  100079B9: 53                 push        ebx
  100079BA: 8D 9E 00 0E 00 00  lea         ebx,[esi+00000E00h]
  100079C0: 57                 push        edi
  100079C1: 8B FE              mov         edi,esi
  100079C3: 3B F3              cmp         esi,ebx
  100079C5: 74 0E              je          100079D5
  100079C7: 57                 push        edi
  100079C8: FF 15 50 B0 00 10  call        dword ptr ds:[1000B050h]
  100079CE: 83 C7 38           add         edi,38h
  100079D1: 3B FB              cmp         edi,ebx
  100079D3: 75 F2              jne         100079C7
  100079D5: 56                 push        esi
  100079D6: E8 38 CA FF FF     call        10004413
  100079DB: 59                 pop         ecx
  100079DC: 5F                 pop         edi
  100079DD: 5B                 pop         ebx
  100079DE: 5E                 pop         esi
  100079DF: 5D                 pop         ebp
  100079E0: C3                 ret
  100079E1: 6A 10              push        10h
  100079E3: 68 E0 02 01 10     push        100102E0h
  100079E8: E8 C3 9E FF FF     call        100018B0
  100079ED: 81 7D 08 00 20 00  cmp         dword ptr [ebp+8],2000h
            00
  100079F4: 72 21              jb          10007A17
  100079F6: E8 A8 C9 FF FF     call        100043A3
  100079FB: 6A 09              push        9
  100079FD: 5E                 pop         esi
  100079FE: 89 30              mov         dword ptr [eax],esi
  10007A00: E8 E1 C8 FF FF     call        100042E6
  10007A05: 8B C6              mov         eax,esi
  10007A07: 8B 4D F0           mov         ecx,dword ptr [ebp-10h]
  10007A0A: 64 89 0D 00 00 00  mov         dword ptr fs:[00000000h],ecx
            00
  10007A11: 59                 pop         ecx
  10007A12: 5F                 pop         edi
  10007A13: 5E                 pop         esi
  10007A14: 5B                 pop         ebx
  10007A15: C9                 leave
  10007A16: C3                 ret
  10007A17: 33 F6              xor         esi,esi
  10007A19: 89 75 E4           mov         dword ptr [ebp-1Ch],esi
  10007A1C: 6A 07              push        7
  10007A1E: E8 87 C6 FF FF     call        100040AA
  10007A23: 59                 pop         ecx
  10007A24: 89 75 FC           mov         dword ptr [ebp-4],esi
  10007A27: 8B FE              mov         edi,esi
  10007A29: A1 28 22 01 10     mov         eax,dword ptr ds:[10012228h]
  10007A2E: 89 7D E0           mov         dword ptr [ebp-20h],edi
  10007A31: 39 45 08           cmp         dword ptr [ebp+8],eax
  10007A34: 7C 1F              jl          10007A55
  10007A36: 39 34 BD 28 20 01  cmp         dword ptr [edi*4+10012028h],esi
            10
  10007A3D: 75 31              jne         10007A70
  10007A3F: E8 ED FE FF FF     call        10007931
  10007A44: 89 04 BD 28 20 01  mov         dword ptr [edi*4+10012028h],eax
            10
  10007A4B: 85 C0              test        eax,eax
  10007A4D: 75 14              jne         10007A63
  10007A4F: 6A 0C              push        0Ch
  10007A51: 5E                 pop         esi
  10007A52: 89 75 E4           mov         dword ptr [ebp-1Ch],esi
  10007A55: C7 45 FC FE FF FF  mov         dword ptr [ebp-4],0FFFFFFFEh
            FF
  10007A5C: E8 15 00 00 00     call        10007A76
  10007A61: EB A2              jmp         10007A05
  10007A63: A1 28 22 01 10     mov         eax,dword ptr ds:[10012228h]
  10007A68: 83 C0 40           add         eax,40h
  10007A6B: A3 28 22 01 10     mov         dword ptr ds:[10012228h],eax
  10007A70: 47                 inc         edi
  10007A71: EB BB              jmp         10007A2E
  10007A73: 8B 75 E4           mov         esi,dword ptr [ebp-1Ch]
  10007A76: 6A 07              push        7
  10007A78: E8 75 C6 FF FF     call        100040F2
  10007A7D: 59                 pop         ecx
  10007A7E: C3                 ret
  10007A7F: 8B FF              mov         edi,edi
  10007A81: 55                 push        ebp
  10007A82: 8B EC              mov         ebp,esp
  10007A84: 8B 45 08           mov         eax,dword ptr [ebp+8]
  10007A87: 8B C8              mov         ecx,eax
  10007A89: 83 E0 3F           and         eax,3Fh
  10007A8C: C1 F9 06           sar         ecx,6
  10007A8F: 6B C0 38           imul        eax,eax,38h
  10007A92: 03 04 8D 28 20 01  add         eax,dword ptr [ecx*4+10012028h]
            10
  10007A99: 50                 push        eax
  10007A9A: FF 15 48 B0 00 10  call        dword ptr ds:[1000B048h]
  10007AA0: 5D                 pop         ebp
  10007AA1: C3                 ret
  10007AA2: 8B FF              mov         edi,edi
  10007AA4: 55                 push        ebp
  10007AA5: 8B EC              mov         ebp,esp
  10007AA7: 8B 45 08           mov         eax,dword ptr [ebp+8]
  10007AAA: 8B C8              mov         ecx,eax
  10007AAC: 83 E0 3F           and         eax,3Fh
  10007AAF: C1 F9 06           sar         ecx,6
  10007AB2: 6B C0 38           imul        eax,eax,38h
  10007AB5: 03 04 8D 28 20 01  add         eax,dword ptr [ecx*4+10012028h]
            10
  10007ABC: 50                 push        eax
  10007ABD: FF 15 4C B0 00 10  call        dword ptr ds:[1000B04Ch]
  10007AC3: 5D                 pop         ebp
  10007AC4: C3                 ret
  10007AC5: 8B FF              mov         edi,edi
  10007AC7: 55                 push        ebp
  10007AC8: 8B EC              mov         ebp,esp
  10007ACA: 53                 push        ebx
  10007ACB: 56                 push        esi
  10007ACC: 8B 75 08           mov         esi,dword ptr [ebp+8]
  10007ACF: 57                 push        edi
  10007AD0: 85 F6              test        esi,esi
  10007AD2: 78 67              js          10007B3B
  10007AD4: 3B 35 28 22 01 10  cmp         esi,dword ptr ds:[10012228h]
  10007ADA: 73 5F              jae         10007B3B
  10007ADC: 8B C6              mov         eax,esi
  10007ADE: 8B FE              mov         edi,esi
  10007AE0: 83 E0 3F           and         eax,3Fh
  10007AE3: C1 FF 06           sar         edi,6
  10007AE6: 6B D8 38           imul        ebx,eax,38h
  10007AE9: 8B 04 BD 28 20 01  mov         eax,dword ptr [edi*4+10012028h]
            10
  10007AF0: F6 44 03 28 01     test        byte ptr [ebx+eax+28h],1
  10007AF5: 74 44              je          10007B3B
  10007AF7: 83 7C 03 18 FF     cmp         dword ptr [ebx+eax+18h],0FFFFFFFFh
  10007AFC: 74 3D              je          10007B3B
  10007AFE: E8 12 12 00 00     call        10008D15
  10007B03: 83 F8 01           cmp         eax,1
  10007B06: 75 23              jne         10007B2B
  10007B08: 33 C0              xor         eax,eax
  10007B0A: 2B F0              sub         esi,eax
  10007B0C: 74 14              je          10007B22
  10007B0E: 83 EE 01           sub         esi,1
  10007B11: 74 0A              je          10007B1D
  10007B13: 83 EE 01           sub         esi,1
  10007B16: 75 13              jne         10007B2B
  10007B18: 50                 push        eax
  10007B19: 6A F4              push        0FFFFFFF4h
  10007B1B: EB 08              jmp         10007B25
  10007B1D: 50                 push        eax
  10007B1E: 6A F5              push        0FFFFFFF5h
  10007B20: EB 03              jmp         10007B25
  10007B22: 50                 push        eax
  10007B23: 6A F6              push        0FFFFFFF6h
  10007B25: FF 15 DC B0 00 10  call        dword ptr ds:[1000B0DCh]
  10007B2B: 8B 04 BD 28 20 01  mov         eax,dword ptr [edi*4+10012028h]
            10
  10007B32: 83 4C 03 18 FF     or          dword ptr [ebx+eax+18h],0FFFFFFFFh
  10007B37: 33 C0              xor         eax,eax
  10007B39: EB 16              jmp         10007B51
  10007B3B: E8 63 C8 FF FF     call        100043A3
  10007B40: C7 00 09 00 00 00  mov         dword ptr [eax],9
  10007B46: E8 45 C8 FF FF     call        10004390
  10007B4B: 83 20 00           and         dword ptr [eax],0
  10007B4E: 83 C8 FF           or          eax,0FFFFFFFFh
  10007B51: 5F                 pop         edi
  10007B52: 5E                 pop         esi
  10007B53: 5B                 pop         ebx
  10007B54: 5D                 pop         ebp
  10007B55: C3                 ret
  10007B56: 8B FF              mov         edi,edi
  10007B58: 55                 push        ebp
  10007B59: 8B EC              mov         ebp,esp
  10007B5B: 8B 4D 08           mov         ecx,dword ptr [ebp+8]
  10007B5E: 83 F9 FE           cmp         ecx,0FFFFFFFEh
  10007B61: 75 15              jne         10007B78
  10007B63: E8 28 C8 FF FF     call        10004390
  10007B68: 83 20 00           and         dword ptr [eax],0
  10007B6B: E8 33 C8 FF FF     call        100043A3
  10007B70: C7 00 09 00 00 00  mov         dword ptr [eax],9
  10007B76: EB 43              jmp         10007BBB
  10007B78: 85 C9              test        ecx,ecx
  10007B7A: 78 27              js          10007BA3
  10007B7C: 3B 0D 28 22 01 10  cmp         ecx,dword ptr ds:[10012228h]
  10007B82: 73 1F              jae         10007BA3
  10007B84: 8B C1              mov         eax,ecx
  10007B86: 83 E1 3F           and         ecx,3Fh
  10007B89: C1 F8 06           sar         eax,6
  10007B8C: 6B C9 38           imul        ecx,ecx,38h
  10007B8F: 8B 04 85 28 20 01  mov         eax,dword ptr [eax*4+10012028h]
            10
  10007B96: F6 44 08 28 01     test        byte ptr [eax+ecx+28h],1
  10007B9B: 74 06              je          10007BA3
  10007B9D: 8B 44 08 18        mov         eax,dword ptr [eax+ecx+18h]
  10007BA1: 5D                 pop         ebp
  10007BA2: C3                 ret
  10007BA3: E8 E8 C7 FF FF     call        10004390
  10007BA8: 83 20 00           and         dword ptr [eax],0
  10007BAB: E8 F3 C7 FF FF     call        100043A3
  10007BB0: C7 00 09 00 00 00  mov         dword ptr [eax],9
  10007BB6: E8 2B C7 FF FF     call        100042E6
  10007BBB: 83 C8 FF           or          eax,0FFFFFFFFh
  10007BBE: 5D                 pop         ebp
  10007BBF: C3                 ret
  10007BC0: 6A 0C              push        0Ch
  10007BC2: 68 00 03 01 10     push        10010300h
  10007BC7: E8 E4 9C FF FF     call        100018B0
  10007BCC: 33 F6              xor         esi,esi
  10007BCE: 89 75 E4           mov         dword ptr [ebp-1Ch],esi
  10007BD1: 8B 45 08           mov         eax,dword ptr [ebp+8]
  10007BD4: FF 30              push        dword ptr [eax]
  10007BD6: E8 A4 FE FF FF     call        10007A7F
  10007BDB: 59                 pop         ecx
  10007BDC: 89 75 FC           mov         dword ptr [ebp-4],esi
  10007BDF: 8B 45 0C           mov         eax,dword ptr [ebp+0Ch]
  10007BE2: 8B 00              mov         eax,dword ptr [eax]
  10007BE4: 8B 38              mov         edi,dword ptr [eax]
  10007BE6: 8B D7              mov         edx,edi
  10007BE8: C1 FA 06           sar         edx,6
  10007BEB: 8B C7              mov         eax,edi
  10007BED: 83 E0 3F           and         eax,3Fh
  10007BF0: 6B C8 38           imul        ecx,eax,38h
  10007BF3: 8B 04 95 28 20 01  mov         eax,dword ptr [edx*4+10012028h]
            10
  10007BFA: F6 44 08 28 01     test        byte ptr [eax+ecx+28h],1
  10007BFF: 74 21              je          10007C22
  10007C01: 57                 push        edi
  10007C02: E8 4F FF FF FF     call        10007B56
  10007C07: 59                 pop         ecx
  10007C08: 50                 push        eax
  10007C09: FF 15 E0 B0 00 10  call        dword ptr ds:[1000B0E0h]
  10007C0F: 85 C0              test        eax,eax
  10007C11: 75 1D              jne         10007C30
  10007C13: E8 78 C7 FF FF     call        10004390
  10007C18: 8B F0              mov         esi,eax
  10007C1A: FF 15 40 B0 00 10  call        dword ptr ds:[1000B040h]
  10007C20: 89 06              mov         dword ptr [esi],eax
  10007C22: E8 7C C7 FF FF     call        100043A3
  10007C27: C7 00 09 00 00 00  mov         dword ptr [eax],9
  10007C2D: 83 CE FF           or          esi,0FFFFFFFFh
  10007C30: 89 75 E4           mov         dword ptr [ebp-1Ch],esi
  10007C33: C7 45 FC FE FF FF  mov         dword ptr [ebp-4],0FFFFFFFEh
            FF
  10007C3A: E8 17 00 00 00     call        10007C56
  10007C3F: 8B C6              mov         eax,esi
  10007C41: 8B 4D F0           mov         ecx,dword ptr [ebp-10h]
  10007C44: 64 89 0D 00 00 00  mov         dword ptr fs:[00000000h],ecx
            00
  10007C4B: 59                 pop         ecx
  10007C4C: 5F                 pop         edi
  10007C4D: 5E                 pop         esi
  10007C4E: 5B                 pop         ebx
  10007C4F: C9                 leave
  10007C50: C2 0C 00           ret         0Ch
  10007C53: 8B 75 E4           mov         esi,dword ptr [ebp-1Ch]
  10007C56: 8B 4D 10           mov         ecx,dword ptr [ebp+10h]
  10007C59: FF 31              push        dword ptr [ecx]
  10007C5B: E8 42 FE FF FF     call        10007AA2
  10007C60: 59                 pop         ecx
  10007C61: C3                 ret
  10007C62: 8B FF              mov         edi,edi
  10007C64: 55                 push        ebp
  10007C65: 8B EC              mov         ebp,esp
  10007C67: 83 EC 10           sub         esp,10h
  10007C6A: 56                 push        esi
  10007C6B: 8B 75 08           mov         esi,dword ptr [ebp+8]
  10007C6E: 83 FE FE           cmp         esi,0FFFFFFFEh
  10007C71: 75 0D              jne         10007C80
  10007C73: E8 2B C7 FF FF     call        100043A3
  10007C78: C7 00 09 00 00 00  mov         dword ptr [eax],9
  10007C7E: EB 59              jmp         10007CD9
  10007C80: 85 F6              test        esi,esi
  10007C82: 78 45              js          10007CC9
  10007C84: 3B 35 28 22 01 10  cmp         esi,dword ptr ds:[10012228h]
  10007C8A: 73 3D              jae         10007CC9
  10007C8C: 8B C6              mov         eax,esi
  10007C8E: 8B D6              mov         edx,esi
  10007C90: 83 E0 3F           and         eax,3Fh
  10007C93: C1 FA 06           sar         edx,6
  10007C96: 6B C8 38           imul        ecx,eax,38h
  10007C99: 8B 04 95 28 20 01  mov         eax,dword ptr [edx*4+10012028h]
            10
  10007CA0: F6 44 08 28 01     test        byte ptr [eax+ecx+28h],1
  10007CA5: 74 22              je          10007CC9
  10007CA7: 8D 45 08           lea         eax,[ebp+8]
  10007CAA: 89 75 F8           mov         dword ptr [ebp-8],esi
  10007CAD: 89 45 F4           mov         dword ptr [ebp-0Ch],eax
  10007CB0: 8D 4D FF           lea         ecx,[ebp-1]
  10007CB3: 8D 45 F8           lea         eax,[ebp-8]
  10007CB6: 89 75 F0           mov         dword ptr [ebp-10h],esi
  10007CB9: 50                 push        eax
  10007CBA: 8D 45 F4           lea         eax,[ebp-0Ch]
  10007CBD: 50                 push        eax
  10007CBE: 8D 45 F0           lea         eax,[ebp-10h]
  10007CC1: 50                 push        eax
  10007CC2: E8 F9 FE FF FF     call        10007BC0
  10007CC7: EB 13              jmp         10007CDC
  10007CC9: E8 D5 C6 FF FF     call        100043A3
  10007CCE: C7 00 09 00 00 00  mov         dword ptr [eax],9
  10007CD4: E8 0D C6 FF FF     call        100042E6
  10007CD9: 83 C8 FF           or          eax,0FFFFFFFFh
  10007CDC: 5E                 pop         esi
  10007CDD: C9                 leave
  10007CDE: C3                 ret
  10007CDF: 8B FF              mov         edi,edi
  10007CE1: 55                 push        ebp
  10007CE2: 8B EC              mov         ebp,esp
  10007CE4: 81 EC 8C 00 00 00  sub         esp,8Ch
  10007CEA: A1 10 10 01 10     mov         eax,dword ptr ds:[10011010h]
  10007CEF: 33 C5              xor         eax,ebp
  10007CF1: 89 45 FC           mov         dword ptr [ebp-4],eax
  10007CF4: 8B 45 0C           mov         eax,dword ptr [ebp+0Ch]
  10007CF7: 8B D0              mov         edx,eax
  10007CF9: 83 E0 3F           and         eax,3Fh
  10007CFC: C1 FA 06           sar         edx,6
  10007CFF: 6B C8 38           imul        ecx,eax,38h
  10007D02: 53                 push        ebx
  10007D03: 56                 push        esi
  10007D04: 8B 04 95 28 20 01  mov         eax,dword ptr [edx*4+10012028h]
            10
  10007D0B: 57                 push        edi
  10007D0C: 8B 7D 10           mov         edi,dword ptr [ebp+10h]
  10007D0F: 89 7D 98           mov         dword ptr [ebp-68h],edi
  10007D12: 89 55 B4           mov         dword ptr [ebp-4Ch],edx
  10007D15: 8B 44 01 18        mov         eax,dword ptr [ecx+eax+18h]
  10007D19: 89 45 94           mov         dword ptr [ebp-6Ch],eax
  10007D1C: 8B 45 14           mov         eax,dword ptr [ebp+14h]
  10007D1F: 03 C7              add         eax,edi
  10007D21: 89 4D D8           mov         dword ptr [ebp-28h],ecx
  10007D24: 89 45 A4           mov         dword ptr [ebp-5Ch],eax
  10007D27: FF 15 E8 B0 00 10  call        dword ptr ds:[1000B0E8h]
  10007D2D: 33 DB              xor         ebx,ebx
  10007D2F: 89 45 88           mov         dword ptr [ebp-78h],eax
  10007D32: 53                 push        ebx
  10007D33: 8D 4D BC           lea         ecx,[ebp-44h]
  10007D36: E8 06 BC FF FF     call        10003941
  10007D3B: 8B 4D C0           mov         ecx,dword ptr [ebp-40h]
  10007D3E: 8B C7              mov         eax,edi
  10007D40: 8B F3              mov         esi,ebx
  10007D42: 89 5D A8           mov         dword ptr [ebp-58h],ebx
  10007D45: 89 75 AC           mov         dword ptr [ebp-54h],esi
  10007D48: 89 5D B0           mov         dword ptr [ebp-50h],ebx
  10007D4B: 8B 49 08           mov         ecx,dword ptr [ecx+8]
  10007D4E: 89 4D 84           mov         dword ptr [ebp-7Ch],ecx
  10007D51: 89 7D 9C           mov         dword ptr [ebp-64h],edi
  10007D54: 3B 45 A4           cmp         eax,dword ptr [ebp-5Ch]
  10007D57: 0F 83 05 03 00 00  jae         10008062
  10007D5D: 8A 07              mov         al,byte ptr [edi]
  10007D5F: 81 F9 E9 FD 00 00  cmp         ecx,0FDE9h
  10007D65: 8B 4D D8           mov         ecx,dword ptr [ebp-28h]
  10007D68: 88 45 D1           mov         byte ptr [ebp-2Fh],al
  10007D6B: 8B 45 B4           mov         eax,dword ptr [ebp-4Ch]
  10007D6E: 89 5D B8           mov         dword ptr [ebp-48h],ebx
  10007D71: C7 45 DC 01 00 00  mov         dword ptr [ebp-24h],1
            00
  10007D78: 8B 04 85 28 20 01  mov         eax,dword ptr [eax*4+10012028h]
            10
  10007D7F: 89 45 D4           mov         dword ptr [ebp-2Ch],eax
  10007D82: 0F 85 33 01 00 00  jne         10007EBB
  10007D88: 8B 55 D4           mov         edx,dword ptr [ebp-2Ch]
  10007D8B: 8B C3              mov         eax,ebx
  10007D8D: 83 C2 2E           add         edx,2Eh
  10007D90: 03 D1              add         edx,ecx
  10007D92: 89 55 90           mov         dword ptr [ebp-70h],edx
  10007D95: 38 1C 02           cmp         byte ptr [edx+eax],bl
  10007D98: 74 06              je          10007DA0
  10007D9A: 40                 inc         eax
  10007D9B: 83 F8 05           cmp         eax,5
  10007D9E: 7C F5              jl          10007D95
  10007DA0: 8B 55 A4           mov         edx,dword ptr [ebp-5Ch]
  10007DA3: 2B D7              sub         edx,edi
  10007DA5: 89 45 DC           mov         dword ptr [ebp-24h],eax
  10007DA8: 85 C0              test        eax,eax
  10007DAA: 0F 8E B1 00 00 00  jle         10007E61
  10007DB0: 8B 45 D4           mov         eax,dword ptr [ebp-2Ch]
  10007DB3: 0F B6 44 01 2E     movzx       eax,byte ptr [ecx+eax+2Eh]
  10007DB8: 0F BE 80 50 17 01  movsx       eax,byte ptr [eax+10011750h]
            10
  10007DBF: 40                 inc         eax
  10007DC0: 89 45 CC           mov         dword ptr [ebp-34h],eax
  10007DC3: 2B 45 DC           sub         eax,dword ptr [ebp-24h]
  10007DC6: 89 45 D4           mov         dword ptr [ebp-2Ch],eax
  10007DC9: 3B C2              cmp         eax,edx
  10007DCB: 0F 8F 10 02 00 00  jg          10007FE1
  10007DD1: 8B 55 DC           mov         edx,dword ptr [ebp-24h]
  10007DD4: 8B F3              mov         esi,ebx
  10007DD6: 8B 4D 90           mov         ecx,dword ptr [ebp-70h]
  10007DD9: 8A 04 31           mov         al,byte ptr [ecx+esi]
  10007DDC: 88 44 35 F4        mov         byte ptr [ebp+esi-0Ch],al
  10007DE0: 46                 inc         esi
  10007DE1: 3B F2              cmp         esi,edx
  10007DE3: 7C F4              jl          10007DD9
  10007DE5: 8B 75 D4           mov         esi,dword ptr [ebp-2Ch]
  10007DE8: 8B 4D D8           mov         ecx,dword ptr [ebp-28h]
  10007DEB: 85 F6              test        esi,esi
  10007DED: 7E 16              jle         10007E05
  10007DEF: 56                 push        esi
  10007DF0: 8D 45 F4           lea         eax,[ebp-0Ch]
  10007DF3: 03 C2              add         eax,edx
  10007DF5: 57                 push        edi
  10007DF6: 50                 push        eax
  10007DF7: E8 14 A6 FF FF     call        10002410
  10007DFC: 8B 4D D8           mov         ecx,dword ptr [ebp-28h]
  10007DFF: 83 C4 0C           add         esp,0Ch
  10007E02: 8B 55 DC           mov         edx,dword ptr [ebp-24h]
  10007E05: 8B 7D B4           mov         edi,dword ptr [ebp-4Ch]
  10007E08: 8B F3              mov         esi,ebx
  10007E0A: 8B 04 BD 28 20 01  mov         eax,dword ptr [edi*4+10012028h]
            10
  10007E11: 03 C1              add         eax,ecx
  10007E13: 88 5C 30 2E        mov         byte ptr [eax+esi+2Eh],bl
  10007E17: 46                 inc         esi
  10007E18: 3B F2              cmp         esi,edx
  10007E1A: 7C EE              jl          10007E0A
  10007E1C: 8B 7D 9C           mov         edi,dword ptr [ebp-64h]
  10007E1F: 8D 45 F4           lea         eax,[ebp-0Ch]
  10007E22: 8B 75 D4           mov         esi,dword ptr [ebp-2Ch]
  10007E25: 8D 8D 7C FF FF FF  lea         ecx,[ebp+FFFFFF7Ch]
  10007E2B: 89 45 8C           mov         dword ptr [ebp-74h],eax
  10007E2E: 33 C0              xor         eax,eax
  10007E30: 83 7D CC 04        cmp         dword ptr [ebp-34h],4
  10007E34: 51                 push        ecx
  10007E35: 0F 94 C0           sete        al
  10007E38: 89 9D 7C FF FF FF  mov         dword ptr [ebp+FFFFFF7Ch],ebx
  10007E3E: 40                 inc         eax
  10007E3F: 89 5D 80           mov         dword ptr [ebp-80h],ebx
  10007E42: 50                 push        eax
  10007E43: 89 45 DC           mov         dword ptr [ebp-24h],eax
  10007E46: 8D 45 8C           lea         eax,[ebp-74h]
  10007E49: 50                 push        eax
  10007E4A: 8D 45 B8           lea         eax,[ebp-48h]
  10007E4D: 50                 push        eax
  10007E4E: E8 BA 0A 00 00     call        1000890D
  10007E53: 83 C4 10           add         esp,10h
  10007E56: 83 F8 FF           cmp         eax,0FFFFFFFFh
  10007E59: 0F 84 03 02 00 00  je          10008062
  10007E5F: EB 55              jmp         10007EB6
  10007E61: 0F B6 07           movzx       eax,byte ptr [edi]
  10007E64: 0F BE 88 50 17 01  movsx       ecx,byte ptr [eax+10011750h]
            10
  10007E6B: 41                 inc         ecx
  10007E6C: 89 4D D4           mov         dword ptr [ebp-2Ch],ecx
  10007E6F: 3B CA              cmp         ecx,edx
  10007E71: 0F 8F 9E 01 00 00  jg          10008015
  10007E77: 33 C0              xor         eax,eax
  10007E79: 89 9D 74 FF FF FF  mov         dword ptr [ebp+FFFFFF74h],ebx
  10007E7F: 83 F9 04           cmp         ecx,4
  10007E82: 89 9D 78 FF FF FF  mov         dword ptr [ebp+FFFFFF78h],ebx
  10007E88: 8D 8D 74 FF FF FF  lea         ecx,[ebp+FFFFFF74h]
  10007E8E: 89 7D CC           mov         dword ptr [ebp-34h],edi
  10007E91: 0F 94 C0           sete        al
  10007E94: 40                 inc         eax
  10007E95: 51                 push        ecx
  10007E96: 50                 push        eax
  10007E97: 89 45 DC           mov         dword ptr [ebp-24h],eax
  10007E9A: 8D 45 CC           lea         eax,[ebp-34h]
  10007E9D: 50                 push        eax
  10007E9E: 8D 45 B8           lea         eax,[ebp-48h]
  10007EA1: 50                 push        eax
  10007EA2: E8 66 0A 00 00     call        1000890D
  10007EA7: 83 C4 10           add         esp,10h
  10007EAA: 83 F8 FF           cmp         eax,0FFFFFFFFh
  10007EAD: 0F 84 AF 01 00 00  je          10008062
  10007EB3: 8B 75 D4           mov         esi,dword ptr [ebp-2Ch]
  10007EB6: 4F                 dec         edi
  10007EB7: 03 FE              add         edi,esi
  10007EB9: EB 7F              jmp         10007F3A
  10007EBB: 8A 54 01 2D        mov         dl,byte ptr [ecx+eax+2Dh]
  10007EBF: F6 C2 04           test        dl,4
  10007EC2: 74 1E              je          10007EE2
  10007EC4: 8A 44 01 2E        mov         al,byte ptr [ecx+eax+2Eh]
  10007EC8: 80 E2 FB           and         dl,0FBh
  10007ECB: 88 45 EC           mov         byte ptr [ebp-14h],al
  10007ECE: 8A 07              mov         al,byte ptr [edi]
  10007ED0: 88 45 ED           mov         byte ptr [ebp-13h],al
  10007ED3: 8B 45 D4           mov         eax,dword ptr [ebp-2Ch]
  10007ED6: 6A 02              push        2
  10007ED8: 88 54 01 2D        mov         byte ptr [ecx+eax+2Dh],dl
  10007EDC: 8D 45 EC           lea         eax,[ebp-14h]
  10007EDF: 50                 push        eax
  10007EE0: EB 43              jmp         10007F25
  10007EE2: 8A 07              mov         al,byte ptr [edi]
  10007EE4: 88 45 E3           mov         byte ptr [ebp-1Dh],al
  10007EE7: E8 6B EB FF FF     call        10006A57
  10007EEC: 0F B6 4D E3        movzx       ecx,byte ptr [ebp-1Dh]
  10007EF0: 66 39 1C 48        cmp         word ptr [eax+ecx*2],bx
  10007EF4: 7D 2C              jge         10007F22
  10007EF6: 8D 47 01           lea         eax,[edi+1]
  10007EF9: 89 45 CC           mov         dword ptr [ebp-34h],eax
  10007EFC: 3B 45 A4           cmp         eax,dword ptr [ebp-5Ch]
  10007EFF: 0F 83 31 01 00 00  jae         10008036
  10007F05: 6A 02              push        2
  10007F07: 8D 45 B8           lea         eax,[ebp-48h]
  10007F0A: 57                 push        edi
  10007F0B: 50                 push        eax
  10007F0C: E8 0B EA FF FF     call        1000691C
  10007F11: 83 C4 0C           add         esp,0Ch
  10007F14: 83 F8 FF           cmp         eax,0FFFFFFFFh
  10007F17: 0F 84 45 01 00 00  je          10008062
  10007F1D: 8B 7D CC           mov         edi,dword ptr [ebp-34h]
  10007F20: EB 18              jmp         10007F3A
  10007F22: 6A 01              push        1
  10007F24: 57                 push        edi
  10007F25: 8D 45 B8           lea         eax,[ebp-48h]
  10007F28: 50                 push        eax
  10007F29: E8 EE E9 FF FF     call        1000691C
  10007F2E: 83 C4 0C           add         esp,0Ch
  10007F31: 83 F8 FF           cmp         eax,0FFFFFFFFh
  10007F34: 0F 84 28 01 00 00  je          10008062
  10007F3A: 53                 push        ebx
  10007F3B: 53                 push        ebx
  10007F3C: 6A 05              push        5
  10007F3E: 8D 45 E4           lea         eax,[ebp-1Ch]
  10007F41: 47                 inc         edi
  10007F42: 50                 push        eax
  10007F43: FF 75 DC           push        dword ptr [ebp-24h]
  10007F46: 8D 45 B8           lea         eax,[ebp-48h]
  10007F49: 89 7D 9C           mov         dword ptr [ebp-64h],edi
  10007F4C: 50                 push        eax
  10007F4D: 53                 push        ebx
  10007F4E: FF 75 88           push        dword ptr [ebp-78h]
  10007F51: E8 B7 D7 FF FF     call        1000570D
  10007F56: 83 C4 20           add         esp,20h
  10007F59: 89 45 CC           mov         dword ptr [ebp-34h],eax
  10007F5C: 85 C0              test        eax,eax
  10007F5E: 0F 84 FE 00 00 00  je          10008062
  10007F64: 53                 push        ebx
  10007F65: 8D 4D A0           lea         ecx,[ebp-60h]
  10007F68: 51                 push        ecx
  10007F69: 50                 push        eax
  10007F6A: 8D 45 E4           lea         eax,[ebp-1Ch]
  10007F6D: 50                 push        eax
  10007F6E: FF 75 94           push        dword ptr [ebp-6Ch]
  10007F71: FF 15 E4 B0 00 10  call        dword ptr ds:[1000B0E4h]
  10007F77: 85 C0              test        eax,eax
  10007F79: 0F 84 DA 00 00 00  je          10008059
  10007F7F: 8B 75 B0           mov         esi,dword ptr [ebp-50h]
  10007F82: 2B 75 98           sub         esi,dword ptr [ebp-68h]
  10007F85: 8B 45 CC           mov         eax,dword ptr [ebp-34h]
  10007F88: 03 F7              add         esi,edi
  10007F8A: 89 75 AC           mov         dword ptr [ebp-54h],esi
  10007F8D: 39 45 A0           cmp         dword ptr [ebp-60h],eax
  10007F90: 0F 82 CC 00 00 00  jb          10008062
  10007F96: 80 7D D1 0A        cmp         byte ptr [ebp-2Fh],0Ah
  10007F9A: 75 34              jne         10007FD0
  10007F9C: 6A 0D              push        0Dh
  10007F9E: 58                 pop         eax
  10007F9F: 53                 push        ebx
  10007FA0: 66 89 45 D0        mov         word ptr [ebp-30h],ax
  10007FA4: 8D 45 A0           lea         eax,[ebp-60h]
  10007FA7: 50                 push        eax
  10007FA8: 6A 01              push        1
  10007FAA: 8D 45 D0           lea         eax,[ebp-30h]
  10007FAD: 50                 push        eax
  10007FAE: FF 75 94           push        dword ptr [ebp-6Ch]
  10007FB1: FF 15 E4 B0 00 10  call        dword ptr ds:[1000B0E4h]
  10007FB7: 85 C0              test        eax,eax
  10007FB9: 0F 84 9A 00 00 00  je          10008059
  10007FBF: 83 7D A0 01        cmp         dword ptr [ebp-60h],1
  10007FC3: 0F 82 99 00 00 00  jb          10008062
  10007FC9: FF 45 B0           inc         dword ptr [ebp-50h]
  10007FCC: 46                 inc         esi
  10007FCD: 89 75 AC           mov         dword ptr [ebp-54h],esi
  10007FD0: 3B 7D A4           cmp         edi,dword ptr [ebp-5Ch]
  10007FD3: 0F 83 89 00 00 00  jae         10008062
  10007FD9: 8B 4D 84           mov         ecx,dword ptr [ebp-7Ch]
  10007FDC: E9 7C FD FF FF     jmp         10007D5D
  10007FE1: 85 D2              test        edx,edx
  10007FE3: 7E 25              jle         1000800A
  10007FE5: 8B F1              mov         esi,ecx
  10007FE7: 8B 45 B4           mov         eax,dword ptr [ebp-4Ch]
  10007FEA: 8B 0C 85 28 20 01  mov         ecx,dword ptr [eax*4+10012028h]
            10
  10007FF1: 8A 04 3B           mov         al,byte ptr [ebx+edi]
  10007FF4: 03 CE              add         ecx,esi
  10007FF6: 8B 75 DC           mov         esi,dword ptr [ebp-24h]
  10007FF9: 03 CB              add         ecx,ebx
  10007FFB: 43                 inc         ebx
  10007FFC: 88 44 31 2E        mov         byte ptr [ecx+esi+2Eh],al
  10008000: 8B 75 D8           mov         esi,dword ptr [ebp-28h]
  10008003: 3B DA              cmp         ebx,edx
  10008005: 7C E0              jl          10007FE7
  10008007: 8B 75 AC           mov         esi,dword ptr [ebp-54h]
  1000800A: 03 F2              add         esi,edx
  1000800C: 80 7D C8 00        cmp         byte ptr [ebp-38h],0
  10008010: 89 75 AC           mov         dword ptr [ebp-54h],esi
  10008013: EB 50              jmp         10008065
  10008015: 85 D2              test        edx,edx
  10008017: 7E F1              jle         1000800A
  10008019: 8B 75 D8           mov         esi,dword ptr [ebp-28h]
  1000801C: 8B 45 B4           mov         eax,dword ptr [ebp-4Ch]
  1000801F: 8B 0C 85 28 20 01  mov         ecx,dword ptr [eax*4+10012028h]
            10
  10008026: 8A 04 3B           mov         al,byte ptr [ebx+edi]
  10008029: 03 CE              add         ecx,esi
  1000802B: 88 44 19 2E        mov         byte ptr [ecx+ebx+2Eh],al
  1000802F: 43                 inc         ebx
  10008030: 3B DA              cmp         ebx,edx
  10008032: 7C E8              jl          1000801C
  10008034: EB D1              jmp         10008007
  10008036: 8B 55 B4           mov         edx,dword ptr [ebp-4Ch]
  10008039: 8B 4D D8           mov         ecx,dword ptr [ebp-28h]
  1000803C: 8A 5D E3           mov         bl,byte ptr [ebp-1Dh]
  1000803F: 8B 04 95 28 20 01  mov         eax,dword ptr [edx*4+10012028h]
            10
  10008046: 88 5C 01 2E        mov         byte ptr [ecx+eax+2Eh],bl
  1000804A: 8B 04 95 28 20 01  mov         eax,dword ptr [edx*4+10012028h]
            10
  10008051: 80 4C 01 2D 04     or          byte ptr [ecx+eax+2Dh],4
  10008056: 46                 inc         esi
  10008057: EB B3              jmp         1000800C
  10008059: FF 15 40 B0 00 10  call        dword ptr ds:[1000B040h]
  1000805F: 89 45 A8           mov         dword ptr [ebp-58h],eax
  10008062: 38 5D C8           cmp         byte ptr [ebp-38h],bl
  10008065: 74 0A              je          10008071
  10008067: 8B 45 BC           mov         eax,dword ptr [ebp-44h]
  1000806A: 83 A0 50 03 00 00  and         dword ptr [eax+00000350h],0FFFFFFFDh
            FD
  10008071: 8B 45 08           mov         eax,dword ptr [ebp+8]
  10008074: 8D 75 A8           lea         esi,[ebp-58h]
  10008077: 8B 4D FC           mov         ecx,dword ptr [ebp-4]
  1000807A: 8B F8              mov         edi,eax
  1000807C: 33 CD              xor         ecx,ebp
  1000807E: A5                 movs        dword ptr es:[edi],dword ptr [esi]
  1000807F: A5                 movs        dword ptr es:[edi],dword ptr [esi]
  10008080: A5                 movs        dword ptr es:[edi],dword ptr [esi]
  10008081: 5F                 pop         edi
  10008082: 5E                 pop         esi
  10008083: 5B                 pop         ebx
  10008084: E8 53 9A FF FF     call        10001ADC
  10008089: C9                 leave
  1000808A: C3                 ret
  1000808B: 8B FF              mov         edi,edi
  1000808D: 55                 push        ebp
  1000808E: 8B EC              mov         ebp,esp
  10008090: 51                 push        ecx
  10008091: 53                 push        ebx
  10008092: 56                 push        esi
  10008093: 8B 75 08           mov         esi,dword ptr [ebp+8]
  10008096: 33 C0              xor         eax,eax
  10008098: 57                 push        edi
  10008099: 8B FE              mov         edi,esi
  1000809B: AB                 stos        dword ptr es:[edi]
  1000809C: AB                 stos        dword ptr es:[edi]
  1000809D: AB                 stos        dword ptr es:[edi]
  1000809E: 8B 7D 0C           mov         edi,dword ptr [ebp+0Ch]
  100080A1: 8B 45 10           mov         eax,dword ptr [ebp+10h]
  100080A4: 03 C7              add         eax,edi
  100080A6: 89 45 FC           mov         dword ptr [ebp-4],eax
  100080A9: 3B F8              cmp         edi,eax
  100080AB: 73 3F              jae         100080EC
  100080AD: 0F B7 1F           movzx       ebx,word ptr [edi]
  100080B0: 53                 push        ebx
  100080B1: E8 FC 0C 00 00     call        10008DB2
  100080B6: 59                 pop         ecx
  100080B7: 66 3B C3           cmp         ax,bx
  100080BA: 75 28              jne         100080E4
  100080BC: 83 46 04 02        add         dword ptr [esi+4],2
  100080C0: 83 FB 0A           cmp         ebx,0Ah
  100080C3: 75 15              jne         100080DA
  100080C5: 6A 0D              push        0Dh
  100080C7: 5B                 pop         ebx
  100080C8: 53                 push        ebx
  100080C9: E8 E4 0C 00 00     call        10008DB2
  100080CE: 59                 pop         ecx
  100080CF: 66 3B C3           cmp         ax,bx
  100080D2: 75 10              jne         100080E4
  100080D4: FF 46 04           inc         dword ptr [esi+4]
  100080D7: FF 46 08           inc         dword ptr [esi+8]
  100080DA: 83 C7 02           add         edi,2
  100080DD: 3B 7D FC           cmp         edi,dword ptr [ebp-4]
  100080E0: 72 CB              jb          100080AD
  100080E2: EB 08              jmp         100080EC
  100080E4: FF 15 40 B0 00 10  call        dword ptr ds:[1000B040h]
  100080EA: 89 06              mov         dword ptr [esi],eax
  100080EC: 5F                 pop         edi
  100080ED: 8B C6              mov         eax,esi
  100080EF: 5E                 pop         esi
  100080F0: 5B                 pop         ebx
  100080F1: C9                 leave
  100080F2: C3                 ret
  100080F3: 8B FF              mov         edi,edi
  100080F5: 55                 push        ebp
  100080F6: 8B EC              mov         ebp,esp
  100080F8: 51                 push        ecx
  100080F9: 56                 push        esi
  100080FA: 8B 75 08           mov         esi,dword ptr [ebp+8]
  100080FD: 57                 push        edi
  100080FE: 56                 push        esi
  100080FF: E8 0D 07 00 00     call        10008811
  10008104: 59                 pop         ecx
  10008105: 85 C0              test        eax,eax
  10008107: 74 55              je          1000815E
  10008109: 8B FE              mov         edi,esi
  1000810B: 83 E6 3F           and         esi,3Fh
  1000810E: C1 FF 06           sar         edi,6
  10008111: 6B F6 38           imul        esi,esi,38h
  10008114: 8B 04 BD 28 20 01  mov         eax,dword ptr [edi*4+10012028h]
            10
  1000811B: 80 7C 30 28 00     cmp         byte ptr [eax+esi+28h],0
  10008120: 7D 3C              jge         1000815E
  10008122: E8 F0 BC FF FF     call        10003E17
  10008127: 8B 40 4C           mov         eax,dword ptr [eax+4Ch]
  1000812A: 83 B8 A8 00 00 00  cmp         dword ptr [eax+000000A8h],0
            00
  10008131: 75 0E              jne         10008141
  10008133: 8B 04 BD 28 20 01  mov         eax,dword ptr [edi*4+10012028h]
            10
  1000813A: 80 7C 30 29 00     cmp         byte ptr [eax+esi+29h],0
  1000813F: 74 1D              je          1000815E
  10008141: 8D 45 FC           lea         eax,[ebp-4]
  10008144: 50                 push        eax
  10008145: 8B 04 BD 28 20 01  mov         eax,dword ptr [edi*4+10012028h]
            10
  1000814C: FF 74 30 18        push        dword ptr [eax+esi+18h]
  10008150: FF 15 EC B0 00 10  call        dword ptr ds:[1000B0ECh]
  10008156: 85 C0              test        eax,eax
  10008158: 74 04              je          1000815E
  1000815A: B0 01              mov         al,1
  1000815C: EB 02              jmp         10008160
  1000815E: 32 C0              xor         al,al
  10008160: 5F                 pop         edi
  10008161: 5E                 pop         esi
  10008162: C9                 leave
  10008163: C3                 ret
  10008164: 8B FF              mov         edi,edi
  10008166: 55                 push        ebp
  10008167: 8B EC              mov         ebp,esp
  10008169: B8 0C 14 00 00     mov         eax,140Ch
  1000816E: E8 9D 2D 00 00     call        1000AF10
  10008173: A1 10 10 01 10     mov         eax,dword ptr ds:[10011010h]
  10008178: 33 C5              xor         eax,ebp
  1000817A: 89 45 FC           mov         dword ptr [ebp-4],eax
  1000817D: 8B 4D 0C           mov         ecx,dword ptr [ebp+0Ch]
  10008180: 8B C1              mov         eax,ecx
  10008182: 8B 55 14           mov         edx,dword ptr [ebp+14h]
  10008185: 83 E1 3F           and         ecx,3Fh
  10008188: C1 F8 06           sar         eax,6
  1000818B: 6B C9 38           imul        ecx,ecx,38h
  1000818E: 53                 push        ebx
  1000818F: 8B 5D 08           mov         ebx,dword ptr [ebp+8]
  10008192: 8B 04 85 28 20 01  mov         eax,dword ptr [eax*4+10012028h]
            10
  10008199: 56                 push        esi
  1000819A: 57                 push        edi
  1000819B: 8B FB              mov         edi,ebx
  1000819D: 8B 44 08 18        mov         eax,dword ptr [eax+ecx+18h]
  100081A1: 8B 4D 10           mov         ecx,dword ptr [ebp+10h]
  100081A4: 03 D1              add         edx,ecx
  100081A6: 89 85 F8 EB FF FF  mov         dword ptr [ebp+FFFFEBF8h],eax
  100081AC: 33 C0              xor         eax,eax
  100081AE: AB                 stos        dword ptr es:[edi]
  100081AF: 89 95 F4 EB FF FF  mov         dword ptr [ebp+FFFFEBF4h],edx
  100081B5: AB                 stos        dword ptr es:[edi]
  100081B6: AB                 stos        dword ptr es:[edi]
  100081B7: 3B CA              cmp         ecx,edx
  100081B9: 73 73              jae         1000822E
  100081BB: 8B BD F8 EB FF FF  mov         edi,dword ptr [ebp+FFFFEBF8h]
  100081C1: 8D B5 FC EB FF FF  lea         esi,[ebp+FFFFEBFCh]
  100081C7: 3B CA              cmp         ecx,edx
  100081C9: 73 18              jae         100081E3
  100081CB: 8A 01              mov         al,byte ptr [ecx]
  100081CD: 41                 inc         ecx
  100081CE: 3C 0A              cmp         al,0Ah
  100081D0: 75 07              jne         100081D9
  100081D2: FF 43 08           inc         dword ptr [ebx+8]
  100081D5: C6 06 0D           mov         byte ptr [esi],0Dh
  100081D8: 46                 inc         esi
  100081D9: 88 06              mov         byte ptr [esi],al
  100081DB: 46                 inc         esi
  100081DC: 8D 45 FB           lea         eax,[ebp-5]
  100081DF: 3B F0              cmp         esi,eax
  100081E1: 72 E4              jb          100081C7
  100081E3: 8D 85 FC EB FF FF  lea         eax,[ebp+FFFFEBFCh]
  100081E9: 89 4D 10           mov         dword ptr [ebp+10h],ecx
  100081EC: 2B F0              sub         esi,eax
  100081EE: 8D 85 F8 EB FF FF  lea         eax,[ebp+FFFFEBF8h]
  100081F4: 6A 00              push        0
  100081F6: 50                 push        eax
  100081F7: 56                 push        esi
  100081F8: 8D 85 FC EB FF FF  lea         eax,[ebp+FFFFEBFCh]
  100081FE: 50                 push        eax
  100081FF: 57                 push        edi
  10008200: FF 15 E4 B0 00 10  call        dword ptr ds:[1000B0E4h]
  10008206: 85 C0              test        eax,eax
  10008208: 74 1C              je          10008226
  1000820A: 8B 85 F8 EB FF FF  mov         eax,dword ptr [ebp+FFFFEBF8h]
  10008210: 01 43 04           add         dword ptr [ebx+4],eax
  10008213: 3B C6              cmp         eax,esi
  10008215: 72 17              jb          1000822E
  10008217: 8B 4D 10           mov         ecx,dword ptr [ebp+10h]
  1000821A: 8B 95 F4 EB FF FF  mov         edx,dword ptr [ebp+FFFFEBF4h]
  10008220: 3B CA              cmp         ecx,edx
  10008222: 72 9D              jb          100081C1
  10008224: EB 08              jmp         1000822E
  10008226: FF 15 40 B0 00 10  call        dword ptr ds:[1000B040h]
  1000822C: 89 03              mov         dword ptr [ebx],eax
  1000822E: 8B 4D FC           mov         ecx,dword ptr [ebp-4]
  10008231: 8B C3              mov         eax,ebx
  10008233: 5F                 pop         edi
  10008234: 5E                 pop         esi
  10008235: 33 CD              xor         ecx,ebp
  10008237: 5B                 pop         ebx
  10008238: E8 9F 98 FF FF     call        10001ADC
  1000823D: C9                 leave
  1000823E: C3                 ret
  1000823F: 8B FF              mov         edi,edi
  10008241: 55                 push        ebp
  10008242: 8B EC              mov         ebp,esp
  10008244: B8 10 14 00 00     mov         eax,1410h
  10008249: E8 C2 2C 00 00     call        1000AF10
  1000824E: A1 10 10 01 10     mov         eax,dword ptr ds:[10011010h]
  10008253: 33 C5              xor         eax,ebp
  10008255: 89 45 FC           mov         dword ptr [ebp-4],eax
  10008258: 8B 4D 0C           mov         ecx,dword ptr [ebp+0Ch]
  1000825B: 8B C1              mov         eax,ecx
  1000825D: 8B 55 14           mov         edx,dword ptr [ebp+14h]
  10008260: 83 E1 3F           and         ecx,3Fh
  10008263: C1 F8 06           sar         eax,6
  10008266: 6B C9 38           imul        ecx,ecx,38h
  10008269: 53                 push        ebx
  1000826A: 8B 5D 08           mov         ebx,dword ptr [ebp+8]
  1000826D: 8B 04 85 28 20 01  mov         eax,dword ptr [eax*4+10012028h]
            10
  10008274: 56                 push        esi
  10008275: 57                 push        edi
  10008276: 8B FB              mov         edi,ebx
  10008278: 8B 44 08 18        mov         eax,dword ptr [eax+ecx+18h]
  1000827C: 8B 4D 10           mov         ecx,dword ptr [ebp+10h]
  1000827F: 03 D1              add         edx,ecx
  10008281: 89 85 F8 EB FF FF  mov         dword ptr [ebp+FFFFEBF8h],eax
  10008287: 33 C0              xor         eax,eax
  10008289: AB                 stos        dword ptr es:[edi]
  1000828A: 89 95 F0 EB FF FF  mov         dword ptr [ebp+FFFFEBF0h],edx
  10008290: AB                 stos        dword ptr es:[edi]
  10008291: AB                 stos        dword ptr es:[edi]
  10008292: EB 75              jmp         10008309
  10008294: 8D B5 FC EB FF FF  lea         esi,[ebp+FFFFEBFCh]
  1000829A: 3B CA              cmp         ecx,edx
  1000829C: 73 25              jae         100082C3
  1000829E: 0F B7 01           movzx       eax,word ptr [ecx]
  100082A1: 83 C1 02           add         ecx,2
  100082A4: 83 F8 0A           cmp         eax,0Ah
  100082A7: 75 0D              jne         100082B6
  100082A9: 83 43 08 02        add         dword ptr [ebx+8],2
  100082AD: 6A 0D              push        0Dh
  100082AF: 5F                 pop         edi
  100082B0: 66 89 3E           mov         word ptr [esi],di
  100082B3: 83 C6 02           add         esi,2
  100082B6: 66 89 06           mov         word ptr [esi],ax
  100082B9: 83 C6 02           add         esi,2
  100082BC: 8D 45 FA           lea         eax,[ebp-6]
  100082BF: 3B F0              cmp         esi,eax
  100082C1: 72 D7              jb          1000829A
  100082C3: 8B BD F8 EB FF FF  mov         edi,dword ptr [ebp+FFFFEBF8h]
  100082C9: 8D 85 FC EB FF FF  lea         eax,[ebp+FFFFEBFCh]
  100082CF: 2B F0              sub         esi,eax
  100082D1: 89 4D 10           mov         dword ptr [ebp+10h],ecx
  100082D4: 6A 00              push        0
  100082D6: 8D 85 F4 EB FF FF  lea         eax,[ebp+FFFFEBF4h]
  100082DC: 83 E6 FE           and         esi,0FFFFFFFEh
  100082DF: 50                 push        eax
  100082E0: 56                 push        esi
  100082E1: 8D 85 FC EB FF FF  lea         eax,[ebp+FFFFEBFCh]
  100082E7: 50                 push        eax
  100082E8: 57                 push        edi
  100082E9: FF 15 E4 B0 00 10  call        dword ptr ds:[1000B0E4h]
  100082EF: 85 C0              test        eax,eax
  100082F1: 74 1C              je          1000830F
  100082F3: 8B 85 F4 EB FF FF  mov         eax,dword ptr [ebp+FFFFEBF4h]
  100082F9: 01 43 04           add         dword ptr [ebx+4],eax
  100082FC: 3B C6              cmp         eax,esi
  100082FE: 72 17              jb          10008317
  10008300: 8B 4D 10           mov         ecx,dword ptr [ebp+10h]
  10008303: 8B 95 F0 EB FF FF  mov         edx,dword ptr [ebp+FFFFEBF0h]
  10008309: 3B CA              cmp         ecx,edx
  1000830B: 72 87              jb          10008294
  1000830D: EB 08              jmp         10008317
  1000830F: FF 15 40 B0 00 10  call        dword ptr ds:[1000B040h]
  10008315: 89 03              mov         dword ptr [ebx],eax
  10008317: 8B 4D FC           mov         ecx,dword ptr [ebp-4]
  1000831A: 8B C3              mov         eax,ebx
  1000831C: 5F                 pop         edi
  1000831D: 5E                 pop         esi
  1000831E: 33 CD              xor         ecx,ebp
  10008320: 5B                 pop         ebx
  10008321: E8 B6 97 FF FF     call        10001ADC
  10008326: C9                 leave
  10008327: C3                 ret
  10008328: 8B FF              mov         edi,edi
  1000832A: 55                 push        ebp
  1000832B: 8B EC              mov         ebp,esp
  1000832D: B8 18 14 00 00     mov         eax,1418h
  10008332: E8 D9 2B 00 00     call        1000AF10
  10008337: A1 10 10 01 10     mov         eax,dword ptr ds:[10011010h]
  1000833C: 33 C5              xor         eax,ebp
  1000833E: 89 45 FC           mov         dword ptr [ebp-4],eax
  10008341: 8B 4D 0C           mov         ecx,dword ptr [ebp+0Ch]
  10008344: 8B C1              mov         eax,ecx
  10008346: 8B 55 10           mov         edx,dword ptr [ebp+10h]
  10008349: 83 E1 3F           and         ecx,3Fh
  1000834C: C1 F8 06           sar         eax,6
  1000834F: 6B C9 38           imul        ecx,ecx,38h
  10008352: 53                 push        ebx
  10008353: 56                 push        esi
  10008354: 8B 04 85 28 20 01  mov         eax,dword ptr [eax*4+10012028h]
            10
  1000835B: 8B 75 08           mov         esi,dword ptr [ebp+8]
  1000835E: 57                 push        edi
  1000835F: 8B FE              mov         edi,esi
  10008361: 8B 44 08 18        mov         eax,dword ptr [eax+ecx+18h]
  10008365: 8B 4D 14           mov         ecx,dword ptr [ebp+14h]
  10008368: 89 85 F0 EB FF FF  mov         dword ptr [ebp+FFFFEBF0h],eax
  1000836E: 03 CA              add         ecx,edx
  10008370: 33 C0              xor         eax,eax
  10008372: 89 8D F4 EB FF FF  mov         dword ptr [ebp+FFFFEBF4h],ecx
  10008378: AB                 stos        dword ptr es:[edi]
  10008379: AB                 stos        dword ptr es:[edi]
  1000837A: AB                 stos        dword ptr es:[edi]
  1000837B: 8B FA              mov         edi,edx
  1000837D: 3B D1              cmp         edx,ecx
  1000837F: 0F 83 C4 00 00 00  jae         10008449
  10008385: 8B B5 F4 EB FF FF  mov         esi,dword ptr [ebp+FFFFEBF4h]
  1000838B: 8D 85 50 F9 FF FF  lea         eax,[ebp+FFFFF950h]
  10008391: 3B FE              cmp         edi,esi
  10008393: 73 21              jae         100083B6
  10008395: 0F B7 0F           movzx       ecx,word ptr [edi]
  10008398: 83 C7 02           add         edi,2
  1000839B: 83 F9 0A           cmp         ecx,0Ah
  1000839E: 75 09              jne         100083A9
  100083A0: 6A 0D              push        0Dh
  100083A2: 5A                 pop         edx
  100083A3: 66 89 10           mov         word ptr [eax],dx
  100083A6: 83 C0 02           add         eax,2
  100083A9: 66 89 08           mov         word ptr [eax],cx
  100083AC: 83 C0 02           add         eax,2
  100083AF: 8D 4D F8           lea         ecx,[ebp-8]
  100083B2: 3B C1              cmp         eax,ecx
  100083B4: 72 DB              jb          10008391
  100083B6: 6A 00              push        0
  100083B8: 6A 00              push        0
  100083BA: 68 55 0D 00 00     push        0D55h
  100083BF: 8D 8D F8 EB FF FF  lea         ecx,[ebp+FFFFEBF8h]
  100083C5: 51                 push        ecx
  100083C6: 8D 8D 50 F9 FF FF  lea         ecx,[ebp+FFFFF950h]
  100083CC: 2B C1              sub         eax,ecx
  100083CE: D1 F8              sar         eax,1
  100083D0: 50                 push        eax
  100083D1: 8B C1              mov         eax,ecx
  100083D3: 50                 push        eax
  100083D4: 6A 00              push        0
  100083D6: 68 E9 FD 00 00     push        0FDE9h
  100083DB: E8 2D D3 FF FF     call        1000570D
  100083E0: 8B 75 08           mov         esi,dword ptr [ebp+8]
  100083E3: 83 C4 20           add         esp,20h
  100083E6: 89 85 E8 EB FF FF  mov         dword ptr [ebp+FFFFEBE8h],eax
  100083EC: 85 C0              test        eax,eax
  100083EE: 74 51              je          10008441
  100083F0: 33 DB              xor         ebx,ebx
  100083F2: 85 C0              test        eax,eax
  100083F4: 74 35              je          1000842B
  100083F6: 6A 00              push        0
  100083F8: 8D 8D EC EB FF FF  lea         ecx,[ebp+FFFFEBECh]
  100083FE: 2B C3              sub         eax,ebx
  10008400: 51                 push        ecx
  10008401: 50                 push        eax
  10008402: 8D 85 F8 EB FF FF  lea         eax,[ebp+FFFFEBF8h]
  10008408: 03 C3              add         eax,ebx
  1000840A: 50                 push        eax
  1000840B: FF B5 F0 EB FF FF  push        dword ptr [ebp+FFFFEBF0h]
  10008411: FF 15 E4 B0 00 10  call        dword ptr ds:[1000B0E4h]
  10008417: 85 C0              test        eax,eax
  10008419: 74 26              je          10008441
  1000841B: 03 9D EC EB FF FF  add         ebx,dword ptr [ebp+FFFFEBECh]
  10008421: 8B 85 E8 EB FF FF  mov         eax,dword ptr [ebp+FFFFEBE8h]
  10008427: 3B D8              cmp         ebx,eax
  10008429: 72 CB              jb          100083F6
  1000842B: 8B C7              mov         eax,edi
  1000842D: 2B 45 10           sub         eax,dword ptr [ebp+10h]
  10008430: 89 46 04           mov         dword ptr [esi+4],eax
  10008433: 3B BD F4 EB FF FF  cmp         edi,dword ptr [ebp+FFFFEBF4h]
  10008439: 0F 82 46 FF FF FF  jb          10008385
  1000843F: EB 08              jmp         10008449
  10008441: FF 15 40 B0 00 10  call        dword ptr ds:[1000B040h]
  10008447: 89 06              mov         dword ptr [esi],eax
  10008449: 8B 4D FC           mov         ecx,dword ptr [ebp-4]
  1000844C: 8B C6              mov         eax,esi
  1000844E: 5F                 pop         edi
  1000844F: 5E                 pop         esi
  10008450: 33 CD              xor         ecx,ebp
  10008452: 5B                 pop         ebx
  10008453: E8 84 96 FF FF     call        10001ADC
  10008458: C9                 leave
  10008459: C3                 ret
  1000845A: 6A 10              push        10h
  1000845C: 68 20 03 01 10     push        10010320h
  10008461: E8 4A 94 FF FF     call        100018B0
  10008466: 8B 75 08           mov         esi,dword ptr [ebp+8]
  10008469: 83 FE FE           cmp         esi,0FFFFFFFEh
  1000846C: 75 18              jne         10008486
  1000846E: E8 1D BF FF FF     call        10004390
  10008473: 83 20 00           and         dword ptr [eax],0
  10008476: E8 28 BF FF FF     call        100043A3
  1000847B: C7 00 09 00 00 00  mov         dword ptr [eax],9
  10008481: E9 B3 00 00 00     jmp         10008539
  10008486: 85 F6              test        esi,esi
  10008488: 0F 88 93 00 00 00  js          10008521
  1000848E: 3B 35 28 22 01 10  cmp         esi,dword ptr ds:[10012228h]
  10008494: 0F 83 87 00 00 00  jae         10008521
  1000849A: 8B DE              mov         ebx,esi
  1000849C: C1 FB 06           sar         ebx,6
  1000849F: 8B C6              mov         eax,esi
  100084A1: 83 E0 3F           and         eax,3Fh
  100084A4: 6B C8 38           imul        ecx,eax,38h
  100084A7: 89 4D E0           mov         dword ptr [ebp-20h],ecx
  100084AA: 8B 04 9D 28 20 01  mov         eax,dword ptr [ebx*4+10012028h]
            10
  100084B1: F6 44 08 28 01     test        byte ptr [eax+ecx+28h],1
  100084B6: 74 69              je          10008521
  100084B8: 56                 push        esi
  100084B9: E8 C1 F5 FF FF     call        10007A7F
  100084BE: 59                 pop         ecx
  100084BF: 83 CF FF           or          edi,0FFFFFFFFh
  100084C2: 89 7D E4           mov         dword ptr [ebp-1Ch],edi
  100084C5: 83 65 FC 00        and         dword ptr [ebp-4],0
  100084C9: 8B 04 9D 28 20 01  mov         eax,dword ptr [ebx*4+10012028h]
            10
  100084D0: 8B 4D E0           mov         ecx,dword ptr [ebp-20h]
  100084D3: F6 44 08 28 01     test        byte ptr [eax+ecx+28h],1
  100084D8: 75 15              jne         100084EF
  100084DA: E8 C4 BE FF FF     call        100043A3
  100084DF: C7 00 09 00 00 00  mov         dword ptr [eax],9
  100084E5: E8 A6 BE FF FF     call        10004390
  100084EA: 83 20 00           and         dword ptr [eax],0
  100084ED: EB 14              jmp         10008503
  100084EF: FF 75 10           push        dword ptr [ebp+10h]
  100084F2: FF 75 0C           push        dword ptr [ebp+0Ch]
  100084F5: 56                 push        esi
  100084F6: E8 51 00 00 00     call        1000854C
  100084FB: 83 C4 0C           add         esp,0Ch
  100084FE: 8B F8              mov         edi,eax
  10008500: 89 7D E4           mov         dword ptr [ebp-1Ch],edi
  10008503: C7 45 FC FE FF FF  mov         dword ptr [ebp-4],0FFFFFFFEh
            FF
  1000850A: E8 0A 00 00 00     call        10008519
  1000850F: 8B C7              mov         eax,edi
  10008511: EB 29              jmp         1000853C
  10008513: 8B 75 08           mov         esi,dword ptr [ebp+8]
  10008516: 8B 7D E4           mov         edi,dword ptr [ebp-1Ch]
  10008519: 56                 push        esi
  1000851A: E8 83 F5 FF FF     call        10007AA2
  1000851F: 59                 pop         ecx
  10008520: C3                 ret
  10008521: E8 6A BE FF FF     call        10004390
  10008526: 83 20 00           and         dword ptr [eax],0
  10008529: E8 75 BE FF FF     call        100043A3
  1000852E: C7 00 09 00 00 00  mov         dword ptr [eax],9
  10008534: E8 AD BD FF FF     call        100042E6
  10008539: 83 C8 FF           or          eax,0FFFFFFFFh
  1000853C: 8B 4D F0           mov         ecx,dword ptr [ebp-10h]
  1000853F: 64 89 0D 00 00 00  mov         dword ptr fs:[00000000h],ecx
            00
  10008546: 59                 pop         ecx
  10008547: 5F                 pop         edi
  10008548: 5E                 pop         esi
  10008549: 5B                 pop         ebx
  1000854A: C9                 leave
  1000854B: C3                 ret
  1000854C: 8B FF              mov         edi,edi
  1000854E: 55                 push        ebp
  1000854F: 8B EC              mov         ebp,esp
  10008551: 83 EC 28           sub         esp,28h
  10008554: 8B 4D 10           mov         ecx,dword ptr [ebp+10h]
  10008557: 89 4D FC           mov         dword ptr [ebp-4],ecx
  1000855A: 53                 push        ebx
  1000855B: 56                 push        esi
  1000855C: 8B 75 08           mov         esi,dword ptr [ebp+8]
  1000855F: 57                 push        edi
  10008560: 8B 7D 0C           mov         edi,dword ptr [ebp+0Ch]
  10008563: 89 7D F4           mov         dword ptr [ebp-0Ch],edi
  10008566: 85 C9              test        ecx,ecx
  10008568: 0F 84 B1 01 00 00  je          1000871F
  1000856E: 85 FF              test        edi,edi
  10008570: 75 20              jne         10008592
  10008572: E8 19 BE FF FF     call        10004390
  10008577: 83 20 00           and         dword ptr [eax],0
  1000857A: E8 24 BE FF FF     call        100043A3
  1000857F: C7 00 16 00 00 00  mov         dword ptr [eax],16h
  10008585: E8 5C BD FF FF     call        100042E6
  1000858A: 83 C8 FF           or          eax,0FFFFFFFFh
  1000858D: E9 8F 01 00 00     jmp         10008721
  10008592: 8B C6              mov         eax,esi
  10008594: 8B D6              mov         edx,esi
  10008596: C1 FA 06           sar         edx,6
  10008599: 83 E0 3F           and         eax,3Fh
  1000859C: 6B C0 38           imul        eax,eax,38h
  1000859F: 89 55 F0           mov         dword ptr [ebp-10h],edx
  100085A2: 8B 14 95 28 20 01  mov         edx,dword ptr [edx*4+10012028h]
            10
  100085A9: 89 45 F8           mov         dword ptr [ebp-8],eax
  100085AC: 8A 5C 02 29        mov         bl,byte ptr [edx+eax+29h]
  100085B0: 80 FB 02           cmp         bl,2
  100085B3: 74 05              je          100085BA
  100085B5: 80 FB 01           cmp         bl,1
  100085B8: 75 0B              jne         100085C5
  100085BA: 8B C1              mov         eax,ecx
  100085BC: F7 D0              not         eax
  100085BE: A8 01              test        al,1
  100085C0: 74 B0              je          10008572
  100085C2: 8B 45 F8           mov         eax,dword ptr [ebp-8]
  100085C5: F6 44 02 28 20     test        byte ptr [edx+eax+28h],20h
  100085CA: 74 0F              je          100085DB
  100085CC: 6A 02              push        2
  100085CE: 6A 00              push        0
  100085D0: 6A 00              push        0
  100085D2: 56                 push        esi
  100085D3: E8 BF 07 00 00     call        10008D97
  100085D8: 83 C4 10           add         esp,10h
  100085DB: 56                 push        esi
  100085DC: E8 12 FB FF FF     call        100080F3
  100085E1: 59                 pop         ecx
  100085E2: 84 C0              test        al,al
  100085E4: 74 39              je          1000861F
  100085E6: 84 DB              test        bl,bl
  100085E8: 74 22              je          1000860C
  100085EA: FE CB              dec         bl
  100085EC: 80 FB 01           cmp         bl,1
  100085EF: 0F 87 F4 00 00 00  ja          100086E9
  100085F5: FF 75 FC           push        dword ptr [ebp-4]
  100085F8: 8D 45 D8           lea         eax,[ebp-28h]
  100085FB: 57                 push        edi
  100085FC: 50                 push        eax
  100085FD: E8 89 FA FF FF     call        1000808B
  10008602: 83 C4 0C           add         esp,0Ch
  10008605: 8B F0              mov         esi,eax
  10008607: E9 9C 00 00 00     jmp         100086A8
  1000860C: FF 75 FC           push        dword ptr [ebp-4]
  1000860F: 8D 45 D8           lea         eax,[ebp-28h]
  10008612: 57                 push        edi
  10008613: 56                 push        esi
  10008614: 50                 push        eax
  10008615: E8 C5 F6 FF FF     call        10007CDF
  1000861A: 83 C4 10           add         esp,10h
  1000861D: EB E6              jmp         10008605
  1000861F: 8B 45 F0           mov         eax,dword ptr [ebp-10h]
  10008622: 8B 0C 85 28 20 01  mov         ecx,dword ptr [eax*4+10012028h]
            10
  10008629: 8B 45 F8           mov         eax,dword ptr [ebp-8]
  1000862C: 80 7C 01 28 00     cmp         byte ptr [ecx+eax+28h],0
  10008631: 7D 46              jge         10008679
  10008633: 0F BE C3           movsx       eax,bl
  10008636: 83 E8 00           sub         eax,0
  10008639: 74 2E              je          10008669
  1000863B: 83 E8 01           sub         eax,1
  1000863E: 74 19              je          10008659
  10008640: 83 E8 01           sub         eax,1
  10008643: 0F 85 A0 00 00 00  jne         100086E9
  10008649: FF 75 FC           push        dword ptr [ebp-4]
  1000864C: 8D 45 D8           lea         eax,[ebp-28h]
  1000864F: 57                 push        edi
  10008650: 56                 push        esi
  10008651: 50                 push        eax
  10008652: E8 E8 FB FF FF     call        1000823F
  10008657: EB C1              jmp         1000861A
  10008659: FF 75 FC           push        dword ptr [ebp-4]
  1000865C: 8D 45 D8           lea         eax,[ebp-28h]
  1000865F: 57                 push        edi
  10008660: 56                 push        esi
  10008661: 50                 push        eax
  10008662: E8 C1 FC FF FF     call        10008328
  10008667: EB B1              jmp         1000861A
  10008669: FF 75 FC           push        dword ptr [ebp-4]
  1000866C: 8D 45 D8           lea         eax,[ebp-28h]
  1000866F: 57                 push        edi
  10008670: 56                 push        esi
  10008671: 50                 push        eax
  10008672: E8 ED FA FF FF     call        10008164
  10008677: EB A1              jmp         1000861A
  10008679: 8B 4C 01 18        mov         ecx,dword ptr [ecx+eax+18h]
  1000867D: 8D 7D D8           lea         edi,[ebp-28h]
  10008680: 33 C0              xor         eax,eax
  10008682: AB                 stos        dword ptr es:[edi]
  10008683: 6A 00              push        0
  10008685: AB                 stos        dword ptr es:[edi]
  10008686: AB                 stos        dword ptr es:[edi]
  10008687: 8D 45 DC           lea         eax,[ebp-24h]
  1000868A: 50                 push        eax
  1000868B: FF 75 FC           push        dword ptr [ebp-4]
  1000868E: FF 75 F4           push        dword ptr [ebp-0Ch]
  10008691: 51                 push        ecx
  10008692: FF 15 E4 B0 00 10  call        dword ptr ds:[1000B0E4h]
  10008698: 85 C0              test        eax,eax
  1000869A: 75 09              jne         100086A5
  1000869C: FF 15 40 B0 00 10  call        dword ptr ds:[1000B040h]
  100086A2: 89 45 D8           mov         dword ptr [ebp-28h],eax
  100086A5: 8D 75 D8           lea         esi,[ebp-28h]
  100086A8: 8D 7D E4           lea         edi,[ebp-1Ch]
  100086AB: A5                 movs        dword ptr es:[edi],dword ptr [esi]
  100086AC: A5                 movs        dword ptr es:[edi],dword ptr [esi]
  100086AD: A5                 movs        dword ptr es:[edi],dword ptr [esi]
  100086AE: 8B 45 E8           mov         eax,dword ptr [ebp-18h]
  100086B1: 85 C0              test        eax,eax
  100086B3: 75 65              jne         1000871A
  100086B5: 8B 45 E4           mov         eax,dword ptr [ebp-1Ch]
  100086B8: 85 C0              test        eax,eax
  100086BA: 74 2A              je          100086E6
  100086BC: 6A 05              push        5
  100086BE: 5E                 pop         esi
  100086BF: 3B C6              cmp         eax,esi
  100086C1: 75 17              jne         100086DA
  100086C3: E8 DB BC FF FF     call        100043A3
  100086C8: C7 00 09 00 00 00  mov         dword ptr [eax],9
  100086CE: E8 BD BC FF FF     call        10004390
  100086D3: 89 30              mov         dword ptr [eax],esi
  100086D5: E9 B0 FE FF FF     jmp         1000858A
  100086DA: 50                 push        eax
  100086DB: E8 8D BC FF FF     call        1000436D
  100086E0: 59                 pop         ecx
  100086E1: E9 A4 FE FF FF     jmp         1000858A
  100086E6: 8B 7D F4           mov         edi,dword ptr [ebp-0Ch]
  100086E9: 8B 45 F0           mov         eax,dword ptr [ebp-10h]
  100086EC: 8B 4D F8           mov         ecx,dword ptr [ebp-8]
  100086EF: 8B 04 85 28 20 01  mov         eax,dword ptr [eax*4+10012028h]
            10
  100086F6: F6 44 08 28 40     test        byte ptr [eax+ecx+28h],40h
  100086FB: 74 05              je          10008702
  100086FD: 80 3F 1A           cmp         byte ptr [edi],1Ah
  10008700: 74 1D              je          1000871F
  10008702: E8 9C BC FF FF     call        100043A3
  10008707: C7 00 1C 00 00 00  mov         dword ptr [eax],1Ch
  1000870D: E8 7E BC FF FF     call        10004390
  10008712: 83 20 00           and         dword ptr [eax],0
  10008715: E9 70 FE FF FF     jmp         1000858A
  1000871A: 2B 45 EC           sub         eax,dword ptr [ebp-14h]
  1000871D: EB 02              jmp         10008721
  1000871F: 33 C0              xor         eax,eax
  10008721: 5F                 pop         edi
  10008722: 5E                 pop         esi
  10008723: 5B                 pop         ebx
  10008724: C9                 leave
  10008725: C3                 ret
  10008726: 6A 10              push        10h
  10008728: 68 40 03 01 10     push        10010340h
  1000872D: E8 7E 91 FF FF     call        100018B0
  10008732: 83 65 E4 00        and         dword ptr [ebp-1Ch],0
  10008736: 6A 08              push        8
  10008738: E8 6D B9 FF FF     call        100040AA
  1000873D: 59                 pop         ecx
  1000873E: 83 65 FC 00        and         dword ptr [ebp-4],0
  10008742: 6A 03              push        3
  10008744: 5E                 pop         esi
  10008745: 89 75 E0           mov         dword ptr [ebp-20h],esi
  10008748: 3B 35 48 22 01 10  cmp         esi,dword ptr ds:[10012248h]
  1000874E: 74 59              je          100087A9
  10008750: A1 4C 22 01 10     mov         eax,dword ptr ds:[1001224Ch]
  10008755: 8B 04 B0           mov         eax,dword ptr [eax+esi*4]
  10008758: 85 C0              test        eax,eax
  1000875A: 74 4A              je          100087A6
  1000875C: 8B 40 0C           mov         eax,dword ptr [eax+0Ch]
  1000875F: 90                 nop
  10008760: C1 E8 0D           shr         eax,0Dh
  10008763: A8 01              test        al,1
  10008765: 74 16              je          1000877D
  10008767: A1 4C 22 01 10     mov         eax,dword ptr ds:[1001224Ch]
  1000876C: FF 34 B0           push        dword ptr [eax+esi*4]
  1000876F: E8 E7 06 00 00     call        10008E5B
  10008774: 59                 pop         ecx
  10008775: 83 F8 FF           cmp         eax,0FFFFFFFFh
  10008778: 74 03              je          1000877D
  1000877A: FF 45 E4           inc         dword ptr [ebp-1Ch]
  1000877D: A1 4C 22 01 10     mov         eax,dword ptr ds:[1001224Ch]
  10008782: 8B 04 B0           mov         eax,dword ptr [eax+esi*4]
  10008785: 83 C0 20           add         eax,20h
  10008788: 50                 push        eax
  10008789: FF 15 50 B0 00 10  call        dword ptr ds:[1000B050h]
  1000878F: A1 4C 22 01 10     mov         eax,dword ptr ds:[1001224Ch]
  10008794: FF 34 B0           push        dword ptr [eax+esi*4]
  10008797: E8 77 BC FF FF     call        10004413
  1000879C: 59                 pop         ecx
  1000879D: A1 4C 22 01 10     mov         eax,dword ptr ds:[1001224Ch]
  100087A2: 83 24 B0 00        and         dword ptr [eax+esi*4],0
  100087A6: 46                 inc         esi
  100087A7: EB 9C              jmp         10008745
  100087A9: C7 45 FC FE FF FF  mov         dword ptr [ebp-4],0FFFFFFFEh
            FF
  100087B0: E8 13 00 00 00     call        100087C8
  100087B5: 8B 45 E4           mov         eax,dword ptr [ebp-1Ch]
  100087B8: 8B 4D F0           mov         ecx,dword ptr [ebp-10h]
  100087BB: 64 89 0D 00 00 00  mov         dword ptr fs:[00000000h],ecx
            00
  100087C2: 59                 pop         ecx
  100087C3: 5F                 pop         edi
  100087C4: 5E                 pop         esi
  100087C5: 5B                 pop         ebx
  100087C6: C9                 leave
  100087C7: C3                 ret
  100087C8: 6A 08              push        8
  100087CA: E8 23 B9 FF FF     call        100040F2
  100087CF: 59                 pop         ecx
  100087D0: C3                 ret
  100087D1: 8B FF              mov         edi,edi
  100087D3: 55                 push        ebp
  100087D4: 8B EC              mov         ebp,esp
  100087D6: 56                 push        esi
  100087D7: 8B 75 08           mov         esi,dword ptr [ebp+8]
  100087DA: 57                 push        edi
  100087DB: 8D 7E 0C           lea         edi,[esi+0Ch]
  100087DE: 8B 07              mov         eax,dword ptr [edi]
  100087E0: 90                 nop
  100087E1: C1 E8 0D           shr         eax,0Dh
  100087E4: A8 01              test        al,1
  100087E6: 74 25              je          1000880D
  100087E8: 8B 07              mov         eax,dword ptr [edi]
  100087EA: 90                 nop
  100087EB: C1 E8 06           shr         eax,6
  100087EE: A8 01              test        al,1
  100087F0: 74 1B              je          1000880D
  100087F2: FF 76 04           push        dword ptr [esi+4]
  100087F5: E8 19 BC FF FF     call        10004413
  100087FA: 59                 pop         ecx
  100087FB: B8 BF FE FF FF     mov         eax,0FFFFFEBFh
  10008800: F0 21 07           lock and    dword ptr [edi],eax
  10008803: 33 C0              xor         eax,eax
  10008805: 89 46 04           mov         dword ptr [esi+4],eax
  10008808: 89 06              mov         dword ptr [esi],eax
  1000880A: 89 46 08           mov         dword ptr [esi+8],eax
  1000880D: 5F                 pop         edi
  1000880E: 5E                 pop         esi
  1000880F: 5D                 pop         ebp
  10008810: C3                 ret
  10008811: 8B FF              mov         edi,edi
  10008813: 55                 push        ebp
  10008814: 8B EC              mov         ebp,esp
  10008816: 8B 4D 08           mov         ecx,dword ptr [ebp+8]
  10008819: 83 F9 FE           cmp         ecx,0FFFFFFFEh
  1000881C: 75 0D              jne         1000882B
  1000881E: E8 80 BB FF FF     call        100043A3
  10008823: C7 00 09 00 00 00  mov         dword ptr [eax],9
  10008829: EB 38              jmp         10008863
  1000882B: 85 C9              test        ecx,ecx
  1000882D: 78 24              js          10008853
  1000882F: 3B 0D 28 22 01 10  cmp         ecx,dword ptr ds:[10012228h]
  10008835: 73 1C              jae         10008853
  10008837: 8B C1              mov         eax,ecx
  10008839: 83 E1 3F           and         ecx,3Fh
  1000883C: C1 F8 06           sar         eax,6
  1000883F: 6B C9 38           imul        ecx,ecx,38h
  10008842: 8B 04 85 28 20 01  mov         eax,dword ptr [eax*4+10012028h]
            10
  10008849: 0F B6 44 08 28     movzx       eax,byte ptr [eax+ecx+28h]
  1000884E: 83 E0 40           and         eax,40h
  10008851: 5D                 pop         ebp
  10008852: C3                 ret
  10008853: E8 4B BB FF FF     call        100043A3
  10008858: C7 00 09 00 00 00  mov         dword ptr [eax],9
  1000885E: E8 83 BA FF FF     call        100042E6
  10008863: 33 C0              xor         eax,eax
  10008865: 5D                 pop         ebp
  10008866: C3                 ret
  10008867: 8B FF              mov         edi,edi
  10008869: 55                 push        ebp
  1000886A: 8B EC              mov         ebp,esp
  1000886C: 83 EC 10           sub         esp,10h
  1000886F: FF 75 0C           push        dword ptr [ebp+0Ch]
  10008872: 8D 4D F0           lea         ecx,[ebp-10h]
  10008875: E8 C7 B0 FF FF     call        10003941
  1000887A: 8B 45 F4           mov         eax,dword ptr [ebp-0Ch]
  1000887D: 68 00 80 00 00     push        8000h
  10008882: FF 75 08           push        dword ptr [ebp+8]
  10008885: FF 30              push        dword ptr [eax]
  10008887: E8 38 B1 FF FF     call        100039C4
  1000888C: 83 C4 0C           add         esp,0Ch
  1000888F: 80 7D FC 00        cmp         byte ptr [ebp-4],0
  10008893: 74 0A              je          1000889F
  10008895: 8B 4D F0           mov         ecx,dword ptr [ebp-10h]
  10008898: 83 A1 50 03 00 00  and         dword ptr [ecx+00000350h],0FFFFFFFDh
            FD
  1000889F: C9                 leave
  100088A0: C3                 ret
  100088A1: 8B FF              mov         edi,edi
  100088A3: 55                 push        ebp
  100088A4: 8B EC              mov         ebp,esp
  100088A6: 8B 4D 08           mov         ecx,dword ptr [ebp+8]
  100088A9: 80 39 00           cmp         byte ptr [ecx],0
  100088AC: 75 05              jne         100088B3
  100088AE: 33 C0              xor         eax,eax
  100088B0: 40                 inc         eax
  100088B1: EB 16              jmp         100088C9
  100088B3: 80 79 01 00        cmp         byte ptr [ecx+1],0
  100088B7: 75 05              jne         100088BE
  100088B9: 6A 02              push        2
  100088BB: 58                 pop         eax
  100088BC: EB 0B              jmp         100088C9
  100088BE: 33 C0              xor         eax,eax
  100088C0: 38 41 02           cmp         byte ptr [ecx+2],al
  100088C3: 0F 95 C0           setne       al
  100088C6: 83 C0 03           add         eax,3
  100088C9: 5D                 pop         ebp
  100088CA: C2 04 00           ret         4
  100088CD: 8B FF              mov         edi,edi
  100088CF: 55                 push        ebp
  100088D0: 8B EC              mov         ebp,esp
  100088D2: 51                 push        ecx
  100088D3: FF 75 14           push        dword ptr [ebp+14h]
  100088D6: 8D 45 FC           lea         eax,[ebp-4]
  100088D9: FF 75 10           push        dword ptr [ebp+10h]
  100088DC: FF 75 0C           push        dword ptr [ebp+0Ch]
  100088DF: 50                 push        eax
  100088E0: E8 FA 05 00 00     call        10008EDF
  100088E5: 8B D0              mov         edx,eax
  100088E7: 83 C4 10           add         esp,10h
  100088EA: 83 FA 04           cmp         edx,4
  100088ED: 77 1A              ja          10008909
  100088EF: 8B 4D FC           mov         ecx,dword ptr [ebp-4]
  100088F2: 81 F9 FF FF 00 00  cmp         ecx,0FFFFh
  100088F8: 76 05              jbe         100088FF
  100088FA: B9 FD FF 00 00     mov         ecx,0FFFDh
  100088FF: 8B 45 08           mov         eax,dword ptr [ebp+8]
  10008902: 85 C0              test        eax,eax
  10008904: 74 03              je          10008909
  10008906: 66 89 08           mov         word ptr [eax],cx
  10008909: 8B C2              mov         eax,edx
  1000890B: C9                 leave
  1000890C: C3                 ret
  1000890D: 8B FF              mov         edi,edi
  1000890F: 55                 push        ebp
  10008910: 8B EC              mov         ebp,esp
  10008912: 51                 push        ecx
  10008913: 51                 push        ecx
  10008914: 83 7D 08 00        cmp         dword ptr [ebp+8],0
  10008918: 53                 push        ebx
  10008919: 56                 push        esi
  1000891A: 57                 push        edi
  1000891B: 8B 7D 0C           mov         edi,dword ptr [ebp+0Ch]
  1000891E: 8B 3F              mov         edi,dword ptr [edi]
  10008920: 0F 84 9C 00 00 00  je          100089C2
  10008926: 8B 5D 10           mov         ebx,dword ptr [ebp+10h]
  10008929: 8B 75 08           mov         esi,dword ptr [ebp+8]
  1000892C: 85 DB              test        ebx,ebx
  1000892E: 74 68              je          10008998
  10008930: 57                 push        edi
  10008931: 8D 4D FF           lea         ecx,[ebp-1]
  10008934: E8 68 FF FF FF     call        100088A1
  10008939: FF 75 14           push        dword ptr [ebp+14h]
  1000893C: 50                 push        eax
  1000893D: 8D 45 F8           lea         eax,[ebp-8]
  10008940: 57                 push        edi
  10008941: 50                 push        eax
  10008942: E8 98 05 00 00     call        10008EDF
  10008947: 8B D0              mov         edx,eax
  10008949: 83 C4 10           add         esp,10h
  1000894C: 83 FA FF           cmp         edx,0FFFFFFFFh
  1000894F: 74 5C              je          100089AD
  10008951: 85 D2              test        edx,edx
  10008953: 74 4F              je          100089A4
  10008955: 8B 4D F8           mov         ecx,dword ptr [ebp-8]
  10008958: 81 F9 FF FF 00 00  cmp         ecx,0FFFFh
  1000895E: 76 2B              jbe         1000898B
  10008960: 83 FB 01           cmp         ebx,1
  10008963: 76 33              jbe         10008998
  10008965: 81 E9 00 00 01 00  sub         ecx,10000h
  1000896B: 4B                 dec         ebx
  1000896C: 8B C1              mov         eax,ecx
  1000896E: 89 4D F8           mov         dword ptr [ebp-8],ecx
  10008971: C1 E8 0A           shr         eax,0Ah
  10008974: 81 E1 FF 03 00 00  and         ecx,3FFh
  1000897A: 0D 00 D8 00 00     or          eax,0D800h
  1000897F: 66 89 06           mov         word ptr [esi],ax
  10008982: 83 C6 02           add         esi,2
  10008985: 81 C9 00 DC 00 00  or          ecx,0DC00h
  1000898B: 66 89 0E           mov         word ptr [esi],cx
  1000898E: 03 FA              add         edi,edx
  10008990: 83 C6 02           add         esi,2
  10008993: 83 EB 01           sub         ebx,1
  10008996: 75 98              jne         10008930
  10008998: 8B 5D 0C           mov         ebx,dword ptr [ebp+0Ch]
  1000899B: 2B 75 08           sub         esi,dword ptr [ebp+8]
  1000899E: D1 FE              sar         esi,1
  100089A0: 89 3B              mov         dword ptr [ebx],edi
  100089A2: EB 59              jmp         100089FD
  100089A4: 33 FF              xor         edi,edi
  100089A6: 33 C0              xor         eax,eax
  100089A8: 66 89 06           mov         word ptr [esi],ax
  100089AB: EB EB              jmp         10008998
  100089AD: 8B 45 0C           mov         eax,dword ptr [ebp+0Ch]
  100089B0: 89 38              mov         dword ptr [eax],edi
  100089B2: E8 EC B9 FF FF     call        100043A3
  100089B7: C7 00 2A 00 00 00  mov         dword ptr [eax],2Ah
  100089BD: 83 C8 FF           or          eax,0FFFFFFFFh
  100089C0: EB 3D              jmp         100089FF
  100089C2: 33 DB              xor         ebx,ebx
  100089C4: EB 0D              jmp         100089D3
  100089C6: 85 F6              test        esi,esi
  100089C8: 74 3A              je          10008A04
  100089CA: 83 FE 04           cmp         esi,4
  100089CD: 75 01              jne         100089D0
  100089CF: 43                 inc         ebx
  100089D0: 03 FE              add         edi,esi
  100089D2: 43                 inc         ebx
  100089D3: 57                 push        edi
  100089D4: 8D 4D FF           lea         ecx,[ebp-1]
  100089D7: E8 C5 FE FF FF     call        100088A1
  100089DC: FF 75 14           push        dword ptr [ebp+14h]
  100089DF: 50                 push        eax
  100089E0: 57                 push        edi
  100089E1: 6A 00              push        0
  100089E3: E8 F7 04 00 00     call        10008EDF
  100089E8: 8B F0              mov         esi,eax
  100089EA: 83 C4 10           add         esp,10h
  100089ED: 83 FE FF           cmp         esi,0FFFFFFFFh
  100089F0: 75 D4              jne         100089C6
  100089F2: E8 AC B9 FF FF     call        100043A3
  100089F7: C7 00 2A 00 00 00  mov         dword ptr [eax],2Ah
  100089FD: 8B C6              mov         eax,esi
  100089FF: 5F                 pop         edi
  10008A00: 5E                 pop         esi
  10008A01: 5B                 pop         ebx
  10008A02: C9                 leave
  10008A03: C3                 ret
  10008A04: 8B C3              mov         eax,ebx
  10008A06: EB F7              jmp         100089FF
  10008A08: 8B FF              mov         edi,edi
  10008A0A: 55                 push        ebp
  10008A0B: 8B EC              mov         ebp,esp
  10008A0D: 8B 45 08           mov         eax,dword ptr [ebp+8]
  10008A10: 83 20 00           and         dword ptr [eax],0
  10008A13: 83 60 04 00        and         dword ptr [eax+4],0
  10008A17: E8 87 B9 FF FF     call        100043A3
  10008A1C: C7 00 2A 00 00 00  mov         dword ptr [eax],2Ah
  10008A22: 83 C8 FF           or          eax,0FFFFFFFFh
  10008A25: 5D                 pop         ebp
  10008A26: C3                 ret
  10008A27: 8B FF              mov         edi,edi
  10008A29: 55                 push        ebp
  10008A2A: 8B EC              mov         ebp,esp
  10008A2C: 56                 push        esi
  10008A2D: 8B 75 08           mov         esi,dword ptr [ebp+8]
  10008A30: 85 F6              test        esi,esi
  10008A32: 0F 84 EA 00 00 00  je          10008B22
  10008A38: 8B 46 0C           mov         eax,dword ptr [esi+0Ch]
  10008A3B: 3B 05 04 17 01 10  cmp         eax,dword ptr ds:[10011704h]
  10008A41: 74 07              je          10008A4A
  10008A43: 50                 push        eax
  10008A44: E8 CA B9 FF FF     call        10004413
  10008A49: 59                 pop         ecx
  10008A4A: 8B 46 10           mov         eax,dword ptr [esi+10h]
  10008A4D: 3B 05 08 17 01 10  cmp         eax,dword ptr ds:[10011708h]
  10008A53: 74 07              je          10008A5C
  10008A55: 50                 push        eax
  10008A56: E8 B8 B9 FF FF     call        10004413
  10008A5B: 59                 pop         ecx
  10008A5C: 8B 46 14           mov         eax,dword ptr [esi+14h]
  10008A5F: 3B 05 0C 17 01 10  cmp         eax,dword ptr ds:[1001170Ch]
  10008A65: 74 07              je          10008A6E
  10008A67: 50                 push        eax
  10008A68: E8 A6 B9 FF FF     call        10004413
  10008A6D: 59                 pop         ecx
  10008A6E: 8B 46 18           mov         eax,dword ptr [esi+18h]
  10008A71: 3B 05 10 17 01 10  cmp         eax,dword ptr ds:[10011710h]
  10008A77: 74 07              je          10008A80
  10008A79: 50                 push        eax
  10008A7A: E8 94 B9 FF FF     call        10004413
  10008A7F: 59                 pop         ecx
  10008A80: 8B 46 1C           mov         eax,dword ptr [esi+1Ch]
  10008A83: 3B 05 14 17 01 10  cmp         eax,dword ptr ds:[10011714h]
  10008A89: 74 07              je          10008A92
  10008A8B: 50                 push        eax
  10008A8C: E8 82 B9 FF FF     call        10004413
  10008A91: 59                 pop         ecx
  10008A92: 8B 46 20           mov         eax,dword ptr [esi+20h]
  10008A95: 3B 05 18 17 01 10  cmp         eax,dword ptr ds:[10011718h]
  10008A9B: 74 07              je          10008AA4
  10008A9D: 50                 push        eax
  10008A9E: E8 70 B9 FF FF     call        10004413
  10008AA3: 59                 pop         ecx
  10008AA4: 8B 46 24           mov         eax,dword ptr [esi+24h]
  10008AA7: 3B 05 1C 17 01 10  cmp         eax,dword ptr ds:[1001171Ch]
  10008AAD: 74 07              je          10008AB6
  10008AAF: 50                 push        eax
  10008AB0: E8 5E B9 FF FF     call        10004413
  10008AB5: 59                 pop         ecx
  10008AB6: 8B 46 38           mov         eax,dword ptr [esi+38h]
  10008AB9: 3B 05 30 17 01 10  cmp         eax,dword ptr ds:[10011730h]
  10008ABF: 74 07              je          10008AC8
  10008AC1: 50                 push        eax
  10008AC2: E8 4C B9 FF FF     call        10004413
  10008AC7: 59                 pop         ecx
  10008AC8: 8B 46 3C           mov         eax,dword ptr [esi+3Ch]
  10008ACB: 3B 05 34 17 01 10  cmp         eax,dword ptr ds:[10011734h]
  10008AD1: 74 07              je          10008ADA
  10008AD3: 50                 push        eax
  10008AD4: E8 3A B9 FF FF     call        10004413
  10008AD9: 59                 pop         ecx
  10008ADA: 8B 46 40           mov         eax,dword ptr [esi+40h]
  10008ADD: 3B 05 38 17 01 10  cmp         eax,dword ptr ds:[10011738h]
  10008AE3: 74 07              je          10008AEC
  10008AE5: 50                 push        eax
  10008AE6: E8 28 B9 FF FF     call        10004413
  10008AEB: 59                 pop         ecx
  10008AEC: 8B 46 44           mov         eax,dword ptr [esi+44h]
  10008AEF: 3B 05 3C 17 01 10  cmp         eax,dword ptr ds:[1001173Ch]
  10008AF5: 74 07              je          10008AFE
  10008AF7: 50                 push        eax
  10008AF8: E8 16 B9 FF FF     call        10004413
  10008AFD: 59                 pop         ecx
  10008AFE: 8B 46 48           mov         eax,dword ptr [esi+48h]
  10008B01: 3B 05 40 17 01 10  cmp         eax,dword ptr ds:[10011740h]
  10008B07: 74 07              je          10008B10
  10008B09: 50                 push        eax
  10008B0A: E8 04 B9 FF FF     call        10004413
  10008B0F: 59                 pop         ecx
  10008B10: 8B 46 4C           mov         eax,dword ptr [esi+4Ch]
  10008B13: 3B 05 44 17 01 10  cmp         eax,dword ptr ds:[10011744h]
  10008B19: 74 07              je          10008B22
  10008B1B: 50                 push        eax
  10008B1C: E8 F2 B8 FF FF     call        10004413
  10008B21: 59                 pop         ecx
  10008B22: 5E                 pop         esi
  10008B23: 5D                 pop         ebp
  10008B24: C3                 ret
  10008B25: 8B FF              mov         edi,edi
  10008B27: 55                 push        ebp
  10008B28: 8B EC              mov         ebp,esp
  10008B2A: 56                 push        esi
  10008B2B: 8B 75 08           mov         esi,dword ptr [ebp+8]
  10008B2E: 85 F6              test        esi,esi
  10008B30: 74 59              je          10008B8B
  10008B32: 8B 06              mov         eax,dword ptr [esi]
  10008B34: 3B 05 F8 16 01 10  cmp         eax,dword ptr ds:[100116F8h]
  10008B3A: 74 07              je          10008B43
  10008B3C: 50                 push        eax
  10008B3D: E8 D1 B8 FF FF     call        10004413
  10008B42: 59                 pop         ecx
  10008B43: 8B 46 04           mov         eax,dword ptr [esi+4]
  10008B46: 3B 05 FC 16 01 10  cmp         eax,dword ptr ds:[100116FCh]
  10008B4C: 74 07              je          10008B55
  10008B4E: 50                 push        eax
  10008B4F: E8 BF B8 FF FF     call        10004413
  10008B54: 59                 pop         ecx
  10008B55: 8B 46 08           mov         eax,dword ptr [esi+8]
  10008B58: 3B 05 00 17 01 10  cmp         eax,dword ptr ds:[10011700h]
  10008B5E: 74 07              je          10008B67
  10008B60: 50                 push        eax
  10008B61: E8 AD B8 FF FF     call        10004413
  10008B66: 59                 pop         ecx
  10008B67: 8B 46 30           mov         eax,dword ptr [esi+30h]
  10008B6A: 3B 05 28 17 01 10  cmp         eax,dword ptr ds:[10011728h]
  10008B70: 74 07              je          10008B79
  10008B72: 50                 push        eax
  10008B73: E8 9B B8 FF FF     call        10004413
  10008B78: 59                 pop         ecx
  10008B79: 8B 46 34           mov         eax,dword ptr [esi+34h]
  10008B7C: 3B 05 2C 17 01 10  cmp         eax,dword ptr ds:[1001172Ch]
  10008B82: 74 07              je          10008B8B
  10008B84: 50                 push        eax
  10008B85: E8 89 B8 FF FF     call        10004413
  10008B8A: 59                 pop         ecx
  10008B8B: 5E                 pop         esi
  10008B8C: 5D                 pop         ebp
  10008B8D: C3                 ret
  10008B8E: 8B FF              mov         edi,edi
  10008B90: 55                 push        ebp
  10008B91: 8B EC              mov         ebp,esp
  10008B93: 8B 4D 0C           mov         ecx,dword ptr [ebp+0Ch]
  10008B96: 53                 push        ebx
  10008B97: 56                 push        esi
  10008B98: 8B 75 08           mov         esi,dword ptr [ebp+8]
  10008B9B: 57                 push        edi
  10008B9C: 33 FF              xor         edi,edi
  10008B9E: 8D 04 8E           lea         eax,[esi+ecx*4]
  10008BA1: 81 E1 FF FF FF 3F  and         ecx,3FFFFFFFh
  10008BA7: 3B C6              cmp         eax,esi
  10008BA9: 1B DB              sbb         ebx,ebx
  10008BAB: F7 D3              not         ebx
  10008BAD: 23 D9              and         ebx,ecx
  10008BAF: 74 10              je          10008BC1
  10008BB1: FF 36              push        dword ptr [esi]
  10008BB3: E8 5B B8 FF FF     call        10004413
  10008BB8: 47                 inc         edi
  10008BB9: 8D 76 04           lea         esi,[esi+4]
  10008BBC: 59                 pop         ecx
  10008BBD: 3B FB              cmp         edi,ebx
  10008BBF: 75 F0              jne         10008BB1
  10008BC1: 5F                 pop         edi
  10008BC2: 5E                 pop         esi
  10008BC3: 5B                 pop         ebx
  10008BC4: 5D                 pop         ebp
  10008BC5: C3                 ret
  10008BC6: 8B FF              mov         edi,edi
  10008BC8: 55                 push        ebp
  10008BC9: 8B EC              mov         ebp,esp
  10008BCB: 56                 push        esi
  10008BCC: 8B 75 08           mov         esi,dword ptr [ebp+8]
  10008BCF: 85 F6              test        esi,esi
  10008BD1: 0F 84 D0 00 00 00  je          10008CA7
  10008BD7: 6A 07              push        7
  10008BD9: 56                 push        esi
  10008BDA: E8 AF FF FF FF     call        10008B8E
  10008BDF: 8D 46 1C           lea         eax,[esi+1Ch]
  10008BE2: 6A 07              push        7
  10008BE4: 50                 push        eax
  10008BE5: E8 A4 FF FF FF     call        10008B8E
  10008BEA: 8D 46 38           lea         eax,[esi+38h]
  10008BED: 6A 0C              push        0Ch
  10008BEF: 50                 push        eax
  10008BF0: E8 99 FF FF FF     call        10008B8E
  10008BF5: 8D 46 68           lea         eax,[esi+68h]
  10008BF8: 6A 0C              push        0Ch
  10008BFA: 50                 push        eax
  10008BFB: E8 8E FF FF FF     call        10008B8E
  10008C00: 8D 86 98 00 00 00  lea         eax,[esi+00000098h]
  10008C06: 6A 02              push        2
  10008C08: 50                 push        eax
  10008C09: E8 80 FF FF FF     call        10008B8E
  10008C0E: FF B6 A0 00 00 00  push        dword ptr [esi+000000A0h]
  10008C14: E8 FA B7 FF FF     call        10004413
  10008C19: FF B6 A4 00 00 00  push        dword ptr [esi+000000A4h]
  10008C1F: E8 EF B7 FF FF     call        10004413
  10008C24: FF B6 A8 00 00 00  push        dword ptr [esi+000000A8h]
  10008C2A: E8 E4 B7 FF FF     call        10004413
  10008C2F: 8D 86 B4 00 00 00  lea         eax,[esi+000000B4h]
  10008C35: 6A 07              push        7
  10008C37: 50                 push        eax
  10008C38: E8 51 FF FF FF     call        10008B8E
  10008C3D: 8D 86 D0 00 00 00  lea         eax,[esi+000000D0h]
  10008C43: 6A 07              push        7
  10008C45: 50                 push        eax
  10008C46: E8 43 FF FF FF     call        10008B8E
  10008C4B: 83 C4 44           add         esp,44h
  10008C4E: 8D 86 EC 00 00 00  lea         eax,[esi+000000ECh]
  10008C54: 6A 0C              push        0Ch
  10008C56: 50                 push        eax
  10008C57: E8 32 FF FF FF     call        10008B8E
  10008C5C: 8D 86 1C 01 00 00  lea         eax,[esi+0000011Ch]
  10008C62: 6A 0C              push        0Ch
  10008C64: 50                 push        eax
  10008C65: E8 24 FF FF FF     call        10008B8E
  10008C6A: 8D 86 4C 01 00 00  lea         eax,[esi+0000014Ch]
  10008C70: 6A 02              push        2
  10008C72: 50                 push        eax
  10008C73: E8 16 FF FF FF     call        10008B8E
  10008C78: FF B6 54 01 00 00  push        dword ptr [esi+00000154h]
  10008C7E: E8 90 B7 FF FF     call        10004413
  10008C83: FF B6 58 01 00 00  push        dword ptr [esi+00000158h]
  10008C89: E8 85 B7 FF FF     call        10004413
  10008C8E: FF B6 5C 01 00 00  push        dword ptr [esi+0000015Ch]
  10008C94: E8 7A B7 FF FF     call        10004413
  10008C99: FF B6 60 01 00 00  push        dword ptr [esi+00000160h]
  10008C9F: E8 6F B7 FF FF     call        10004413
  10008CA4: 83 C4 28           add         esp,28h
  10008CA7: 5E                 pop         esi
  10008CA8: 5D                 pop         ebp
  10008CA9: C3                 ret
  10008CAA: 8B FF              mov         edi,edi
  10008CAC: 55                 push        ebp
  10008CAD: 8B EC              mov         ebp,esp
  10008CAF: 8B 4D 08           mov         ecx,dword ptr [ebp+8]
  10008CB2: 33 C0              xor         eax,eax
  10008CB4: 38 01              cmp         byte ptr [ecx],al
  10008CB6: 74 0C              je          10008CC4
  10008CB8: 3B 45 0C           cmp         eax,dword ptr [ebp+0Ch]
  10008CBB: 74 07              je          10008CC4
  10008CBD: 40                 inc         eax
  10008CBE: 80 3C 08 00        cmp         byte ptr [eax+ecx],0
  10008CC2: 75 F4              jne         10008CB8
  10008CC4: 5D                 pop         ebp
  10008CC5: C3                 ret
  10008CC6: 8B FF              mov         edi,edi
  10008CC8: 55                 push        ebp
  10008CC9: 8B EC              mov         ebp,esp
  10008CCB: 8B 4D 10           mov         ecx,dword ptr [ebp+10h]
  10008CCE: 85 C9              test        ecx,ecx
  10008CD0: 75 04              jne         10008CD6
  10008CD2: 33 C0              xor         eax,eax
  10008CD4: 5D                 pop         ebp
  10008CD5: C3                 ret
  10008CD6: 53                 push        ebx
  10008CD7: 8B 5D 0C           mov         ebx,dword ptr [ebp+0Ch]
  10008CDA: 56                 push        esi
  10008CDB: 57                 push        edi
  10008CDC: 8B 7D 08           mov         edi,dword ptr [ebp+8]
  10008CDF: 0F B7 17           movzx       edx,word ptr [edi]
  10008CE2: 8D 42 BF           lea         eax,[edx-41h]
  10008CE5: 83 F8 19           cmp         eax,19h
  10008CE8: 77 03              ja          10008CED
  10008CEA: 83 C2 20           add         edx,20h
  10008CED: 0F B7 33           movzx       esi,word ptr [ebx]
  10008CF0: 83 C7 02           add         edi,2
  10008CF3: 8D 46 BF           lea         eax,[esi-41h]
  10008CF6: 83 F8 19           cmp         eax,19h
  10008CF9: 77 03              ja          10008CFE
  10008CFB: 83 C6 20           add         esi,20h
  10008CFE: 8B C2              mov         eax,edx
  10008D00: 83 C3 02           add         ebx,2
  10008D03: 2B C6              sub         eax,esi
  10008D05: 75 09              jne         10008D10
  10008D07: 85 D2              test        edx,edx
  10008D09: 74 05              je          10008D10
  10008D0B: 83 E9 01           sub         ecx,1
  10008D0E: 75 CF              jne         10008CDF
  10008D10: 5F                 pop         edi
  10008D11: 5E                 pop         esi
  10008D12: 5B                 pop         ebx
  10008D13: 5D                 pop         ebp
  10008D14: C3                 ret
  10008D15: A1 70 22 01 10     mov         eax,dword ptr ds:[10012270h]
  10008D1A: C3                 ret
  10008D1B: 8B FF              mov         edi,edi
  10008D1D: 55                 push        ebp
  10008D1E: 8B EC              mov         ebp,esp
  10008D20: 51                 push        ecx
  10008D21: 51                 push        ecx
  10008D22: 56                 push        esi
  10008D23: 8B 75 08           mov         esi,dword ptr [ebp+8]
  10008D26: 57                 push        edi
  10008D27: 56                 push        esi
  10008D28: E8 29 EE FF FF     call        10007B56
  10008D2D: 83 CF FF           or          edi,0FFFFFFFFh
  10008D30: 59                 pop         ecx
  10008D31: 3B C7              cmp         eax,edi
  10008D33: 75 11              jne         10008D46
  10008D35: E8 69 B6 FF FF     call        100043A3
  10008D3A: C7 00 09 00 00 00  mov         dword ptr [eax],9
  10008D40: 8B C7              mov         eax,edi
  10008D42: 8B D7              mov         edx,edi
  10008D44: EB 4D              jmp         10008D93
  10008D46: FF 75 14           push        dword ptr [ebp+14h]
  10008D49: 8D 4D F8           lea         ecx,[ebp-8]
  10008D4C: 51                 push        ecx
  10008D4D: FF 75 10           push        dword ptr [ebp+10h]
  10008D50: FF 75 0C           push        dword ptr [ebp+0Ch]
  10008D53: 50                 push        eax
  10008D54: FF 15 F0 B0 00 10  call        dword ptr ds:[1000B0F0h]
  10008D5A: 85 C0              test        eax,eax
  10008D5C: 75 0F              jne         10008D6D
  10008D5E: FF 15 40 B0 00 10  call        dword ptr ds:[1000B040h]
  10008D64: 50                 push        eax
  10008D65: E8 03 B6 FF FF     call        1000436D
  10008D6A: 59                 pop         ecx
  10008D6B: EB D3              jmp         10008D40
  10008D6D: 8B 45 F8           mov         eax,dword ptr [ebp-8]
  10008D70: 8B 55 FC           mov         edx,dword ptr [ebp-4]
  10008D73: 23 C2              and         eax,edx
  10008D75: 3B C7              cmp         eax,edi
  10008D77: 74 C7              je          10008D40
  10008D79: 8B 45 F8           mov         eax,dword ptr [ebp-8]
  10008D7C: 8B CE              mov         ecx,esi
  10008D7E: 83 E6 3F           and         esi,3Fh
  10008D81: C1 F9 06           sar         ecx,6
  10008D84: 6B F6 38           imul        esi,esi,38h
  10008D87: 8B 0C 8D 28 20 01  mov         ecx,dword ptr [ecx*4+10012028h]
            10
  10008D8E: 80 64 31 28 FD     and         byte ptr [ecx+esi+28h],0FDh
  10008D93: 5F                 pop         edi
  10008D94: 5E                 pop         esi
  10008D95: C9                 leave
  10008D96: C3                 ret
  10008D97: 8B FF              mov         edi,edi
  10008D99: 55                 push        ebp
  10008D9A: 8B EC              mov         ebp,esp
  10008D9C: FF 75 14           push        dword ptr [ebp+14h]
  10008D9F: FF 75 10           push        dword ptr [ebp+10h]
  10008DA2: FF 75 0C           push        dword ptr [ebp+0Ch]
  10008DA5: FF 75 08           push        dword ptr [ebp+8]
  10008DA8: E8 6E FF FF FF     call        10008D1B
  10008DAD: 83 C4 10           add         esp,10h
  10008DB0: 5D                 pop         ebp
  10008DB1: C3                 ret
  10008DB2: 8B FF              mov         edi,edi
  10008DB4: 55                 push        ebp
  10008DB5: 8B EC              mov         ebp,esp
  10008DB7: 51                 push        ecx
  10008DB8: E8 83 05 00 00     call        10009340
  10008DBD: 85 C0              test        eax,eax
  10008DBF: 74 1C              je          10008DDD
  10008DC1: 8D 45 FC           lea         eax,[ebp-4]
  10008DC4: 50                 push        eax
  10008DC5: 8D 45 08           lea         eax,[ebp+8]
  10008DC8: 6A 01              push        1
  10008DCA: 50                 push        eax
  10008DCB: E8 A6 05 00 00     call        10009376
  10008DD0: 83 C4 0C           add         esp,0Ch
  10008DD3: 85 C0              test        eax,eax
  10008DD5: 74 06              je          10008DDD
  10008DD7: 66 8B 45 08        mov         ax,word ptr [ebp+8]
  10008DDB: C9                 leave
  10008DDC: C3                 ret
  10008DDD: B8 FF FF 00 00     mov         eax,0FFFFh
  10008DE2: C9                 leave
  10008DE3: C3                 ret
  10008DE4: 8B FF              mov         edi,edi
  10008DE6: 55                 push        ebp
  10008DE7: 8B EC              mov         ebp,esp
  10008DE9: 56                 push        esi
  10008DEA: 8B 75 08           mov         esi,dword ptr [ebp+8]
  10008DED: 85 F6              test        esi,esi
  10008DEF: 75 15              jne         10008E06
  10008DF1: E8 AD B5 FF FF     call        100043A3
  10008DF6: C7 00 16 00 00 00  mov         dword ptr [eax],16h
  10008DFC: E8 E5 B4 FF FF     call        100042E6
  10008E01: 83 C8 FF           or          eax,0FFFFFFFFh
  10008E04: EB 52              jmp         10008E58
  10008E06: 8B 46 0C           mov         eax,dword ptr [esi+0Ch]
  10008E09: 57                 push        edi
  10008E0A: 83 CF FF           or          edi,0FFFFFFFFh
  10008E0D: 90                 nop
  10008E0E: C1 E8 0D           shr         eax,0Dh
  10008E11: A8 01              test        al,1
  10008E13: 74 39              je          10008E4E
  10008E15: 56                 push        esi
  10008E16: E8 7F D7 FF FF     call        1000659A
  10008E1B: 56                 push        esi
  10008E1C: 8B F8              mov         edi,eax
  10008E1E: E8 AE F9 FF FF     call        100087D1
  10008E23: 56                 push        esi
  10008E24: E8 67 DB FF FF     call        10006990
  10008E29: 50                 push        eax
  10008E2A: E8 28 06 00 00     call        10009457
  10008E2F: 83 C4 10           add         esp,10h
  10008E32: 85 C0              test        eax,eax
  10008E34: 79 05              jns         10008E3B
  10008E36: 83 CF FF           or          edi,0FFFFFFFFh
  10008E39: EB 13              jmp         10008E4E
  10008E3B: 83 7E 1C 00        cmp         dword ptr [esi+1Ch],0
  10008E3F: 74 0D              je          10008E4E
  10008E41: FF 76 1C           push        dword ptr [esi+1Ch]
  10008E44: E8 CA B5 FF FF     call        10004413
  10008E49: 83 66 1C 00        and         dword ptr [esi+1Ch],0
  10008E4D: 59                 pop         ecx
  10008E4E: 56                 push        esi
  10008E4F: E8 2C 07 00 00     call        10009580
  10008E54: 59                 pop         ecx
  10008E55: 8B C7              mov         eax,edi
  10008E57: 5F                 pop         edi
  10008E58: 5E                 pop         esi
  10008E59: 5D                 pop         ebp
  10008E5A: C3                 ret
  10008E5B: 6A 10              push        10h
  10008E5D: 68 60 03 01 10     push        10010360h
  10008E62: E8 49 8A FF FF     call        100018B0
  10008E67: 8B 75 08           mov         esi,dword ptr [ebp+8]
  10008E6A: 89 75 E0           mov         dword ptr [ebp-20h],esi
  10008E6D: 85 F6              test        esi,esi
  10008E6F: 75 15              jne         10008E86
  10008E71: E8 2D B5 FF FF     call        100043A3
  10008E76: C7 00 16 00 00 00  mov         dword ptr [eax],16h
  10008E7C: E8 65 B4 FF FF     call        100042E6
  10008E81: 83 C8 FF           or          eax,0FFFFFFFFh
  10008E84: EB 3C              jmp         10008EC2
  10008E86: 8B 46 0C           mov         eax,dword ptr [esi+0Ch]
  10008E89: 90                 nop
  10008E8A: C1 E8 0C           shr         eax,0Ch
  10008E8D: 56                 push        esi
  10008E8E: A8 01              test        al,1
  10008E90: 74 08              je          10008E9A
  10008E92: E8 E9 06 00 00     call        10009580
  10008E97: 59                 pop         ecx
  10008E98: EB E7              jmp         10008E81
  10008E9A: 83 65 E4 00        and         dword ptr [ebp-1Ch],0
  10008E9E: E8 C1 D8 FF FF     call        10006764
  10008EA3: 59                 pop         ecx
  10008EA4: 83 65 FC 00        and         dword ptr [ebp-4],0
  10008EA8: 56                 push        esi
  10008EA9: E8 36 FF FF FF     call        10008DE4
  10008EAE: 59                 pop         ecx
  10008EAF: 8B F0              mov         esi,eax
  10008EB1: 89 75 E4           mov         dword ptr [ebp-1Ch],esi
  10008EB4: C7 45 FC FE FF FF  mov         dword ptr [ebp-4],0FFFFFFFEh
            FF
  10008EBB: E8 15 00 00 00     call        10008ED5
  10008EC0: 8B C6              mov         eax,esi
  10008EC2: 8B 4D F0           mov         ecx,dword ptr [ebp-10h]
  10008EC5: 64 89 0D 00 00 00  mov         dword ptr fs:[00000000h],ecx
            00
  10008ECC: 59                 pop         ecx
  10008ECD: 5F                 pop         edi
  10008ECE: 5E                 pop         esi
  10008ECF: 5B                 pop         ebx
  10008ED0: C9                 leave
  10008ED1: C3                 ret
  10008ED2: 8B 75 E4           mov         esi,dword ptr [ebp-1Ch]
  10008ED5: FF 75 E0           push        dword ptr [ebp-20h]
  10008ED8: E8 9B D8 FF FF     call        10006778
  10008EDD: 59                 pop         ecx
  10008EDE: C3                 ret
  10008EDF: 8B FF              mov         edi,edi
  10008EE1: 55                 push        ebp
  10008EE2: 8B EC              mov         ebp,esp
  10008EE4: 83 EC 24           sub         esp,24h
  10008EE7: A1 10 10 01 10     mov         eax,dword ptr ds:[10011010h]
  10008EEC: 33 C5              xor         eax,ebp
  10008EEE: 89 45 FC           mov         dword ptr [ebp-4],eax
  10008EF1: 8B 4D 08           mov         ecx,dword ptr [ebp+8]
  10008EF4: 53                 push        ebx
  10008EF5: 8B 5D 0C           mov         ebx,dword ptr [ebp+0Ch]
  10008EF8: 56                 push        esi
  10008EF9: 8B 75 14           mov         esi,dword ptr [ebp+14h]
  10008EFC: 89 5D DC           mov         dword ptr [ebp-24h],ebx
  10008EFF: 57                 push        edi
  10008F00: 8B FB              mov         edi,ebx
  10008F02: 85 F6              test        esi,esi
  10008F04: 75 05              jne         10008F0B
  10008F06: BE 74 22 01 10     mov         esi,10012274h
  10008F0B: 33 D2              xor         edx,edx
  10008F0D: 42                 inc         edx
  10008F0E: 85 DB              test        ebx,ebx
  10008F10: 75 09              jne         10008F1B
  10008F12: BB 9E B5 00 10     mov         ebx,1000B59Eh
  10008F17: 8B C2              mov         eax,edx
  10008F19: EB 03              jmp         10008F1E
  10008F1B: 8B 45 10           mov         eax,dword ptr [ebp+10h]
  10008F1E: F7 DF              neg         edi
  10008F20: 89 45 E4           mov         dword ptr [ebp-1Ch],eax
  10008F23: 1B FF              sbb         edi,edi
  10008F25: 23 F9              and         edi,ecx
  10008F27: 85 C0              test        eax,eax
  10008F29: 75 08              jne         10008F33
  10008F2B: 6A FE              push        0FFFFFFFEh
  10008F2D: 58                 pop         eax
  10008F2E: E9 44 01 00 00     jmp         10009077
  10008F33: 33 C0              xor         eax,eax
  10008F35: 66 39 46 06        cmp         word ptr [esi+6],ax
  10008F39: 75 64              jne         10008F9F
  10008F3B: 8A 0B              mov         cl,byte ptr [ebx]
  10008F3D: 43                 inc         ebx
  10008F3E: 88 4D EE           mov         byte ptr [ebp-12h],cl
  10008F41: 84 C9              test        cl,cl
  10008F43: 78 15              js          10008F5A
  10008F45: 85 FF              test        edi,edi
  10008F47: 74 05              je          10008F4E
  10008F49: 0F B6 C1           movzx       eax,cl
  10008F4C: 89 07              mov         dword ptr [edi],eax
  10008F4E: 33 C0              xor         eax,eax
  10008F50: 84 C9              test        cl,cl
  10008F52: 0F 95 C0           setne       al
  10008F55: E9 1D 01 00 00     jmp         10009077
  10008F5A: 8A C1              mov         al,cl
  10008F5C: 24 E0              and         al,0E0h
  10008F5E: 3C C0              cmp         al,0C0h
  10008F60: 75 04              jne         10008F66
  10008F62: B0 02              mov         al,2
  10008F64: EB 1A              jmp         10008F80
  10008F66: 8A C1              mov         al,cl
  10008F68: 24 F0              and         al,0F0h
  10008F6A: 3C E0              cmp         al,0E0h
  10008F6C: 75 04              jne         10008F72
  10008F6E: B0 03              mov         al,3
  10008F70: EB 0E              jmp         10008F80
  10008F72: 8A C1              mov         al,cl
  10008F74: 24 F8              and         al,0F8h
  10008F76: 3C F0              cmp         al,0F0h
  10008F78: 0F 85 F2 00 00 00  jne         10009070
  10008F7E: B0 04              mov         al,4
  10008F80: 88 45 EF           mov         byte ptr [ebp-11h],al
  10008F83: 88 45 ED           mov         byte ptr [ebp-13h],al
  10008F86: 6A 07              push        7
  10008F88: 0F B6 C0           movzx       eax,al
  10008F8B: 59                 pop         ecx
  10008F8C: 2B C8              sub         ecx,eax
  10008F8E: 0F B6 45 EE        movzx       eax,byte ptr [ebp-12h]
  10008F92: 8A 6D ED           mov         ch,byte ptr [ebp-13h]
  10008F95: D3 E2              shl         edx,cl
  10008F97: 8A 4D EF           mov         cl,byte ptr [ebp-11h]
  10008F9A: 4A                 dec         edx
  10008F9B: 23 D0              and         edx,eax
  10008F9D: EB 25              jmp         10008FC4
  10008F9F: 8A 4E 04           mov         cl,byte ptr [esi+4]
  10008FA2: 8B 16              mov         edx,dword ptr [esi]
  10008FA4: 8A C1              mov         al,cl
  10008FA6: 8A 6E 06           mov         ch,byte ptr [esi+6]
  10008FA9: 2C 02              sub         al,2
  10008FAB: 3C 02              cmp         al,2
  10008FAD: 0F 87 BD 00 00 00  ja          10009070
  10008FB3: 80 FD 01           cmp         ch,1
  10008FB6: 0F 82 B4 00 00 00  jb          10009070
  10008FBC: 3A E9              cmp         ch,cl
  10008FBE: 0F 83 AC 00 00 00  jae         10009070
  10008FC4: 0F B6 C5           movzx       eax,ch
  10008FC7: 89 45 E0           mov         dword ptr [ebp-20h],eax
  10008FCA: 8B 45 E4           mov         eax,dword ptr [ebp-1Ch]
  10008FCD: 39 45 E0           cmp         dword ptr [ebp-20h],eax
  10008FD0: 73 06              jae         10008FD8
  10008FD2: 8B 45 E0           mov         eax,dword ptr [ebp-20h]
  10008FD5: 89 45 E4           mov         dword ptr [ebp-1Ch],eax
  10008FD8: 8B 45 DC           mov         eax,dword ptr [ebp-24h]
  10008FDB: 89 5D E8           mov         dword ptr [ebp-18h],ebx
  10008FDE: 29 45 E8           sub         dword ptr [ebp-18h],eax
  10008FE1: EB 19              jmp         10008FFC
  10008FE3: 8A 23              mov         ah,byte ptr [ebx]
  10008FE5: 43                 inc         ebx
  10008FE6: FF 45 E8           inc         dword ptr [ebp-18h]
  10008FE9: 8A C4              mov         al,ah
  10008FEB: 24 C0              and         al,0C0h
  10008FED: 3C 80              cmp         al,80h
  10008FEF: 75 7F              jne         10009070
  10008FF1: 0F B6 C4           movzx       eax,ah
  10008FF4: 83 E0 3F           and         eax,3Fh
  10008FF7: C1 E2 06           shl         edx,6
  10008FFA: 0B D0              or          edx,eax
  10008FFC: 8B 45 E4           mov         eax,dword ptr [ebp-1Ch]
  10008FFF: 39 45 E8           cmp         dword ptr [ebp-18h],eax
  10009002: 72 DF              jb          10008FE3
  10009004: 8B 5D E0           mov         ebx,dword ptr [ebp-20h]
  10009007: 3B C3              cmp         eax,ebx
  10009009: 73 18              jae         10009023
  1000900B: 2A 6D E4           sub         ch,byte ptr [ebp-1Ch]
  1000900E: 0F B6 C1           movzx       eax,cl
  10009011: 66 89 46 04        mov         word ptr [esi+4],ax
  10009015: 0F B6 C5           movzx       eax,ch
  10009018: 89 16              mov         dword ptr [esi],edx
  1000901A: 66 89 46 06        mov         word ptr [esi+6],ax
  1000901E: E9 08 FF FF FF     jmp         10008F2B
  10009023: 81 FA 00 D8 00 00  cmp         edx,0D800h
  10009029: 72 08              jb          10009033
  1000902B: 81 FA FF DF 00 00  cmp         edx,0DFFFh
  10009031: 76 3D              jbe         10009070
  10009033: 81 FA FF FF 10 00  cmp         edx,10FFFFh
  10009039: 77 35              ja          10009070
  1000903B: 0F B6 C1           movzx       eax,cl
  1000903E: C7 45 F0 80 00 00  mov         dword ptr [ebp-10h],80h
            00
  10009045: C7 45 F4 00 08 00  mov         dword ptr [ebp-0Ch],800h
            00
  1000904C: C7 45 F8 00 00 01  mov         dword ptr [ebp-8],10000h
            00
  10009053: 3B 54 85 E8        cmp         edx,dword ptr [ebp+eax*4-18h]
  10009057: 72 17              jb          10009070
  10009059: 85 FF              test        edi,edi
  1000905B: 74 02              je          1000905F
  1000905D: 89 17              mov         dword ptr [edi],edx
  1000905F: 83 26 00           and         dword ptr [esi],0
  10009062: 83 66 04 00        and         dword ptr [esi+4],0
  10009066: F7 DA              neg         edx
  10009068: 1B D2              sbb         edx,edx
  1000906A: 23 D3              and         edx,ebx
  1000906C: 8B C2              mov         eax,edx
  1000906E: EB 07              jmp         10009077
  10009070: 56                 push        esi
  10009071: E8 92 F9 FF FF     call        10008A08
  10009076: 59                 pop         ecx
  10009077: 8B 4D FC           mov         ecx,dword ptr [ebp-4]
  1000907A: 5F                 pop         edi
  1000907B: 5E                 pop         esi
  1000907C: 33 CD              xor         ecx,ebp
  1000907E: 5B                 pop         ebx
  1000907F: E8 58 8A FF FF     call        10001ADC
  10009084: C9                 leave
  10009085: C3                 ret
  10009086: CC                 int         3
  10009087: CC                 int         3
  10009088: CC                 int         3
  10009089: CC                 int         3
  1000908A: CC                 int         3
  1000908B: CC                 int         3
  1000908C: CC                 int         3
  1000908D: CC                 int         3
  1000908E: CC                 int         3
  1000908F: CC                 int         3
  10009090: 83 3D 90 22 01 10  cmp         dword ptr ds:[10012290h],0
            00
  10009097: 74 32              je          100090CB
  10009099: 83 EC 08           sub         esp,8
  1000909C: 0F AE 5C 24 04     stmxcsr     dword ptr [esp+4]
  100090A1: 8B 44 24 04        mov         eax,dword ptr [esp+4]
  100090A5: 25 80 7F 00 00     and         eax,7F80h
  100090AA: 3D 80 1F 00 00     cmp         eax,1F80h
  100090AF: 75 0F              jne         100090C0
  100090B1: D9 3C 24           fnstcw      word ptr [esp]
  100090B4: 66 8B 04 24        mov         ax,word ptr [esp]
  100090B8: 66 83 E0 7F        and         ax,7Fh
  100090BC: 66 83 F8 7F        cmp         ax,7Fh
  100090C0: 8D 64 24 08        lea         esp,[esp+8]
  100090C4: 75 05              jne         100090CB
  100090C6: E9 05 05 00 00     jmp         100095D0
  100090CB: 83 EC 0C           sub         esp,0Ch
  100090CE: DD 14 24           fst         qword ptr [esp]
  100090D1: E8 82 0C 00 00     call        10009D58
  100090D6: E8 0D 00 00 00     call        100090E8
  100090DB: 83 C4 0C           add         esp,0Ch
  100090DE: C3                 ret
  100090DF: 8D 54 24 04        lea         edx,[esp+4]
  100090E3: E8 2D 0C 00 00     call        10009D15
  100090E8: 52                 push        edx
  100090E9: 9B                 wait
  100090EA: D9 3C 24           fnstcw      word ptr [esp]
  100090ED: 74 4C              je          1000913B
  100090EF: 8B 44 24 0C        mov         eax,dword ptr [esp+0Ch]
  100090F3: 66 81 3C 24 7F 02  cmp         word ptr [esp],27Fh
  100090F9: 74 06              je          10009101
  100090FB: D9 2D 88 F1 00 10  fldcw       word ptr ds:[1000F188h]
  10009101: A9 00 00 F0 7F     test        eax,7FF00000h
  10009106: 74 5E              je          10009166
  10009108: A9 00 00 00 80     test        eax,80000000h
  1000910D: 75 41              jne         10009150
  1000910F: D9 EC              fldlg2
  10009111: D9 C9              fxch        st(1)
  10009113: D9 F1              fyl2x
  10009115: 83 3D 7C 22 01 10  cmp         dword ptr ds:[1001227Ch],0
            00
  1000911C: 0F 85 4C 0C 00 00  jne         10009D6E
  10009122: 8D 0D 70 EF 00 10  lea         ecx,ds:[1000EF70h]
  10009128: BA 1B 00 00 00     mov         edx,1Bh
  1000912D: E9 49 0C 00 00     jmp         10009D7B
  10009132: A9 00 00 00 80     test        eax,80000000h
  10009137: 75 17              jne         10009150
  10009139: EB D4              jmp         1000910F
  1000913B: A9 FF FF 0F 00     test        eax,0FFFFFh
  10009140: 75 1D              jne         1000915F
  10009142: 83 7C 24 08 00     cmp         dword ptr [esp+8],0
  10009147: 75 16              jne         1000915F
  10009149: 25 00 00 00 80     and         eax,80000000h
  1000914E: 74 C5              je          10009115
  10009150: DD D8              fstp        st(0)
  10009152: DB 2D 40 F1 00 10  fld         tbyte ptr ds:[1000F140h]
  10009158: B8 01 00 00 00     mov         eax,1
  1000915D: EB 22              jmp         10009181
  1000915F: E8 98 0B 00 00     call        10009CFC
  10009164: EB 1B              jmp         10009181
  10009166: A9 FF FF 0F 00     test        eax,0FFFFFh
  1000916B: 75 C5              jne         10009132
  1000916D: 83 7C 24 08 00     cmp         dword ptr [esp+8],0
  10009172: 75 BE              jne         10009132
  10009174: DD D8              fstp        st(0)
  10009176: DB 2D EA F0 00 10  fld         tbyte ptr ds:[1000F0EAh]
  1000917C: B8 02 00 00 00     mov         eax,2
  10009181: 83 3D 7C 22 01 10  cmp         dword ptr ds:[1001227Ch],0
            00
  10009188: 0F 85 E0 0B 00 00  jne         10009D6E
  1000918E: 8D 0D 70 EF 00 10  lea         ecx,ds:[1000EF70h]
  10009194: BA 1B 00 00 00     mov         edx,1Bh
  10009199: E8 D9 0C 00 00     call        10009E77
  1000919E: 5A                 pop         edx
  1000919F: C3                 ret
  100091A0: 83 3D 90 22 01 10  cmp         dword ptr ds:[10012290h],0
            00
  100091A7: 0F 84 FA 0E 00 00  je          1000A0A7
  100091AD: 83 EC 08           sub         esp,8
  100091B0: 0F AE 5C 24 04     stmxcsr     dword ptr [esp+4]
  100091B5: 8B 44 24 04        mov         eax,dword ptr [esp+4]
  100091B9: 25 80 7F 00 00     and         eax,7F80h
  100091BE: 3D 80 1F 00 00     cmp         eax,1F80h
  100091C3: 75 0F              jne         100091D4
  100091C5: D9 3C 24           fnstcw      word ptr [esp]
  100091C8: 66 8B 04 24        mov         ax,word ptr [esp]
  100091CC: 66 83 E0 7F        and         ax,7Fh
  100091D0: 66 83 F8 7F        cmp         ax,7Fh
  100091D4: 8D 64 24 08        lea         esp,[esp+8]
  100091D8: 0F 85 C9 0E 00 00  jne         1000A0A7
  100091DE: EB 00              jmp         100091E0
  100091E0: F3 0F 7E 44 24 04  movq        xmm0,mmword ptr [esp+4]
  100091E6: 66 0F 28 15 90 EF  movapd      xmm2,xmmword ptr ds:[1000EF90h]
            00 10
  100091EE: 66 0F 28 C8        movapd      xmm1,xmm0
  100091F2: 66 0F 28 F8        movapd      xmm7,xmm0
  100091F6: 66 0F 73 D0 34     psrlq       xmm0,34h
  100091FB: 66 0F 7E C0        movd        eax,xmm0
  100091FF: 66 0F 54 05 B0 EF  andpd       xmm0,xmmword ptr ds:[1000EFB0h]
            00 10
  10009207: 66 0F FA D0        psubd       xmm2,xmm0
  1000920B: 66 0F D3 CA        psrlq       xmm1,xmm2
  1000920F: A9 00 08 00 00     test        eax,800h
  10009214: 74 4C              je          10009262
  10009216: 3D FF 0B 00 00     cmp         eax,0BFFh
  1000921B: 7C 7D              jl          1000929A
  1000921D: 66 0F F3 CA        psllq       xmm1,xmm2
  10009221: 3D 32 0C 00 00     cmp         eax,0C32h
  10009226: 7F 0B              jg          10009233
  10009228: 66 0F D6 4C 24 04  movq        mmword ptr [esp+4],xmm1
  1000922E: DD 44 24 04        fld         qword ptr [esp+4]
  10009232: C3                 ret
  10009233: 66 0F 2E FF        ucomisd     xmm7,xmm7
  10009237: 7B 24              jnp         1000925D
  10009239: BA EC 03 00 00     mov         edx,3ECh
  1000923E: 83 EC 10           sub         esp,10h
  10009241: 89 54 24 0C        mov         dword ptr [esp+0Ch],edx
  10009245: 8B D4              mov         edx,esp
  10009247: 83 C2 14           add         edx,14h
  1000924A: 89 54 24 08        mov         dword ptr [esp+8],edx
  1000924E: 89 54 24 04        mov         dword ptr [esp+4],edx
  10009252: 89 14 24           mov         dword ptr [esp],edx
  10009255: E8 59 0C 00 00     call        10009EB3
  1000925A: 83 C4 10           add         esp,10h
  1000925D: DD 44 24 04        fld         qword ptr [esp+4]
  10009261: C3                 ret
  10009262: F3 0F 7E 44 24 04  movq        xmm0,mmword ptr [esp+4]
  10009268: 66 0F F3 CA        psllq       xmm1,xmm2
  1000926C: 66 0F 28 D8        movapd      xmm3,xmm0
  10009270: 66 0F C2 C1 06     cmpnlepd    xmm0,xmm1
  10009275: 3D FF 03 00 00     cmp         eax,3FFh
  1000927A: 7C 25              jl          100092A1
  1000927C: 3D 32 04 00 00     cmp         eax,432h
  10009281: 7F B0              jg          10009233
  10009283: 66 0F 54 05 80 EF  andpd       xmm0,xmmword ptr ds:[1000EF80h]
            00 10
  1000928B: F2 0F 58 C8        addsd       xmm1,xmm0
  1000928F: 66 0F D6 4C 24 04  movq        mmword ptr [esp+4],xmm1
  10009295: DD 44 24 04        fld         qword ptr [esp+4]
  10009299: C3                 ret
  1000929A: DD 05 C0 EF 00 10  fld         qword ptr ds:[1000EFC0h]
  100092A0: C3                 ret
  100092A1: 66 0F C2 1D A0 EF  cmpnlepd    xmm3,xmmword ptr ds:[1000EFA0h]
            00 10 06
  100092AA: 66 0F 54 1D 80 EF  andpd       xmm3,xmmword ptr ds:[1000EF80h]
            00 10
  100092B2: 66 0F D6 5C 24 04  movq        mmword ptr [esp+4],xmm3
  100092B8: DD 44 24 04        fld         qword ptr [esp+4]
  100092BC: C3                 ret
  100092BD: CC                 int         3
  100092BE: CC                 int         3
  100092BF: CC                 int         3
  100092C0: 55                 push        ebp
  100092C1: 8B EC              mov         ebp,esp
  100092C3: 57                 push        edi
  100092C4: 56                 push        esi
  100092C5: 53                 push        ebx
  100092C6: 8B 4D 10           mov         ecx,dword ptr [ebp+10h]
  100092C9: 0B C9              or          ecx,ecx
  100092CB: 74 4D              je          1000931A
  100092CD: 8B 75 08           mov         esi,dword ptr [ebp+8]
  100092D0: 8B 7D 0C           mov         edi,dword ptr [ebp+0Ch]
  100092D3: B7 41              mov         bh,41h
  100092D5: B3 5A              mov         bl,5Ah
  100092D7: B6 20              mov         dh,20h
  100092D9: 8D 49 00           lea         ecx,[ecx]
  100092DC: 8A 26              mov         ah,byte ptr [esi]
  100092DE: 0A E4              or          ah,ah
  100092E0: 8A 07              mov         al,byte ptr [edi]
  100092E2: 74 27              je          1000930B
  100092E4: 0A C0              or          al,al
  100092E6: 74 23              je          1000930B
  100092E8: 83 C6 01           add         esi,1
  100092EB: 83 C7 01           add         edi,1
  100092EE: 3A E7              cmp         ah,bh
  100092F0: 72 06              jb          100092F8
  100092F2: 3A E3              cmp         ah,bl
  100092F4: 77 02              ja          100092F8
  100092F6: 02 E6              add         ah,dh
  100092F8: 3A C7              cmp         al,bh
  100092FA: 72 06              jb          10009302
  100092FC: 3A C3              cmp         al,bl
  100092FE: 77 02              ja          10009302
  10009300: 02 C6              add         al,dh
  10009302: 3A E0              cmp         ah,al
  10009304: 75 0B              jne         10009311
  10009306: 83 E9 01           sub         ecx,1
  10009309: 75 D1              jne         100092DC
  1000930B: 33 C9              xor         ecx,ecx
  1000930D: 3A E0              cmp         ah,al
  1000930F: 74 09              je          1000931A
  10009311: B9 FF FF FF FF     mov         ecx,0FFFFFFFFh
  10009316: 72 02              jb          1000931A
  10009318: F7 D9              neg         ecx
  1000931A: 8B C1              mov         eax,ecx
  1000931C: 5B                 pop         ebx
  1000931D: 5E                 pop         esi
  1000931E: 5F                 pop         edi
  1000931F: C9                 leave
  10009320: C3                 ret
  10009321: 33 C0              xor         eax,eax
  10009323: 50                 push        eax
  10009324: 50                 push        eax
  10009325: 6A 03              push        3
  10009327: 50                 push        eax
  10009328: 6A 03              push        3
  1000932A: 68 00 00 00 40     push        40000000h
  1000932F: 68 C8 EF 00 10     push        1000EFC8h
  10009334: FF 15 F4 B0 00 10  call        dword ptr ds:[1000B0F4h]
  1000933A: A3 50 18 01 10     mov         dword ptr ds:[10011850h],eax
  1000933F: C3                 ret
  10009340: 8B 0D 50 18 01 10  mov         ecx,dword ptr ds:[10011850h]
  10009346: 83 F9 FE           cmp         ecx,0FFFFFFFEh
  10009349: 75 0B              jne         10009356
  1000934B: E8 D1 FF FF FF     call        10009321
  10009350: 8B 0D 50 18 01 10  mov         ecx,dword ptr ds:[10011850h]
  10009356: 33 C0              xor         eax,eax
  10009358: 83 F9 FF           cmp         ecx,0FFFFFFFFh
  1000935B: 0F 95 C0           setne       al
  1000935E: C3                 ret
  1000935F: A1 50 18 01 10     mov         eax,dword ptr ds:[10011850h]
  10009364: 83 F8 FF           cmp         eax,0FFFFFFFFh
  10009367: 74 0C              je          10009375
  10009369: 83 F8 FE           cmp         eax,0FFFFFFFEh
  1000936C: 74 07              je          10009375
  1000936E: 50                 push        eax
  1000936F: FF 15 F8 B0 00 10  call        dword ptr ds:[1000B0F8h]
  10009375: C3                 ret
  10009376: 8B FF              mov         edi,edi
  10009378: 55                 push        ebp
  10009379: 8B EC              mov         ebp,esp
  1000937B: 56                 push        esi
  1000937C: 6A 00              push        0
  1000937E: FF 75 10           push        dword ptr [ebp+10h]
  10009381: FF 75 0C           push        dword ptr [ebp+0Ch]
  10009384: FF 75 08           push        dword ptr [ebp+8]
  10009387: FF 35 50 18 01 10  push        dword ptr ds:[10011850h]
  1000938D: FF 15 34 B0 00 10  call        dword ptr ds:[1000B034h]
  10009393: 8B F0              mov         esi,eax
  10009395: 85 F6              test        esi,esi
  10009397: 75 2D              jne         100093C6
  10009399: FF 15 40 B0 00 10  call        dword ptr ds:[1000B040h]
  1000939F: 83 F8 06           cmp         eax,6
  100093A2: 75 22              jne         100093C6
  100093A4: E8 B6 FF FF FF     call        1000935F
  100093A9: E8 73 FF FF FF     call        10009321
  100093AE: 56                 push        esi
  100093AF: FF 75 10           push        dword ptr [ebp+10h]
  100093B2: FF 75 0C           push        dword ptr [ebp+0Ch]
  100093B5: FF 75 08           push        dword ptr [ebp+8]
  100093B8: FF 35 50 18 01 10  push        dword ptr ds:[10011850h]
  100093BE: FF 15 34 B0 00 10  call        dword ptr ds:[1000B034h]
  100093C4: 8B F0              mov         esi,eax
  100093C6: 8B C6              mov         eax,esi
  100093C8: 5E                 pop         esi
  100093C9: 5D                 pop         ebp
  100093CA: C3                 ret
  100093CB: 6A 0C              push        0Ch
  100093CD: 68 80 03 01 10     push        10010380h
  100093D2: E8 D9 84 FF FF     call        100018B0
  100093D7: 83 65 E4 00        and         dword ptr [ebp-1Ch],0
  100093DB: 8B 45 08           mov         eax,dword ptr [ebp+8]
  100093DE: FF 30              push        dword ptr [eax]
  100093E0: E8 9A E6 FF FF     call        10007A7F
  100093E5: 59                 pop         ecx
  100093E6: 83 65 FC 00        and         dword ptr [ebp-4],0
  100093EA: 8B 45 0C           mov         eax,dword ptr [ebp+0Ch]
  100093ED: 8B 00              mov         eax,dword ptr [eax]
  100093EF: 8B 30              mov         esi,dword ptr [eax]
  100093F1: 8B D6              mov         edx,esi
  100093F3: C1 FA 06           sar         edx,6
  100093F6: 8B C6              mov         eax,esi
  100093F8: 83 E0 3F           and         eax,3Fh
  100093FB: 6B C8 38           imul        ecx,eax,38h
  100093FE: 8B 04 95 28 20 01  mov         eax,dword ptr [edx*4+10012028h]
            10
  10009405: F6 44 08 28 01     test        byte ptr [eax+ecx+28h],1
  1000940A: 74 0B              je          10009417
  1000940C: 56                 push        esi
  1000940D: E8 D2 00 00 00     call        100094E4
  10009412: 59                 pop         ecx
  10009413: 8B F0              mov         esi,eax
  10009415: EB 0E              jmp         10009425
  10009417: E8 87 AF FF FF     call        100043A3
  1000941C: C7 00 09 00 00 00  mov         dword ptr [eax],9
  10009422: 83 CE FF           or          esi,0FFFFFFFFh
  10009425: 89 75 E4           mov         dword ptr [ebp-1Ch],esi
  10009428: C7 45 FC FE FF FF  mov         dword ptr [ebp-4],0FFFFFFFEh
            FF
  1000942F: E8 17 00 00 00     call        1000944B
  10009434: 8B C6              mov         eax,esi
  10009436: 8B 4D F0           mov         ecx,dword ptr [ebp-10h]
  10009439: 64 89 0D 00 00 00  mov         dword ptr fs:[00000000h],ecx
            00
  10009440: 59                 pop         ecx
  10009441: 5F                 pop         edi
  10009442: 5E                 pop         esi
  10009443: 5B                 pop         ebx
  10009444: C9                 leave
  10009445: C2 0C 00           ret         0Ch
  10009448: 8B 75 E4           mov         esi,dword ptr [ebp-1Ch]
  1000944B: 8B 45 10           mov         eax,dword ptr [ebp+10h]
  1000944E: FF 30              push        dword ptr [eax]
  10009450: E8 4D E6 FF FF     call        10007AA2
  10009455: 59                 pop         ecx
  10009456: C3                 ret
  10009457: 8B FF              mov         edi,edi
  10009459: 55                 push        ebp
  1000945A: 8B EC              mov         ebp,esp
  1000945C: 83 EC 10           sub         esp,10h
  1000945F: 56                 push        esi
  10009460: 8B 75 08           mov         esi,dword ptr [ebp+8]
  10009463: 83 FE FE           cmp         esi,0FFFFFFFEh
  10009466: 75 15              jne         1000947D
  10009468: E8 23 AF FF FF     call        10004390
  1000946D: 83 20 00           and         dword ptr [eax],0
  10009470: E8 2E AF FF FF     call        100043A3
  10009475: C7 00 09 00 00 00  mov         dword ptr [eax],9
  1000947B: EB 61              jmp         100094DE
  1000947D: 85 F6              test        esi,esi
  1000947F: 78 45              js          100094C6
  10009481: 3B 35 28 22 01 10  cmp         esi,dword ptr ds:[10012228h]
  10009487: 73 3D              jae         100094C6
  10009489: 8B C6              mov         eax,esi
  1000948B: 8B D6              mov         edx,esi
  1000948D: 83 E0 3F           and         eax,3Fh
  10009490: C1 FA 06           sar         edx,6
  10009493: 6B C8 38           imul        ecx,eax,38h
  10009496: 8B 04 95 28 20 01  mov         eax,dword ptr [edx*4+10012028h]
            10
  1000949D: F6 44 08 28 01     test        byte ptr [eax+ecx+28h],1
  100094A2: 74 22              je          100094C6
  100094A4: 8D 45 08           lea         eax,[ebp+8]
  100094A7: 89 75 F8           mov         dword ptr [ebp-8],esi
  100094AA: 89 45 F4           mov         dword ptr [ebp-0Ch],eax
  100094AD: 8D 4D FF           lea         ecx,[ebp-1]
  100094B0: 8D 45 F8           lea         eax,[ebp-8]
  100094B3: 89 75 F0           mov         dword ptr [ebp-10h],esi
  100094B6: 50                 push        eax
  100094B7: 8D 45 F4           lea         eax,[ebp-0Ch]
  100094BA: 50                 push        eax
  100094BB: 8D 45 F0           lea         eax,[ebp-10h]
  100094BE: 50                 push        eax
  100094BF: E8 07 FF FF FF     call        100093CB
  100094C4: EB 1B              jmp         100094E1
  100094C6: E8 C5 AE FF FF     call        10004390
  100094CB: 83 20 00           and         dword ptr [eax],0
  100094CE: E8 D0 AE FF FF     call        100043A3
  100094D3: C7 00 09 00 00 00  mov         dword ptr [eax],9
  100094D9: E8 08 AE FF FF     call        100042E6
  100094DE: 83 C8 FF           or          eax,0FFFFFFFFh
  100094E1: 5E                 pop         esi
  100094E2: C9                 leave
  100094E3: C3                 ret
  100094E4: 8B FF              mov         edi,edi
  100094E6: 55                 push        ebp
  100094E7: 8B EC              mov         ebp,esp
  100094E9: 56                 push        esi
  100094EA: 57                 push        edi
  100094EB: 8B 7D 08           mov         edi,dword ptr [ebp+8]
  100094EE: 57                 push        edi
  100094EF: E8 62 E6 FF FF     call        10007B56
  100094F4: 59                 pop         ecx
  100094F5: 83 F8 FF           cmp         eax,0FFFFFFFFh
  100094F8: 75 04              jne         100094FE
  100094FA: 33 F6              xor         esi,esi
  100094FC: EB 4E              jmp         1000954C
  100094FE: A1 28 20 01 10     mov         eax,dword ptr ds:[10012028h]
  10009503: 83 FF 01           cmp         edi,1
  10009506: 75 09              jne         10009511
  10009508: F6 80 98 00 00 00  test        byte ptr [eax+00000098h],1
            01
  1000950F: 75 0B              jne         1000951C
  10009511: 83 FF 02           cmp         edi,2
  10009514: 75 1C              jne         10009532
  10009516: F6 40 60 01        test        byte ptr [eax+60h],1
  1000951A: 74 16              je          10009532
  1000951C: 6A 02              push        2
  1000951E: E8 33 E6 FF FF     call        10007B56
  10009523: 6A 01              push        1
  10009525: 8B F0              mov         esi,eax
  10009527: E8 2A E6 FF FF     call        10007B56
  1000952C: 59                 pop         ecx
  1000952D: 59                 pop         ecx
  1000952E: 3B C6              cmp         eax,esi
  10009530: 74 C8              je          100094FA
  10009532: 57                 push        edi
  10009533: E8 1E E6 FF FF     call        10007B56
  10009538: 59                 pop         ecx
  10009539: 50                 push        eax
  1000953A: FF 15 F8 B0 00 10  call        dword ptr ds:[1000B0F8h]
  10009540: 85 C0              test        eax,eax
  10009542: 75 B6              jne         100094FA
  10009544: FF 15 40 B0 00 10  call        dword ptr ds:[1000B040h]
  1000954A: 8B F0              mov         esi,eax
  1000954C: 57                 push        edi
  1000954D: E8 73 E5 FF FF     call        10007AC5
  10009552: 59                 pop         ecx
  10009553: 8B CF              mov         ecx,edi
  10009555: 83 E7 3F           and         edi,3Fh
  10009558: C1 F9 06           sar         ecx,6
  1000955B: 6B D7 38           imul        edx,edi,38h
  1000955E: 8B 0C 8D 28 20 01  mov         ecx,dword ptr [ecx*4+10012028h]
            10
  10009565: C6 44 11 28 00     mov         byte ptr [ecx+edx+28h],0
  1000956A: 85 F6              test        esi,esi
  1000956C: 74 0C              je          1000957A
  1000956E: 56                 push        esi
  1000956F: E8 F9 AD FF FF     call        1000436D
  10009574: 59                 pop         ecx
  10009575: 83 C8 FF           or          eax,0FFFFFFFFh
  10009578: EB 02              jmp         1000957C
  1000957A: 33 C0              xor         eax,eax
  1000957C: 5F                 pop         edi
  1000957D: 5E                 pop         esi
  1000957E: 5D                 pop         ebp
  1000957F: C3                 ret
  10009580: 8B FF              mov         edi,edi
  10009582: 55                 push        ebp
  10009583: 8B EC              mov         ebp,esp
  10009585: 8B 45 08           mov         eax,dword ptr [ebp+8]
  10009588: 33 C9              xor         ecx,ecx
  1000958A: 89 08              mov         dword ptr [eax],ecx
  1000958C: 8B 45 08           mov         eax,dword ptr [ebp+8]
  1000958F: 89 48 04           mov         dword ptr [eax+4],ecx
  10009592: 8B 45 08           mov         eax,dword ptr [ebp+8]
  10009595: 89 48 08           mov         dword ptr [eax+8],ecx
  10009598: 8B 45 08           mov         eax,dword ptr [ebp+8]
  1000959B: 83 48 10 FF        or          dword ptr [eax+10h],0FFFFFFFFh
  1000959F: 8B 45 08           mov         eax,dword ptr [ebp+8]
  100095A2: 89 48 14           mov         dword ptr [eax+14h],ecx
  100095A5: 8B 45 08           mov         eax,dword ptr [ebp+8]
  100095A8: 89 48 18           mov         dword ptr [eax+18h],ecx
  100095AB: 8B 45 08           mov         eax,dword ptr [ebp+8]
  100095AE: 89 48 1C           mov         dword ptr [eax+1Ch],ecx
  100095B1: 8B 45 08           mov         eax,dword ptr [ebp+8]
  100095B4: 83 C0 0C           add         eax,0Ch
  100095B7: 87 08              xchg        ecx,dword ptr [eax]
  100095B9: 5D                 pop         ebp
  100095BA: C3                 ret
  100095BB: 6A 0A              push        0Ah
  100095BD: FF 15 24 B0 00 10  call        dword ptr ds:[1000B024h]
  100095C3: A3 90 22 01 10     mov         dword ptr ds:[10012290h],eax
  100095C8: 33 C0              xor         eax,eax
  100095CA: C3                 ret
  100095CB: CC                 int         3
  100095CC: CC                 int         3
  100095CD: CC                 int         3
  100095CE: CC                 int         3
  100095CF: CC                 int         3
  100095D0: 55                 push        ebp
  100095D1: 8B EC              mov         ebp,esp
  100095D3: 83 EC 08           sub         esp,8
  100095D6: 83 E4 F0           and         esp,0FFFFFFF0h
  100095D9: DD 1C 24           fstp        qword ptr [esp]
  100095DC: F3 0F 7E 04 24     movq        xmm0,mmword ptr [esp]
  100095E1: E8 08 00 00 00     call        100095EE
  100095E6: C9                 leave
  100095E7: C3                 ret
  100095E8: 66 0F 12 44 24 04  movlpd      xmm0,qword ptr [esp+4]
  100095EE: BA 00 00 00 00     mov         edx,0
  100095F3: 66 0F 28 E8        movapd      xmm5,xmm0
  100095F7: 66 0F 14 C0        unpcklpd    xmm0,xmm0
  100095FB: 66 0F 73 D5 34     psrlq       xmm5,34h
  10009600: 66 0F C5 CD 00     pextrw      ecx,xmm5,0
  10009605: 66 0F 28 0D E0 EF  movapd      xmm1,xmmword ptr ds:[1000EFE0h]
            00 10
  1000960D: 66 0F 28 15 F0 EF  movapd      xmm2,xmmword ptr ds:[1000EFF0h]
            00 10
  10009615: 66 0F 28 1D 50 F0  movapd      xmm3,xmmword ptr ds:[1000F050h]
            00 10
  1000961D: 66 0F 28 25 00 F0  movapd      xmm4,xmmword ptr ds:[1000F000h]
            00 10
  10009625: 66 0F 28 35 10 F0  movapd      xmm6,xmmword ptr ds:[1000F010h]
            00 10
  1000962D: 66 0F 54 C1        andpd       xmm0,xmm1
  10009631: 66 0F 56 C3        orpd        xmm0,xmm3
  10009635: 66 0F 58 E0        addpd       xmm4,xmm0
  10009639: 66 0F C5 C4 00     pextrw      eax,xmm4,0
  1000963E: 25 F0 07 00 00     and         eax,7F0h
  10009643: 66 0F 28 A0 20 F6  movapd      xmm4,xmmword ptr [eax+1000F620h]
            00 10
  1000964B: 66 0F 28 B8 10 F2  movapd      xmm7,xmmword ptr [eax+1000F210h]
            00 10
  10009653: 66 0F 54 F0        andpd       xmm6,xmm0
  10009657: 66 0F 5C C6        subpd       xmm0,xmm6
  1000965B: 66 0F 59 F4        mulpd       xmm6,xmm4
  1000965F: 66 0F 5C F2        subpd       xmm6,xmm2
  10009663: F2 0F 58 FE        addsd       xmm7,xmm6
  10009667: 66 0F 59 C4        mulpd       xmm0,xmm4
  1000966B: 66 0F 28 E0        movapd      xmm4,xmm0
  1000966F: 66 0F 58 C6        addpd       xmm0,xmm6
  10009673: 81 E1 FF 0F 00 00  and         ecx,0FFFh
  10009679: 83 E9 01           sub         ecx,1
  1000967C: 81 F9 FD 07 00 00  cmp         ecx,7FDh
  10009682: 0F 87 BE 00 00 00  ja          10009746
  10009688: 81 E9 FE 03 00 00  sub         ecx,3FEh
  1000968E: 03 CA              add         ecx,edx
  10009690: F2 0F 2A F1        cvtsi2sd    xmm6,ecx
  10009694: 66 0F 14 F6        unpcklpd    xmm6,xmm6
  10009698: C1 E1 0A           shl         ecx,0Ah
  1000969B: 03 C1              add         eax,ecx
  1000969D: B9 10 00 00 00     mov         ecx,10h
  100096A2: BA 00 00 00 00     mov         edx,0
  100096A7: 83 F8 00           cmp         eax,0
  100096AA: 0F 44 D1           cmove       edx,ecx
  100096AD: 66 0F 28 0D A0 F0  movapd      xmm1,xmmword ptr ds:[1000F0A0h]
            00 10
  100096B5: 66 0F 28 D8        movapd      xmm3,xmm0
  100096B9: 66 0F 28 15 B0 F0  movapd      xmm2,xmmword ptr ds:[1000F0B0h]
            00 10
  100096C1: 66 0F 59 C8        mulpd       xmm1,xmm0
  100096C5: 66 0F 59 DB        mulpd       xmm3,xmm3
  100096C9: 66 0F 58 CA        addpd       xmm1,xmm2
  100096CD: 66 0F 28 15 C0 F0  movapd      xmm2,xmmword ptr ds:[1000F0C0h]
            00 10
  100096D5: F2 0F 59 DB        mulsd       xmm3,xmm3
  100096D9: 66 0F 28 2D 20 F0  movapd      xmm5,xmmword ptr ds:[1000F020h]
            00 10
  100096E1: 66 0F 59 F5        mulpd       xmm6,xmm5
  100096E5: 66 0F 28 AA 30 F0  movapd      xmm5,xmmword ptr [edx+1000F030h]
            00 10
  100096ED: 66 0F 54 E5        andpd       xmm4,xmm5
  100096F1: 66 0F 58 FE        addpd       xmm7,xmm6
  100096F5: 66 0F 58 FC        addpd       xmm7,xmm4
  100096F9: 66 0F 59 C8        mulpd       xmm1,xmm0
  100096FD: F2 0F 59 D8        mulsd       xmm3,xmm0
  10009701: 66 0F 58 CA        addpd       xmm1,xmm2
  10009705: 66 0F 28 15 D0 F0  movapd      xmm2,xmmword ptr ds:[1000F0D0h]
            00 10
  1000970D: 66 0F 59 D0        mulpd       xmm2,xmm0
  10009711: 66 0F 28 F7        movapd      xmm6,xmm7
  10009715: 66 0F 15 F6        unpckhpd    xmm6,xmm6
  10009719: 66 0F 59 CB        mulpd       xmm1,xmm3
  1000971D: 83 EC 10           sub         esp,10h
  10009720: 66 0F 28 C1        movapd      xmm0,xmm1
  10009724: 66 0F 58 CA        addpd       xmm1,xmm2
  10009728: 66 0F 15 C0        unpckhpd    xmm0,xmm0
  1000972C: F2 0F 58 C1        addsd       xmm0,xmm1
  10009730: F2 0F 58 C6        addsd       xmm0,xmm6
  10009734: F2 0F 58 C7        addsd       xmm0,xmm7
  10009738: 66 0F 13 44 24 04  movlpd      qword ptr [esp+4],xmm0
  1000973E: DD 44 24 04        fld         qword ptr [esp+4]
  10009742: 83 C4 10           add         esp,10h
  10009745: C3                 ret
  10009746: 66 0F 12 44 24 04  movlpd      xmm0,qword ptr [esp+4]
  1000974C: 66 0F 28 0D 60 F0  movapd      xmm1,xmmword ptr ds:[1000F060h]
            00 10
  10009754: F2 0F C2 C8 00     cmpeqsd     xmm1,xmm0
  10009759: 66 0F C5 C1 00     pextrw      eax,xmm1,0
  1000975E: 83 F8 00           cmp         eax,0
  10009761: 77 48              ja          100097AB
  10009763: 83 F9 FF           cmp         ecx,0FFFFFFFFh
  10009766: 74 5E              je          100097C6
  10009768: 81 F9 FE 07 00 00  cmp         ecx,7FEh
  1000976E: 77 6C              ja          100097DC
  10009770: 66 0F 12 44 24 04  movlpd      xmm0,qword ptr [esp+4]
  10009776: 66 0F 28 0D E0 EF  movapd      xmm1,xmmword ptr ds:[1000EFE0h]
            00 10
  1000977E: 66 0F 28 15 50 F0  movapd      xmm2,xmmword ptr ds:[1000F050h]
            00 10
  10009786: 66 0F 54 C1        andpd       xmm0,xmm1
  1000978A: 66 0F 56 C2        orpd        xmm0,xmm2
  1000978E: F2 0F C2 D0 00     cmpeqsd     xmm2,xmm0
  10009793: 66 0F C5 C2 00     pextrw      eax,xmm2,0
  10009798: 83 F8 00           cmp         eax,0
  1000979B: 74 07              je          100097A4
  1000979D: DD 05 88 F0 00 10  fld         qword ptr ds:[1000F088h]
  100097A3: C3                 ret
  100097A4: BA E9 03 00 00     mov         edx,3E9h
  100097A9: EB 4F              jmp         100097FA
  100097AB: 66 0F 12 15 50 F0  movlpd      xmm2,qword ptr ds:[1000F050h]
            00 10
  100097B3: F2 0F 5E D0        divsd       xmm2,xmm0
  100097B7: 66 0F 12 0D 80 F0  movlpd      xmm1,qword ptr ds:[1000F080h]
            00 10
  100097BF: BA 08 00 00 00     mov         edx,8
  100097C4: EB 34              jmp         100097FA
  100097C6: 66 0F 12 0D 70 F0  movlpd      xmm1,qword ptr ds:[1000F070h]
            00 10
  100097CE: F2 0F 59 C1        mulsd       xmm0,xmm1
  100097D2: BA CC FF FF FF     mov         edx,0FFFFFFCCh
  100097D7: E9 17 FE FF FF     jmp         100095F3
  100097DC: 83 C1 01           add         ecx,1
  100097DF: 81 E1 FF 07 00 00  and         ecx,7FFh
  100097E5: 81 F9 FF 07 00 00  cmp         ecx,7FFh
  100097EB: 73 3A              jae         10009827
  100097ED: 66 0F 57 C9        xorpd       xmm1,xmm1
  100097F1: F2 0F 5E C9        divsd       xmm1,xmm1
  100097F5: BA 09 00 00 00     mov         edx,9
  100097FA: 83 EC 1C           sub         esp,1Ch
  100097FD: 66 0F 13 4C 24 10  movlpd      qword ptr [esp+10h],xmm1
  10009803: 89 54 24 0C        mov         dword ptr [esp+0Ch],edx
  10009807: 8B D4              mov         edx,esp
  10009809: 83 C2 10           add         edx,10h
  1000980C: 89 54 24 08        mov         dword ptr [esp+8],edx
  10009810: 83 C2 10           add         edx,10h
  10009813: 89 54 24 04        mov         dword ptr [esp+4],edx
  10009817: 89 14 24           mov         dword ptr [esp],edx
  1000981A: E8 94 06 00 00     call        10009EB3
  1000981F: DD 44 24 10        fld         qword ptr [esp+10h]
  10009823: 83 C4 1C           add         esp,1Ch
  10009826: C3                 ret
  10009827: 66 0F 12 54 24 04  movlpd      xmm2,qword ptr [esp+4]
  1000982D: 66 0F 12 44 24 04  movlpd      xmm0,qword ptr [esp+4]
  10009833: 66 0F 7E D0        movd        eax,xmm2
  10009837: 66 0F 73 D2 20     psrlq       xmm2,20h
  1000983C: 66 0F 7E D1        movd        ecx,xmm2
  10009840: 81 E1 FF FF 0F 00  and         ecx,0FFFFFh
  10009846: 0B C1              or          eax,ecx
  10009848: 83 F8 00           cmp         eax,0
  1000984B: 74 A0              je          100097ED
  1000984D: BA E9 03 00 00     mov         edx,3E9h
  10009852: EB A6              jmp         100097FA
  10009854: 8D A4 24 00 00 00  lea         esp,[esp+00000000h]
            00
  1000985B: EB 03              jmp         10009860
  1000985D: CC                 int         3
  1000985E: CC                 int         3
  1000985F: CC                 int         3
  10009860: C6 85 70 FF FF FF  mov         byte ptr [ebp+FFFFFF70h],0FEh
            FE
  10009867: 0A ED              or          ch,ch
  10009869: 75 4A              jne         100098B5
  1000986B: D9 C9              fxch        st(1)
  1000986D: D9 F1              fyl2x
  1000986F: EB 1C              jmp         1000988D
  10009871: 8D A4 24 00 00 00  lea         esp,[esp+00000000h]
            00
  10009878: 8D A4 24 00 00 00  lea         esp,[esp+00000000h]
            00
  1000987F: 90                 nop
  10009880: C6 85 70 FF FF FF  mov         byte ptr [ebp+FFFFFF70h],0FEh
            FE
  10009887: 32 ED              xor         ch,ch
  10009889: D9 EA              fldl2e
  1000988B: DE C9              fmulp       st(1),st
  1000988D: E8 2B 01 00 00     call        100099BD
  10009892: D9 E8              fld1
  10009894: DE C1              faddp       st(1),st
  10009896: F6 85 61 FF FF FF  test        byte ptr [ebp+FFFFFF61h],1
            01
  1000989D: 74 04              je          100098A3
  1000989F: D9 E8              fld1
  100098A1: DE F1              fdivrp      st(1),st
  100098A3: F6 C2 40           test        dl,40h
  100098A6: 75 02              jne         100098AA
  100098A8: D9 FD              fscale
  100098AA: 0A ED              or          ch,ch
  100098AC: 74 02              je          100098B0
  100098AE: D9 E0              fchs
  100098B0: E9 CF 02 00 00     jmp         10009B84
  100098B5: E8 46 01 00 00     call        10009A00
  100098BA: 0B C0              or          eax,eax
  100098BC: 74 14              je          100098D2
  100098BE: 32 ED              xor         ch,ch
  100098C0: 83 F8 02           cmp         eax,2
  100098C3: 74 02              je          100098C7
  100098C5: F6 D5              not         ch
  100098C7: D9 C9              fxch        st(1)
  100098C9: D9 E1              fabs
  100098CB: EB A0              jmp         1000986D
  100098CD: E9 EB 02 00 00     jmp         10009BBD
  100098D2: E9 A9 03 00 00     jmp         10009C80
  100098D7: DD D8              fstp        st(0)
  100098D9: DD D8              fstp        st(0)
  100098DB: DB 2D E0 F0 00 10  fld         tbyte ptr ds:[1000F0E0h]
  100098E1: C6 85 70 FF FF FF  mov         byte ptr [ebp+FFFFFF70h],2
            02
  100098E8: C3                 ret
  100098E9: D9 ED              fldln2
  100098EB: D9 C9              fxch        st(1)
  100098ED: D9 E4              ftst
  100098EF: 9B                 wait
  100098F0: DD BD 60 FF FF FF  fnstsw      word ptr [ebp+FFFFFF60h]
  100098F6: 9B                 wait
  100098F7: F6 85 61 FF FF FF  test        byte ptr [ebp+FFFFFF61h],41h
            41
  100098FE: 75 D2              jne         100098D2
  10009900: D9 F1              fyl2x
  10009902: C3                 ret
  10009903: C6 85 70 FF FF FF  mov         byte ptr [ebp+FFFFFF70h],2
            02
  1000990A: DD D8              fstp        st(0)
  1000990C: DB 2D EA F0 00 10  fld         tbyte ptr ds:[1000F0EAh]
  10009912: C3                 ret
  10009913: 0A C9              or          cl,cl
  10009915: 75 53              jne         1000996A
  10009917: C3                 ret
  10009918: D9 EC              fldlg2
  1000991A: EB 02              jmp         1000991E
  1000991C: D9 ED              fldln2
  1000991E: D9 C9              fxch        st(1)
  10009920: 0A C9              or          cl,cl
  10009922: 75 AE              jne         100098D2
  10009924: D9 F1              fyl2x
  10009926: C3                 ret
  10009927: E9 91 02 00 00     jmp         10009BBD
  1000992C: E8 CF 00 00 00     call        10009A00
  10009931: DD D8              fstp        st(0)
  10009933: DD D8              fstp        st(0)
  10009935: 0A C9              or          cl,cl
  10009937: 75 0E              jne         10009947
  10009939: D9 EE              fldz
  1000993B: 83 F8 01           cmp         eax,1
  1000993E: 75 06              jne         10009946
  10009940: 0A ED              or          ch,ch
  10009942: 74 02              je          10009946
  10009944: D9 E0              fchs
  10009946: C3                 ret
  10009947: C6 85 70 FF FF FF  mov         byte ptr [ebp+FFFFFF70h],2
            02
  1000994E: DB 2D E0 F0 00 10  fld         tbyte ptr ds:[1000F0E0h]
  10009954: 83 F8 01           cmp         eax,1
  10009957: 75 ED              jne         10009946
  10009959: 0A ED              or          ch,ch
  1000995B: 74 E9              je          10009946
  1000995D: D9 E0              fchs
  1000995F: EB E5              jmp         10009946
  10009961: DD D8              fstp        st(0)
  10009963: E9 42 02 00 00     jmp         10009BAA
  10009968: DD D8              fstp        st(0)
  1000996A: E9 13 03 00 00     jmp         10009C82
  1000996F: 58                 pop         eax
  10009970: D9 E4              ftst
  10009972: 9B                 wait
  10009973: DD BD 60 FF FF FF  fnstsw      word ptr [ebp+FFFFFF60h]
  10009979: 9B                 wait
  1000997A: F6 85 61 FF FF FF  test        byte ptr [ebp+FFFFFF61h],1
            01
  10009981: 75 0F              jne         10009992
  10009983: DD D8              fstp        st(0)
  10009985: DB 2D E0 F0 00 10  fld         tbyte ptr ds:[1000F0E0h]
  1000998B: 0A ED              or          ch,ch
  1000998D: 74 02              je          10009991
  1000998F: D9 E0              fchs
  10009991: C3                 ret
  10009992: C6 85 70 FF FF FF  mov         byte ptr [ebp+FFFFFF70h],4
            04
  10009999: E9 0C 02 00 00     jmp         10009BAA
  1000999E: DD D8              fstp        st(0)
  100099A0: DD D8              fstp        st(0)
  100099A2: DB 2D E0 F0 00 10  fld         tbyte ptr ds:[1000F0E0h]
  100099A8: C6 85 70 FF FF FF  mov         byte ptr [ebp+FFFFFF70h],3
            03
  100099AF: C3                 ret
  100099B0: 0A C9              or          cl,cl
  100099B2: 75 AF              jne         10009963
  100099B4: DD D8              fstp        st(0)
  100099B6: DB 2D E0 F0 00 10  fld         tbyte ptr ds:[1000F0E0h]
  100099BC: C3                 ret
  100099BD: D9 C0              fld         st(0)
  100099BF: D9 E1              fabs
  100099C1: DB 2D FE F0 00 10  fld         tbyte ptr ds:[1000F0FEh]
  100099C7: DE D9              fcompp
  100099C9: 9B                 wait
  100099CA: DD BD 60 FF FF FF  fnstsw      word ptr [ebp+FFFFFF60h]
  100099D0: 9B                 wait
  100099D1: F6 85 61 FF FF FF  test        byte ptr [ebp+FFFFFF61h],41h
            41
  100099D8: 75 95              jne         1000996F
  100099DA: D9 C0              fld         st(0)
  100099DC: D9 FC              frndint
  100099DE: D9 E4              ftst
  100099E0: 9B                 wait
  100099E1: DD BD 60 FF FF FF  fnstsw      word ptr [ebp+FFFFFF60h]
  100099E7: 9B                 wait
  100099E8: 8A 95 61 FF FF FF  mov         dl,byte ptr [ebp+FFFFFF61h]
  100099EE: D9 C9              fxch        st(1)
  100099F0: D8 E1              fsub        st,st(1)
  100099F2: D9 E4              ftst
  100099F4: 9B                 wait
  100099F5: DD BD 60 FF FF FF  fnstsw      word ptr [ebp+FFFFFF60h]
  100099FB: D9 E1              fabs
  100099FD: D9 F0              f2xm1
  100099FF: C3                 ret
  10009A00: D9 C0              fld         st(0)
  10009A02: D9 FC              frndint
  10009A04: D8 D9              fcomp       st(1)
  10009A06: 9B                 wait
  10009A07: DF E0              fnstsw      ax
  10009A09: 9E                 sahf
  10009A0A: 75 1A              jne         10009A26
  10009A0C: D9 C0              fld         st(0)
  10009A0E: DC 0D 12 F1 00 10  fmul        qword ptr ds:[1000F112h]
  10009A14: D9 C0              fld         st(0)
  10009A16: D9 FC              frndint
  10009A18: DE D9              fcompp
  10009A1A: 9B                 wait
  10009A1B: DF E0              fnstsw      ax
  10009A1D: 9E                 sahf
  10009A1E: 74 0D              je          10009A2D
  10009A20: B8 01 00 00 00     mov         eax,1
  10009A25: C3                 ret
  10009A26: B8 00 00 00 00     mov         eax,0
  10009A2B: EB F8              jmp         10009A25
  10009A2D: B8 02 00 00 00     mov         eax,2
  10009A32: EB F1              jmp         10009A25
  10009A34: 56                 push        esi
  10009A35: 83 EC 74           sub         esp,74h
  10009A38: 8B F4              mov         esi,esp
  10009A3A: 56                 push        esi
  10009A3B: 83 EC 08           sub         esp,8
  10009A3E: DD 1C 24           fstp        qword ptr [esp]
  10009A41: 83 EC 08           sub         esp,8
  10009A44: DD 1C 24           fstp        qword ptr [esp]
  10009A47: 9B                 wait
  10009A48: DD 76 08           fnsave      [esi+8]
  10009A4B: E8 18 08 00 00     call        1000A268
  10009A50: 83 C4 14           add         esp,14h
  10009A53: DD 66 08           frstor      [esi+8]
  10009A56: DD 06              fld         qword ptr [esi]
  10009A58: 83 C4 74           add         esp,74h
  10009A5B: 5E                 pop         esi
  10009A5C: 85 C0              test        eax,eax
  10009A5E: 74 05              je          10009A65
  10009A60: E9 2E 02 00 00     jmp         10009C93
  10009A65: C3                 ret
  10009A66: CC                 int         3
  10009A67: CC                 int         3
  10009A68: CC                 int         3
  10009A69: CC                 int         3
  10009A6A: CC                 int         3
  10009A6B: CC                 int         3
  10009A6C: CC                 int         3
  10009A6D: CC                 int         3
  10009A6E: CC                 int         3
  10009A6F: CC                 int         3
  10009A70: 80 7A 0E 05        cmp         byte ptr [edx+0Eh],5
  10009A74: 75 11              jne         10009A87
  10009A76: 66 8B 9D 5C FF FF  mov         bx,word ptr [ebp+FFFFFF5Ch]
            FF
  10009A7D: 80 CF 02           or          bh,2
  10009A80: 80 E7 FE           and         bh,0FEh
  10009A83: B3 3F              mov         bl,3Fh
  10009A85: EB 04              jmp         10009A8B
  10009A87: 66 BB 3F 13        mov         bx,133Fh
  10009A8B: 66 89 9D 5E FF FF  mov         word ptr [ebp+FFFFFF5Eh],bx
            FF
  10009A92: D9 AD 5E FF FF FF  fldcw       word ptr [ebp+FFFFFF5Eh]
  10009A98: BB 6E F1 00 10     mov         ebx,1000F16Eh
  10009A9D: D9 E5              fxam
  10009A9F: 89 95 6C FF FF FF  mov         dword ptr [ebp+FFFFFF6Ch],edx
  10009AA5: 9B                 wait
  10009AA6: DD BD 60 FF FF FF  fnstsw      word ptr [ebp+FFFFFF60h]
  10009AAC: C6 85 70 FF FF FF  mov         byte ptr [ebp+FFFFFF70h],0
            00
  10009AB3: 9B                 wait
  10009AB4: 8A 8D 61 FF FF FF  mov         cl,byte ptr [ebp+FFFFFF61h]
  10009ABA: D0 E1              shl         cl,1
  10009ABC: D0 F9              sar         cl,1
  10009ABE: D0 C1              rol         cl,1
  10009AC0: 8A C1              mov         al,cl
  10009AC2: 24 0F              and         al,0Fh
  10009AC4: D7                 xlat        byte ptr [ebx]
  10009AC5: 0F BE C0           movsx       eax,al
  10009AC8: 81 E1 04 04 00 00  and         ecx,404h
  10009ACE: 8B DA              mov         ebx,edx
  10009AD0: 03 D8              add         ebx,eax
  10009AD2: 83 C3 10           add         ebx,10h
  10009AD5: 50                 push        eax
  10009AD6: 52                 push        edx
  10009AD7: 51                 push        ecx
  10009AD8: 8B 0B              mov         ecx,dword ptr [ebx]
  10009ADA: FF 15 04 B1 00 10  call        dword ptr ds:[1000B104h]
  10009AE0: 59                 pop         ecx
  10009AE1: 5A                 pop         edx
  10009AE2: 58                 pop         eax
  10009AE3: FF 23              jmp         dword ptr [ebx]
  10009AE5: 80 7A 0E 05        cmp         byte ptr [edx+0Eh],5
  10009AE9: 75 11              jne         10009AFC
  10009AEB: 66 8B 9D 5C FF FF  mov         bx,word ptr [ebp+FFFFFF5Ch]
            FF
  10009AF2: 80 CF 02           or          bh,2
  10009AF5: 80 E7 FE           and         bh,0FEh
  10009AF8: B3 3F              mov         bl,3Fh
  10009AFA: EB 04              jmp         10009B00
  10009AFC: 66 BB 3F 13        mov         bx,133Fh
  10009B00: 66 89 9D 5E FF FF  mov         word ptr [ebp+FFFFFF5Eh],bx
            FF
  10009B07: D9 AD 5E FF FF FF  fldcw       word ptr [ebp+FFFFFF5Eh]
  10009B0D: BB 6E F1 00 10     mov         ebx,1000F16Eh
  10009B12: D9 E5              fxam
  10009B14: 89 95 6C FF FF FF  mov         dword ptr [ebp+FFFFFF6Ch],edx
  10009B1A: 9B                 wait
  10009B1B: DD BD 60 FF FF FF  fnstsw      word ptr [ebp+FFFFFF60h]
  10009B21: C6 85 70 FF FF FF  mov         byte ptr [ebp+FFFFFF70h],0
            00
  10009B28: D9 C9              fxch        st(1)
  10009B2A: 8A 8D 61 FF FF FF  mov         cl,byte ptr [ebp+FFFFFF61h]
  10009B30: D9 E5              fxam
  10009B32: 9B                 wait
  10009B33: DD BD 60 FF FF FF  fnstsw      word ptr [ebp+FFFFFF60h]
  10009B39: D9 C9              fxch        st(1)
  10009B3B: 8A AD 61 FF FF FF  mov         ch,byte ptr [ebp+FFFFFF61h]
  10009B41: D0 E5              shl         ch,1
  10009B43: D0 FD              sar         ch,1
  10009B45: D0 C5              rol         ch,1
  10009B47: 8A C5              mov         al,ch
  10009B49: 24 0F              and         al,0Fh
  10009B4B: D7                 xlat        byte ptr [ebx]
  10009B4C: 8A E0              mov         ah,al
  10009B4E: D0 E1              shl         cl,1
  10009B50: D0 F9              sar         cl,1
  10009B52: D0 C1              rol         cl,1
  10009B54: 8A C1              mov         al,cl
  10009B56: 24 0F              and         al,0Fh
  10009B58: D7                 xlat        byte ptr [ebx]
  10009B59: D0 E4              shl         ah,1
  10009B5B: D0 E4              shl         ah,1
  10009B5D: 0A C4              or          al,ah
  10009B5F: 0F BE C0           movsx       eax,al
  10009B62: 81 E1 04 04 00 00  and         ecx,404h
  10009B68: 8B DA              mov         ebx,edx
  10009B6A: 03 D8              add         ebx,eax
  10009B6C: 83 C3 10           add         ebx,10h
  10009B6F: 50                 push        eax
  10009B70: 52                 push        edx
  10009B71: 51                 push        ecx
  10009B72: 8B 0B              mov         ecx,dword ptr [ebx]
  10009B74: FF 15 04 B1 00 10  call        dword ptr ds:[1000B104h]
  10009B7A: 59                 pop         ecx
  10009B7B: 5A                 pop         edx
  10009B7C: 58                 pop         eax
  10009B7D: FF 23              jmp         dword ptr [ebx]
  10009B7F: E8 0F 01 00 00     call        10009C93
  10009B84: D9 C9              fxch        st(1)
  10009B86: 8D A4 24 00 00 00  lea         esp,[esp+00000000h]
            00
  10009B8D: 8D 49 00           lea         ecx,[ecx]
  10009B90: DD D8              fstp        st(0)
  10009B92: 8D A4 24 00 00 00  lea         esp,[esp+00000000h]
            00
  10009B99: 8D A4 24 00 00 00  lea         esp,[esp+00000000h]
            00
  10009BA0: C3                 ret
  10009BA1: E8 ED 00 00 00     call        10009C93
  10009BA6: EB E8              jmp         10009B90
  10009BA8: DD D8              fstp        st(0)
  10009BAA: DD D8              fstp        st(0)
  10009BAC: D9 EE              fldz
  10009BAE: C3                 ret
  10009BAF: 90                 nop
  10009BB0: DD D8              fstp        st(0)
  10009BB2: DD D8              fstp        st(0)
  10009BB4: D9 EE              fldz
  10009BB6: 84 ED              test        ch,ch
  10009BB8: 74 02              je          10009BBC
  10009BBA: D9 E0              fchs
  10009BBC: C3                 ret
  10009BBD: DD D8              fstp        st(0)
  10009BBF: 90                 nop
  10009BC0: DD D8              fstp        st(0)
  10009BC2: D9 E8              fld1
  10009BC4: C3                 ret
  10009BC5: 8D A4 24 00 00 00  lea         esp,[esp+00000000h]
            00
  10009BCC: 8D 64 24 00        lea         esp,[esp]
  10009BD0: DB BD 62 FF FF FF  fstp        tbyte ptr [ebp+FFFFFF62h]
  10009BD6: DB AD 62 FF FF FF  fld         tbyte ptr [ebp+FFFFFF62h]
  10009BDC: F6 85 69 FF FF FF  test        byte ptr [ebp+FFFFFF69h],40h
            40
  10009BE3: 74 08              je          10009BED
  10009BE5: C6 85 70 FF FF FF  mov         byte ptr [ebp+FFFFFF70h],0
            00
  10009BEC: C3                 ret
  10009BED: C6 85 70 FF FF FF  mov         byte ptr [ebp+FFFFFF70h],0
            00
  10009BF4: DC 05 5E F1 00 10  fadd        qword ptr ds:[1000F15Eh]
  10009BFA: C3                 ret
  10009BFB: EB 03              jmp         10009C00
  10009BFD: CC                 int         3
  10009BFE: CC                 int         3
  10009BFF: CC                 int         3
  10009C00: D9 C9              fxch        st(1)
  10009C02: 8D A4 24 00 00 00  lea         esp,[esp+00000000h]
            00
  10009C09: 8D A4 24 00 00 00  lea         esp,[esp+00000000h]
            00
  10009C10: DB BD 62 FF FF FF  fstp        tbyte ptr [ebp+FFFFFF62h]
  10009C16: DB AD 62 FF FF FF  fld         tbyte ptr [ebp+FFFFFF62h]
  10009C1C: F6 85 69 FF FF FF  test        byte ptr [ebp+FFFFFF69h],40h
            40
  10009C23: 74 09              je          10009C2E
  10009C25: C6 85 70 FF FF FF  mov         byte ptr [ebp+FFFFFF70h],0
            00
  10009C2C: EB 07              jmp         10009C35
  10009C2E: C6 85 70 FF FF FF  mov         byte ptr [ebp+FFFFFF70h],0
            00
  10009C35: DE C1              faddp       st(1),st
  10009C37: C3                 ret
  10009C38: 8D A4 24 00 00 00  lea         esp,[esp+00000000h]
            00
  10009C3F: 90                 nop
  10009C40: DB BD 62 FF FF FF  fstp        tbyte ptr [ebp+FFFFFF62h]
  10009C46: DB AD 62 FF FF FF  fld         tbyte ptr [ebp+FFFFFF62h]
  10009C4C: F6 85 69 FF FF FF  test        byte ptr [ebp+FFFFFF69h],40h
            40
  10009C53: 74 20              je          10009C75
  10009C55: D9 C9              fxch        st(1)
  10009C57: DB BD 62 FF FF FF  fstp        tbyte ptr [ebp+FFFFFF62h]
  10009C5D: DB AD 62 FF FF FF  fld         tbyte ptr [ebp+FFFFFF62h]
  10009C63: F6 85 69 FF FF FF  test        byte ptr [ebp+FFFFFF69h],40h
            40
  10009C6A: 74 09              je          10009C75
  10009C6C: C6 85 70 FF FF FF  mov         byte ptr [ebp+FFFFFF70h],0
            00
  10009C73: EB 07              jmp         10009C7C
  10009C75: C6 85 70 FF FF FF  mov         byte ptr [ebp+FFFFFF70h],1
            01
  10009C7C: DE C1              faddp       st(1),st
  10009C7E: C3                 ret
  10009C7F: 90                 nop
  10009C80: DD D8              fstp        st(0)
  10009C82: DD D8              fstp        st(0)
  10009C84: DB 2D 40 F1 00 10  fld         tbyte ptr ds:[1000F140h]
  10009C8A: 80 BD 70 FF FF FF  cmp         byte ptr [ebp+FFFFFF70h],0
            00
  10009C91: 7F 07              jg          10009C9A
  10009C93: C6 85 70 FF FF FF  mov         byte ptr [ebp+FFFFFF70h],1
            01
  10009C9A: 0A C9              or          cl,cl
  10009C9C: C3                 ret
  10009C9D: 8D 49 00           lea         ecx,[ecx]
  10009CA0: DD D8              fstp        st(0)
  10009CA2: DD D8              fstp        st(0)
  10009CA4: DB 2D 54 F1 00 10  fld         tbyte ptr ds:[1000F154h]
  10009CAA: 0A ED              or          ch,ch
  10009CAC: 74 02              je          10009CB0
  10009CAE: D9 E0              fchs
  10009CB0: 0A C9              or          cl,cl
  10009CB2: 74 08              je          10009CBC
  10009CB4: DD 05 66 F1 00 10  fld         qword ptr ds:[1000F166h]
  10009CBA: DE C9              fmulp       st(1),st
  10009CBC: C3                 ret
  10009CBD: 0A C9              or          cl,cl
  10009CBF: 74 02              je          10009CC3
  10009CC1: D9 E0              fchs
  10009CC3: C3                 ret
  10009CC4: CC                 int         3
  10009CC5: CC                 int         3
  10009CC6: CC                 int         3
  10009CC7: CC                 int         3
  10009CC8: CC                 int         3
  10009CC9: CC                 int         3
  10009CCA: CC                 int         3
  10009CCB: CC                 int         3
  10009CCC: CC                 int         3
  10009CCD: CC                 int         3
  10009CCE: CC                 int         3
  10009CCF: CC                 int         3
  10009CD0: D9 C0              fld         st(0)
  10009CD2: D9 FC              frndint
  10009CD4: DC E1              fsubr       st(1),st
  10009CD6: D9 C9              fxch        st(1)
  10009CD8: D9 E0              fchs
  10009CDA: D9 F0              f2xm1
  10009CDC: D9 E8              fld1
  10009CDE: DE C1              faddp       st(1),st
  10009CE0: D9 FD              fscale
  10009CE2: DD D9              fstp        st(1)
  10009CE4: C3                 ret
  10009CE5: 8B 54 24 04        mov         edx,dword ptr [esp+4]
  10009CE9: 81 E2 00 03 00 00  and         edx,300h
  10009CEF: 83 CA 7F           or          edx,7Fh
  10009CF2: 66 89 54 24 06     mov         word ptr [esp+6],dx
  10009CF7: D9 6C 24 06        fldcw       word ptr [esp+6]
  10009CFB: C3                 ret
  10009CFC: A9 00 00 08 00     test        eax,80000h
  10009D01: 74 06              je          10009D09
  10009D03: B8 00 00 00 00     mov         eax,0
  10009D08: C3                 ret
  10009D09: DC 05 80 F1 00 10  fadd        qword ptr ds:[1000F180h]
  10009D0F: B8 00 00 00 00     mov         eax,0
  10009D14: C3                 ret
  10009D15: 8B 42 04           mov         eax,dword ptr [edx+4]
  10009D18: 25 00 00 F0 7F     and         eax,7FF00000h
  10009D1D: 3D 00 00 F0 7F     cmp         eax,7FF00000h
  10009D22: 74 03              je          10009D27
  10009D24: DD 02              fld         qword ptr [edx]
  10009D26: C3                 ret
  10009D27: 8B 42 04           mov         eax,dword ptr [edx+4]
  10009D2A: 83 EC 0A           sub         esp,0Ah
  10009D2D: 0D 00 00 FF 7F     or          eax,7FFF0000h
  10009D32: 89 44 24 06        mov         dword ptr [esp+6],eax
  10009D36: 8B 42 04           mov         eax,dword ptr [edx+4]
  10009D39: 8B 0A              mov         ecx,dword ptr [edx]
  10009D3B: 0F A4 C8 0B        shld        eax,ecx,0Bh
  10009D3F: C1 E1 0B           shl         ecx,0Bh
  10009D42: 89 44 24 04        mov         dword ptr [esp+4],eax
  10009D46: 89 0C 24           mov         dword ptr [esp],ecx
  10009D49: DB 2C 24           fld         tbyte ptr [esp]
  10009D4C: 83 C4 0A           add         esp,0Ah
  10009D4F: A9 00 00 00 00     test        eax,0
  10009D54: 8B 42 04           mov         eax,dword ptr [edx+4]
  10009D57: C3                 ret
  10009D58: 8B 44 24 08        mov         eax,dword ptr [esp+8]
  10009D5C: 25 00 00 F0 7F     and         eax,7FF00000h
  10009D61: 3D 00 00 F0 7F     cmp         eax,7FF00000h
  10009D66: 74 01              je          10009D69
  10009D68: C3                 ret
  10009D69: 8B 44 24 08        mov         eax,dword ptr [esp+8]
  10009D6D: C3                 ret
  10009D6E: 66 81 3C 24 7F 02  cmp         word ptr [esp],27Fh
  10009D74: 74 03              je          10009D79
  10009D76: D9 2C 24           fldcw       word ptr [esp]
  10009D79: 5A                 pop         edx
  10009D7A: C3                 ret
  10009D7B: 66 8B 04 24        mov         ax,word ptr [esp]
  10009D7F: 66 3D 7F 02        cmp         ax,27Fh
  10009D83: 74 1E              je          10009DA3
  10009D85: 66 83 E0 20        and         ax,20h
  10009D89: 74 15              je          10009DA0
  10009D8B: 9B                 wait
  10009D8C: DF E0              fnstsw      ax
  10009D8E: 66 83 E0 20        and         ax,20h
  10009D92: 74 0C              je          10009DA0
  10009D94: B8 08 00 00 00     mov         eax,8
  10009D99: E8 D9 00 00 00     call        10009E77
  10009D9E: 5A                 pop         edx
  10009D9F: C3                 ret
  10009DA0: D9 2C 24           fldcw       word ptr [esp]
  10009DA3: 5A                 pop         edx
  10009DA4: C3                 ret
  10009DA5: 83 EC 08           sub         esp,8
  10009DA8: DD 14 24           fst         qword ptr [esp]
  10009DAB: 8B 44 24 04        mov         eax,dword ptr [esp+4]
  10009DAF: 83 C4 08           add         esp,8
  10009DB2: 25 00 00 F0 7F     and         eax,7FF00000h
  10009DB7: EB 14              jmp         10009DCD
  10009DB9: 83 EC 08           sub         esp,8
  10009DBC: DD 14 24           fst         qword ptr [esp]
  10009DBF: 8B 44 24 04        mov         eax,dword ptr [esp+4]
  10009DC3: 83 C4 08           add         esp,8
  10009DC6: 25 00 00 F0 7F     and         eax,7FF00000h
  10009DCB: 74 3D              je          10009E0A
  10009DCD: 3D 00 00 F0 7F     cmp         eax,7FF00000h
  10009DD2: 74 5F              je          10009E33
  10009DD4: 66 8B 04 24        mov         ax,word ptr [esp]
  10009DD8: 66 3D 7F 02        cmp         ax,27Fh
  10009DDC: 74 2A              je          10009E08
  10009DDE: 66 83 E0 20        and         ax,20h
  10009DE2: 75 21              jne         10009E05
  10009DE4: 9B                 wait
  10009DE5: DF E0              fnstsw      ax
  10009DE7: 66 83 E0 20        and         ax,20h
  10009DEB: 74 18              je          10009E05
  10009DED: B8 08 00 00 00     mov         eax,8
  10009DF2: 83 FA 1D           cmp         edx,1Dh
  10009DF5: 74 07              je          10009DFE
  10009DF7: E8 7B 00 00 00     call        10009E77
  10009DFC: 5A                 pop         edx
  10009DFD: C3                 ret
  10009DFE: E8 5D 00 00 00     call        10009E60
  10009E03: 5A                 pop         edx
  10009E04: C3                 ret
  10009E05: D9 2C 24           fldcw       word ptr [esp]
  10009E08: 5A                 pop         edx
  10009E09: C3                 ret
  10009E0A: DD 05 AC F1 00 10  fld         qword ptr ds:[1000F1ACh]
  10009E10: D9 C9              fxch        st(1)
  10009E12: D9 FD              fscale
  10009E14: DD D9              fstp        st(1)
  10009E16: D9 C0              fld         st(0)
  10009E18: D9 E1              fabs
  10009E1A: DC 1D 9C F1 00 10  fcomp       qword ptr ds:[1000F19Ch]
  10009E20: 9B                 wait
  10009E21: DF E0              fnstsw      ax
  10009E23: 9E                 sahf
  10009E24: B8 04 00 00 00     mov         eax,4
  10009E29: 73 C7              jae         10009DF2
  10009E2B: DC 0D BC F1 00 10  fmul        qword ptr ds:[1000F1BCh]
  10009E31: EB BF              jmp         10009DF2
  10009E33: DD 05 A4 F1 00 10  fld         qword ptr ds:[1000F1A4h]
  10009E39: D9 C9              fxch        st(1)
  10009E3B: D9 FD              fscale
  10009E3D: DD D9              fstp        st(1)
  10009E3F: D9 C0              fld         st(0)
  10009E41: D9 E1              fabs
  10009E43: DC 1D 94 F1 00 10  fcomp       qword ptr ds:[1000F194h]
  10009E49: 9B                 wait
  10009E4A: DF E0              fnstsw      ax
  10009E4C: 9E                 sahf
  10009E4D: B8 03 00 00 00     mov         eax,3
  10009E52: 76 9E              jbe         10009DF2
  10009E54: DC 0D B4 F1 00 10  fmul        qword ptr ds:[1000F1B4h]
  10009E5A: EB 96              jmp         10009DF2
  10009E5C: CC                 int         3
  10009E5D: CC                 int         3
  10009E5E: CC                 int         3
  10009E5F: CC                 int         3
  10009E60: 55                 push        ebp
  10009E61: 8B EC              mov         ebp,esp
  10009E63: 83 C4 E0           add         esp,0FFFFFFE0h
  10009E66: 89 45 E0           mov         dword ptr [ebp-20h],eax
  10009E69: 8B 45 18           mov         eax,dword ptr [ebp+18h]
  10009E6C: 89 45 F0           mov         dword ptr [ebp-10h],eax
  10009E6F: 8B 45 1C           mov         eax,dword ptr [ebp+1Ch]
  10009E72: 89 45 F4           mov         dword ptr [ebp-0Ch],eax
  10009E75: EB 09              jmp         10009E80
  10009E77: 55                 push        ebp
  10009E78: 8B EC              mov         ebp,esp
  10009E7A: 83 C4 E0           add         esp,0FFFFFFE0h
  10009E7D: 89 45 E0           mov         dword ptr [ebp-20h],eax
  10009E80: DD 5D F8           fstp        qword ptr [ebp-8]
  10009E83: 89 4D E4           mov         dword ptr [ebp-1Ch],ecx
  10009E86: 8B 45 10           mov         eax,dword ptr [ebp+10h]
  10009E89: 8B 4D 14           mov         ecx,dword ptr [ebp+14h]
  10009E8C: 89 45 E8           mov         dword ptr [ebp-18h],eax
  10009E8F: 89 4D EC           mov         dword ptr [ebp-14h],ecx
  10009E92: 8D 45 08           lea         eax,[ebp+8]
  10009E95: 8D 4D E0           lea         ecx,[ebp-20h]
  10009E98: 50                 push        eax
  10009E99: 51                 push        ecx
  10009E9A: 52                 push        edx
  10009E9B: E8 F3 04 00 00     call        1000A393
  10009EA0: 83 C4 0C           add         esp,0Ch
  10009EA3: DD 45 F8           fld         qword ptr [ebp-8]
  10009EA6: 66 81 7D 08 7F 02  cmp         word ptr [ebp+8],27Fh
  10009EAC: 74 03              je          10009EB1
  10009EAE: D9 6D 08           fldcw       word ptr [ebp+8]
  10009EB1: C9                 leave
  10009EB2: C3                 ret
  10009EB3: 8B FF              mov         edi,edi
  10009EB5: 55                 push        ebp
  10009EB6: 8B EC              mov         ebp,esp
  10009EB8: 83 EC 20           sub         esp,20h
  10009EBB: 83 3D 80 22 01 10  cmp         dword ptr ds:[10012280h],0
            00
  10009EC2: 56                 push        esi
  10009EC3: 57                 push        edi
  10009EC4: 74 10              je          10009ED6
  10009EC6: FF 35 8C 22 01 10  push        dword ptr ds:[1001228Ch]
  10009ECC: FF 15 FC B0 00 10  call        dword ptr ds:[1000B0FCh]
  10009ED2: 8B F8              mov         edi,eax
  10009ED4: EB 05              jmp         10009EDB
  10009ED6: BF 8B 63 00 10     mov         edi,1000638Bh
  10009EDB: 8B 45 14           mov         eax,dword ptr [ebp+14h]
  10009EDE: 83 F8 1A           cmp         eax,1Ah
  10009EE1: 0F 8F DE 00 00 00  jg          10009FC5
  10009EE7: 0F 84 CC 00 00 00  je          10009FB9
  10009EED: 83 F8 0E           cmp         eax,0Eh
  10009EF0: 7F 65              jg          10009F57
  10009EF2: 74 50              je          10009F44
  10009EF4: 6A 02              push        2
  10009EF6: 59                 pop         ecx
  10009EF7: 2B C1              sub         eax,ecx
  10009EF9: 74 3A              je          10009F35
  10009EFB: 83 E8 01           sub         eax,1
  10009EFE: 74 29              je          10009F29
  10009F00: 83 E8 05           sub         eax,5
  10009F03: 74 15              je          10009F1A
  10009F05: 83 E8 01           sub         eax,1
  10009F08: 0F 85 95 01 00 00  jne         1000A0A3
  10009F0E: C7 45 E4 C8 F1 00  mov         dword ptr [ebp-1Ch],1000F1C8h
            10
  10009F15: E9 01 01 00 00     jmp         1000A01B
  10009F1A: 89 4D E0           mov         dword ptr [ebp-20h],ecx
  10009F1D: C7 45 E4 C8 F1 00  mov         dword ptr [ebp-1Ch],1000F1C8h
            10
  10009F24: E9 3F 01 00 00     jmp         1000A068
  10009F29: C7 45 E4 C4 F1 00  mov         dword ptr [ebp-1Ch],1000F1C4h
            10
  10009F30: E9 E6 00 00 00     jmp         1000A01B
  10009F35: 89 4D E0           mov         dword ptr [ebp-20h],ecx
  10009F38: C7 45 E4 C4 F1 00  mov         dword ptr [ebp-1Ch],1000F1C4h
            10
  10009F3F: E9 24 01 00 00     jmp         1000A068
  10009F44: C7 45 E0 03 00 00  mov         dword ptr [ebp-20h],3
            00
  10009F4B: C7 45 E4 D0 F1 00  mov         dword ptr [ebp-1Ch],1000F1D0h
            10
  10009F52: E9 11 01 00 00     jmp         1000A068
  10009F57: 83 E8 0F           sub         eax,0Fh
  10009F5A: 74 54              je          10009FB0
  10009F5C: 83 E8 09           sub         eax,9
  10009F5F: 74 43              je          10009FA4
  10009F61: 83 E8 01           sub         eax,1
  10009F64: 0F 85 39 01 00 00  jne         1000A0A3
  10009F6A: C7 45 E4 D4 F1 00  mov         dword ptr [ebp-1Ch],1000F1D4h
            10
  10009F71: 8B 45 08           mov         eax,dword ptr [ebp+8]
  10009F74: 8B CF              mov         ecx,edi
  10009F76: 8B 75 10           mov         esi,dword ptr [ebp+10h]
  10009F79: C7 45 E0 04 00 00  mov         dword ptr [ebp-20h],4
            00
  10009F80: DD 00              fld         qword ptr [eax]
  10009F82: 8B 45 0C           mov         eax,dword ptr [ebp+0Ch]
  10009F85: DD 5D E8           fstp        qword ptr [ebp-18h]
  10009F88: DD 00              fld         qword ptr [eax]
  10009F8A: 8D 45 E0           lea         eax,[ebp-20h]
  10009F8D: DD 5D F0           fstp        qword ptr [ebp-10h]
  10009F90: DD 06              fld         qword ptr [esi]
  10009F92: 50                 push        eax
  10009F93: DD 5D F8           fstp        qword ptr [ebp-8]
  10009F96: FF 15 04 B1 00 10  call        dword ptr ds:[1000B104h]
  10009F9C: FF D7              call        edi
  10009F9E: 59                 pop         ecx
  10009F9F: E9 FA 00 00 00     jmp         1000A09E
  10009FA4: C7 45 E0 03 00 00  mov         dword ptr [ebp-20h],3
            00
  10009FAB: E9 B1 00 00 00     jmp         1000A061
  10009FB0: C7 45 E4 D0 F1 00  mov         dword ptr [ebp-1Ch],1000F1D0h
            10
  10009FB7: EB B8              jmp         10009F71
  10009FB9: D9 E8              fld1
  10009FBB: 8B 45 10           mov         eax,dword ptr [ebp+10h]
  10009FBE: DD 18              fstp        qword ptr [eax]
  10009FC0: E9 DE 00 00 00     jmp         1000A0A3
  10009FC5: 83 E8 1B           sub         eax,1Bh
  10009FC8: 0F 84 8C 00 00 00  je          1000A05A
  10009FCE: 83 E8 01           sub         eax,1
  10009FD1: 74 41              je          1000A014
  10009FD3: 83 E8 15           sub         eax,15h
  10009FD6: 74 33              je          1000A00B
  10009FD8: 83 E8 09           sub         eax,9
  10009FDB: 74 25              je          1000A002
  10009FDD: 83 E8 03           sub         eax,3
  10009FE0: 74 17              je          10009FF9
  10009FE2: 2D AB 03 00 00     sub         eax,3ABh
  10009FE7: 74 09              je          10009FF2
  10009FE9: 83 E8 01           sub         eax,1
  10009FEC: 0F 85 B1 00 00 00  jne         1000A0A3
  10009FF2: 8B 45 08           mov         eax,dword ptr [ebp+8]
  10009FF5: DD 00              fld         qword ptr [eax]
  10009FF7: EB C2              jmp         10009FBB
  10009FF9: C7 45 E4 D8 F1 00  mov         dword ptr [ebp-1Ch],1000F1D8h
            10
  1000A000: EB 19              jmp         1000A01B
  1000A002: C7 45 E4 E0 F1 00  mov         dword ptr [ebp-1Ch],1000F1E0h
            10
  1000A009: EB 10              jmp         1000A01B
  1000A00B: C7 45 E4 E8 F1 00  mov         dword ptr [ebp-1Ch],1000F1E8h
            10
  1000A012: EB 07              jmp         1000A01B
  1000A014: C7 45 E4 D4 F1 00  mov         dword ptr [ebp-1Ch],1000F1D4h
            10
  1000A01B: 8B 45 08           mov         eax,dword ptr [ebp+8]
  1000A01E: 8B CF              mov         ecx,edi
  1000A020: 8B 75 10           mov         esi,dword ptr [ebp+10h]
  1000A023: C7 45 E0 01 00 00  mov         dword ptr [ebp-20h],1
            00
  1000A02A: DD 00              fld         qword ptr [eax]
  1000A02C: 8B 45 0C           mov         eax,dword ptr [ebp+0Ch]
  1000A02F: DD 5D E8           fstp        qword ptr [ebp-18h]
  1000A032: DD 00              fld         qword ptr [eax]
  1000A034: 8D 45 E0           lea         eax,[ebp-20h]
  1000A037: DD 5D F0           fstp        qword ptr [ebp-10h]
  1000A03A: DD 06              fld         qword ptr [esi]
  1000A03C: 50                 push        eax
  1000A03D: DD 5D F8           fstp        qword ptr [ebp-8]
  1000A040: FF 15 04 B1 00 10  call        dword ptr ds:[1000B104h]
  1000A046: FF D7              call        edi
  1000A048: 59                 pop         ecx
  1000A049: 85 C0              test        eax,eax
  1000A04B: 75 51              jne         1000A09E
  1000A04D: E8 51 A3 FF FF     call        100043A3
  1000A052: C7 00 21 00 00 00  mov         dword ptr [eax],21h
  1000A058: EB 44              jmp         1000A09E
  1000A05A: C7 45 E0 02 00 00  mov         dword ptr [ebp-20h],2
            00
  1000A061: C7 45 E4 D4 F1 00  mov         dword ptr [ebp-1Ch],1000F1D4h
            10
  1000A068: 8B 45 08           mov         eax,dword ptr [ebp+8]
  1000A06B: 8B CF              mov         ecx,edi
  1000A06D: 8B 75 10           mov         esi,dword ptr [ebp+10h]
  1000A070: DD 00              fld         qword ptr [eax]
  1000A072: 8B 45 0C           mov         eax,dword ptr [ebp+0Ch]
  1000A075: DD 5D E8           fstp        qword ptr [ebp-18h]
  1000A078: DD 00              fld         qword ptr [eax]
  1000A07A: 8D 45 E0           lea         eax,[ebp-20h]
  1000A07D: DD 5D F0           fstp        qword ptr [ebp-10h]
  1000A080: DD 06              fld         qword ptr [esi]
  1000A082: 50                 push        eax
  1000A083: DD 5D F8           fstp        qword ptr [ebp-8]
  1000A086: FF 15 04 B1 00 10  call        dword ptr ds:[1000B104h]
  1000A08C: FF D7              call        edi
  1000A08E: 59                 pop         ecx
  1000A08F: 85 C0              test        eax,eax
  1000A091: 75 0B              jne         1000A09E
  1000A093: E8 0B A3 FF FF     call        100043A3
  1000A098: C7 00 22 00 00 00  mov         dword ptr [eax],22h
  1000A09E: DD 45 F8           fld         qword ptr [ebp-8]
  1000A0A1: DD 1E              fstp        qword ptr [esi]
  1000A0A3: 5F                 pop         edi
  1000A0A4: 5E                 pop         esi
  1000A0A5: C9                 leave
  1000A0A6: C3                 ret
  1000A0A7: 8B FF              mov         edi,edi
  1000A0A9: 55                 push        ebp
  1000A0AA: 8B EC              mov         ebp,esp
  1000A0AC: 51                 push        ecx
  1000A0AD: 51                 push        ecx
  1000A0AE: 53                 push        ebx
  1000A0AF: 56                 push        esi
  1000A0B0: BE FF FF 00 00     mov         esi,0FFFFh
  1000A0B5: 56                 push        esi
  1000A0B6: 68 3F 1B 00 00     push        1B3Fh
  1000A0BB: E8 AD 00 00 00     call        1000A16D
  1000A0C0: DD 45 08           fld         qword ptr [ebp+8]
  1000A0C3: 8B D8              mov         ebx,eax
  1000A0C5: 59                 pop         ecx
  1000A0C6: 59                 pop         ecx
  1000A0C7: 0F B7 4D 0E        movzx       ecx,word ptr [ebp+0Eh]
  1000A0CB: B8 F0 7F 00 00     mov         eax,7FF0h
  1000A0D0: 23 C8              and         ecx,eax
  1000A0D2: 51                 push        ecx
  1000A0D3: 51                 push        ecx
  1000A0D4: DD 1C 24           fstp        qword ptr [esp]
  1000A0D7: 66 3B C8           cmp         cx,ax
  1000A0DA: 75 3D              jne         1000A119
  1000A0DC: E8 A4 0B 00 00     call        1000AC85
  1000A0E1: 48                 dec         eax
  1000A0E2: 59                 pop         ecx
  1000A0E3: 59                 pop         ecx
  1000A0E4: 83 F8 02           cmp         eax,2
  1000A0E7: 77 0C              ja          1000A0F5
  1000A0E9: 56                 push        esi
  1000A0EA: 53                 push        ebx
  1000A0EB: E8 7D 00 00 00     call        1000A16D
  1000A0F0: DD 45 08           fld         qword ptr [ebp+8]
  1000A0F3: EB 61              jmp         1000A156
  1000A0F5: DD 45 08           fld         qword ptr [ebp+8]
  1000A0F8: DD 05 F0 F1 00 10  fld         qword ptr ds:[1000F1F0h]
  1000A0FE: 53                 push        ebx
  1000A0FF: 83 EC 10           sub         esp,10h
  1000A102: D8 C1              fadd        st,st(1)
  1000A104: DD 5C 24 08        fstp        qword ptr [esp+8]
  1000A108: DD 1C 24           fstp        qword ptr [esp]
  1000A10B: 6A 0C              push        0Ch
  1000A10D: 6A 08              push        8
  1000A10F: E8 D1 03 00 00     call        1000A4E5
  1000A114: 83 C4 1C           add         esp,1Ch
  1000A117: EB 3F              jmp         1000A158
  1000A119: E8 7F 03 00 00     call        1000A49D
  1000A11E: DD 55 F8           fst         qword ptr [ebp-8]
  1000A121: DD 45 08           fld         qword ptr [ebp+8]
  1000A124: 83 C4 08           add         esp,8
  1000A127: DD E1              fucom       st(1)
  1000A129: DF E0              fnstsw      ax
  1000A12B: F6 C4 44           test        ah,44h
  1000A12E: 7B 18              jnp         1000A148
  1000A130: F6 C3 20           test        bl,20h
  1000A133: 75 13              jne         1000A148
  1000A135: 53                 push        ebx
  1000A136: 83 EC 10           sub         esp,10h
  1000A139: D9 C9              fxch        st(1)
  1000A13B: DD 5C 24 08        fstp        qword ptr [esp+8]
  1000A13F: DD 1C 24           fstp        qword ptr [esp]
  1000A142: 6A 0C              push        0Ch
  1000A144: 6A 10              push        10h
  1000A146: EB C7              jmp         1000A10F
  1000A148: 56                 push        esi
  1000A149: DD D9              fstp        st(1)
  1000A14B: 53                 push        ebx
  1000A14C: DD D8              fstp        st(0)
  1000A14E: E8 1A 00 00 00     call        1000A16D
  1000A153: DD 45 F8           fld         qword ptr [ebp-8]
  1000A156: 59                 pop         ecx
  1000A157: 59                 pop         ecx
  1000A158: 5E                 pop         esi
  1000A159: 5B                 pop         ebx
  1000A15A: C9                 leave
  1000A15B: C3                 ret
  1000A15C: 8B FF              mov         edi,edi
  1000A15E: 55                 push        ebp
  1000A15F: 8B EC              mov         ebp,esp
  1000A161: 51                 push        ecx
  1000A162: DD 7D FC           fnstsw      word ptr [ebp-4]
  1000A165: DB E2              fnclex
  1000A167: 0F BF 45 FC        movsx       eax,word ptr [ebp-4]
  1000A16B: C9                 leave
  1000A16C: C3                 ret
  1000A16D: 8B FF              mov         edi,edi
  1000A16F: 55                 push        ebp
  1000A170: 8B EC              mov         ebp,esp
  1000A172: 51                 push        ecx
  1000A173: 51                 push        ecx
  1000A174: 9B                 wait
  1000A175: D9 7D FC           fnstcw      word ptr [ebp-4]
  1000A178: 8B 4D 0C           mov         ecx,dword ptr [ebp+0Ch]
  1000A17B: 8B 45 08           mov         eax,dword ptr [ebp+8]
  1000A17E: F7 D1              not         ecx
  1000A180: 66 23 4D FC        and         cx,word ptr [ebp-4]
  1000A184: 23 45 0C           and         eax,dword ptr [ebp+0Ch]
  1000A187: 66 0B C8           or          cx,ax
  1000A18A: 66 89 4D F8        mov         word ptr [ebp-8],cx
  1000A18E: D9 6D F8           fldcw       word ptr [ebp-8]
  1000A191: 0F BF 45 FC        movsx       eax,word ptr [ebp-4]
  1000A195: C9                 leave
  1000A196: C3                 ret
  1000A197: 8B FF              mov         edi,edi
  1000A199: 55                 push        ebp
  1000A19A: 8B EC              mov         ebp,esp
  1000A19C: 8B 4D 08           mov         ecx,dword ptr [ebp+8]
  1000A19F: 83 EC 0C           sub         esp,0Ch
  1000A1A2: F6 C1 01           test        cl,1
  1000A1A5: 74 0A              je          1000A1B1
  1000A1A7: DB 2D F8 F1 00 10  fld         tbyte ptr ds:[1000F1F8h]
  1000A1AD: DB 5D FC           fistp       dword ptr [ebp-4]
  1000A1B0: 9B                 wait
  1000A1B1: F6 C1 08           test        cl,8
  1000A1B4: 74 10              je          1000A1C6
  1000A1B6: 9B                 wait
  1000A1B7: DF E0              fnstsw      ax
  1000A1B9: DB 2D F8 F1 00 10  fld         tbyte ptr ds:[1000F1F8h]
  1000A1BF: DD 5D F4           fstp        qword ptr [ebp-0Ch]
  1000A1C2: 9B                 wait
  1000A1C3: 9B                 wait
  1000A1C4: DF E0              fnstsw      ax
  1000A1C6: F6 C1 10           test        cl,10h
  1000A1C9: 74 0A              je          1000A1D5
  1000A1CB: DB 2D 04 F2 00 10  fld         tbyte ptr ds:[1000F204h]
  1000A1D1: DD 5D F4           fstp        qword ptr [ebp-0Ch]
  1000A1D4: 9B                 wait
  1000A1D5: F6 C1 04           test        cl,4
  1000A1D8: 74 09              je          1000A1E3
  1000A1DA: D9 EE              fldz
  1000A1DC: D9 E8              fld1
  1000A1DE: DE F1              fdivrp      st(1),st
  1000A1E0: DD D8              fstp        st(0)
  1000A1E2: 9B                 wait
  1000A1E3: F6 C1 20           test        cl,20h
  1000A1E6: 74 06              je          1000A1EE
  1000A1E8: D9 EB              fldpi
  1000A1EA: DD 5D F4           fstp        qword ptr [ebp-0Ch]
  1000A1ED: 9B                 wait
  1000A1EE: C9                 leave
  1000A1EF: C3                 ret
  1000A1F0: 8B FF              mov         edi,edi
  1000A1F2: 55                 push        ebp
  1000A1F3: 8B EC              mov         ebp,esp
  1000A1F5: 51                 push        ecx
  1000A1F6: 9B                 wait
  1000A1F7: DD 7D FC           fnstsw      word ptr [ebp-4]
  1000A1FA: 0F BF 45 FC        movsx       eax,word ptr [ebp-4]
  1000A1FE: C9                 leave
  1000A1FF: C3                 ret
  1000A200: 8B FF              mov         edi,edi
  1000A202: 55                 push        ebp
  1000A203: 8B EC              mov         ebp,esp
  1000A205: 51                 push        ecx
  1000A206: 51                 push        ecx
  1000A207: DD 45 08           fld         qword ptr [ebp+8]
  1000A20A: 51                 push        ecx
  1000A20B: 51                 push        ecx
  1000A20C: DD 1C 24           fstp        qword ptr [esp]
  1000A20F: E8 CF 0A 00 00     call        1000ACE3
  1000A214: 59                 pop         ecx
  1000A215: 59                 pop         ecx
  1000A216: A8 90              test        al,90h
  1000A218: 75 4A              jne         1000A264
  1000A21A: DD 45 08           fld         qword ptr [ebp+8]
  1000A21D: 51                 push        ecx
  1000A21E: 51                 push        ecx
  1000A21F: DD 1C 24           fstp        qword ptr [esp]
  1000A222: E8 76 02 00 00     call        1000A49D
  1000A227: DD 45 08           fld         qword ptr [ebp+8]
  1000A22A: DD E1              fucom       st(1)
  1000A22C: DF E0              fnstsw      ax
  1000A22E: 59                 pop         ecx
  1000A22F: 59                 pop         ecx
  1000A230: DD D9              fstp        st(1)
  1000A232: F6 C4 44           test        ah,44h
  1000A235: 7A 2B              jp          1000A262
  1000A237: DC 0D 30 FA 00 10  fmul        qword ptr ds:[1000FA30h]
  1000A23D: 51                 push        ecx
  1000A23E: 51                 push        ecx
  1000A23F: DD 55 F8           fst         qword ptr [ebp-8]
  1000A242: DD 1C 24           fstp        qword ptr [esp]
  1000A245: E8 53 02 00 00     call        1000A49D
  1000A24A: DD 45 F8           fld         qword ptr [ebp-8]
  1000A24D: DA E9              fucompp
  1000A24F: DF E0              fnstsw      ax
  1000A251: 59                 pop         ecx
  1000A252: 59                 pop         ecx
  1000A253: F6 C4 44           test        ah,44h
  1000A256: 7A 05              jp          1000A25D
  1000A258: 6A 02              push        2
  1000A25A: 58                 pop         eax
  1000A25B: C9                 leave
  1000A25C: C3                 ret
  1000A25D: 33 C0              xor         eax,eax
  1000A25F: 40                 inc         eax
  1000A260: C9                 leave
  1000A261: C3                 ret
  1000A262: DD D8              fstp        st(0)
  1000A264: 33 C0              xor         eax,eax
  1000A266: C9                 leave
  1000A267: C3                 ret
  1000A268: 8B FF              mov         edi,edi
  1000A26A: 55                 push        ebp
  1000A26B: 8B EC              mov         ebp,esp
  1000A26D: DD 45 08           fld         qword ptr [ebp+8]
  1000A270: B9 00 00 F0 7F     mov         ecx,7FF00000h
  1000A275: D9 E1              fabs
  1000A277: B8 00 00 F0 FF     mov         eax,0FFF00000h
  1000A27C: 39 4D 14           cmp         dword ptr [ebp+14h],ecx
  1000A27F: 75 3B              jne         1000A2BC
  1000A281: 83 7D 10 00        cmp         dword ptr [ebp+10h],0
  1000A285: 75 75              jne         1000A2FC
  1000A287: D9 E8              fld1
  1000A289: D8 D1              fcom        st(1)
  1000A28B: DF E0              fnstsw      ax
  1000A28D: F6 C4 05           test        ah,5
  1000A290: 7A 0F              jp          1000A2A1
  1000A292: DD D9              fstp        st(1)
  1000A294: DD D8              fstp        st(0)
  1000A296: DD 05 C0 FB 00 10  fld         qword ptr ds:[1000FBC0h]
  1000A29C: E9 E9 00 00 00     jmp         1000A38A
  1000A2A1: D8 D1              fcom        st(1)
  1000A2A3: DF E0              fnstsw      ax
  1000A2A5: DD D9              fstp        st(1)
  1000A2A7: F6 C4 41           test        ah,41h
  1000A2AA: 8B 45 18           mov         eax,dword ptr [ebp+18h]
  1000A2AD: 0F 85 DA 00 00 00  jne         1000A38D
  1000A2B3: DD D8              fstp        st(0)
  1000A2B5: D9 EE              fldz
  1000A2B7: E9 D1 00 00 00     jmp         1000A38D
  1000A2BC: 39 45 14           cmp         dword ptr [ebp+14h],eax
  1000A2BF: 75 3B              jne         1000A2FC
  1000A2C1: 83 7D 10 00        cmp         dword ptr [ebp+10h],0
  1000A2C5: 75 35              jne         1000A2FC
  1000A2C7: D9 E8              fld1
  1000A2C9: D8 D1              fcom        st(1)
  1000A2CB: DF E0              fnstsw      ax
  1000A2CD: F6 C4 05           test        ah,5
  1000A2D0: 7A 0B              jp          1000A2DD
  1000A2D2: DD D9              fstp        st(1)
  1000A2D4: DD D8              fstp        st(0)
  1000A2D6: D9 EE              fldz
  1000A2D8: E9 AD 00 00 00     jmp         1000A38A
  1000A2DD: D8 D1              fcom        st(1)
  1000A2DF: DF E0              fnstsw      ax
  1000A2E1: DD D9              fstp        st(1)
  1000A2E3: F6 C4 41           test        ah,41h
  1000A2E6: 8B 45 18           mov         eax,dword ptr [ebp+18h]
  1000A2E9: 0F 85 9E 00 00 00  jne         1000A38D
  1000A2EF: DD D8              fstp        st(0)
  1000A2F1: DD 05 C0 FB 00 10  fld         qword ptr ds:[1000FBC0h]
  1000A2F7: E9 91 00 00 00     jmp         1000A38D
  1000A2FC: DD D8              fstp        st(0)
  1000A2FE: 39 4D 0C           cmp         dword ptr [ebp+0Ch],ecx
  1000A301: 75 2E              jne         1000A331
  1000A303: 83 7D 08 00        cmp         dword ptr [ebp+8],0
  1000A307: 0F 85 82 00 00 00  jne         1000A38F
  1000A30D: D9 EE              fldz
  1000A30F: DD 45 10           fld         qword ptr [ebp+10h]
  1000A312: D8 D1              fcom        st(1)
  1000A314: DF E0              fnstsw      ax
  1000A316: F6 C4 41           test        ah,41h
  1000A319: 0F 84 73 FF FF FF  je          1000A292
  1000A31F: D8 D9              fcomp       st(1)
  1000A321: DF E0              fnstsw      ax
  1000A323: F6 C4 05           test        ah,5
  1000A326: 8B 45 18           mov         eax,dword ptr [ebp+18h]
  1000A329: 7B 62              jnp         1000A38D
  1000A32B: DD D8              fstp        st(0)
  1000A32D: D9 E8              fld1
  1000A32F: EB 5C              jmp         1000A38D
  1000A331: 39 45 0C           cmp         dword ptr [ebp+0Ch],eax
  1000A334: 75 59              jne         1000A38F
  1000A336: 83 7D 08 00        cmp         dword ptr [ebp+8],0
  1000A33A: 75 53              jne         1000A38F
  1000A33C: DD 45 10           fld         qword ptr [ebp+10h]
  1000A33F: 51                 push        ecx
  1000A340: 51                 push        ecx
  1000A341: DD 1C 24           fstp        qword ptr [esp]
  1000A344: E8 B7 FE FF FF     call        1000A200
  1000A349: D9 EE              fldz
  1000A34B: DD 45 10           fld         qword ptr [ebp+10h]
  1000A34E: 59                 pop         ecx
  1000A34F: 59                 pop         ecx
  1000A350: D8 D1              fcom        st(1)
  1000A352: 8B C8              mov         ecx,eax
  1000A354: DF E0              fnstsw      ax
  1000A356: F6 C4 41           test        ah,41h
  1000A359: 75 13              jne         1000A36E
  1000A35B: DD D9              fstp        st(1)
  1000A35D: DD D8              fstp        st(0)
  1000A35F: DD 05 C0 FB 00 10  fld         qword ptr ds:[1000FBC0h]
  1000A365: 83 F9 01           cmp         ecx,1
  1000A368: 75 20              jne         1000A38A
  1000A36A: D9 E0              fchs
  1000A36C: EB 1C              jmp         1000A38A
  1000A36E: D8 D9              fcomp       st(1)
  1000A370: DF E0              fnstsw      ax
  1000A372: F6 C4 05           test        ah,5
  1000A375: 7A 0F              jp          1000A386
  1000A377: 83 F9 01           cmp         ecx,1
  1000A37A: 75 0E              jne         1000A38A
  1000A37C: DD D8              fstp        st(0)
  1000A37E: DD 05 D0 FB 00 10  fld         qword ptr ds:[1000FBD0h]
  1000A384: EB 04              jmp         1000A38A
  1000A386: DD D8              fstp        st(0)
  1000A388: D9 E8              fld1
  1000A38A: 8B 45 18           mov         eax,dword ptr [ebp+18h]
  1000A38D: DD 18              fstp        qword ptr [eax]
  1000A38F: 33 C0              xor         eax,eax
  1000A391: 5D                 pop         ebp
  1000A392: C3                 ret
  1000A393: 8B FF              mov         edi,edi
  1000A395: 53                 push        ebx
  1000A396: 8B DC              mov         ebx,esp
  1000A398: 51                 push        ecx
  1000A399: 51                 push        ecx
  1000A39A: 83 E4 F0           and         esp,0FFFFFFF0h
  1000A39D: 83 C4 04           add         esp,4
  1000A3A0: 55                 push        ebp
  1000A3A1: 8B 6B 04           mov         ebp,dword ptr [ebx+4]
  1000A3A4: 89 6C 24 04        mov         dword ptr [esp+4],ebp
  1000A3A8: 8B EC              mov         ebp,esp
  1000A3AA: 81 EC 88 00 00 00  sub         esp,88h
  1000A3B0: A1 10 10 01 10     mov         eax,dword ptr ds:[10011010h]
  1000A3B5: 33 C5              xor         eax,ebp
  1000A3B7: 89 45 FC           mov         dword ptr [ebp-4],eax
  1000A3BA: 8B 43 10           mov         eax,dword ptr [ebx+10h]
  1000A3BD: 56                 push        esi
  1000A3BE: 8B 73 0C           mov         esi,dword ptr [ebx+0Ch]
  1000A3C1: 57                 push        edi
  1000A3C2: 0F B7 08           movzx       ecx,word ptr [eax]
  1000A3C5: 89 8D 7C FF FF FF  mov         dword ptr [ebp+FFFFFF7Ch],ecx
  1000A3CB: 8B 06              mov         eax,dword ptr [esi]
  1000A3CD: 83 E8 01           sub         eax,1
  1000A3D0: 74 29              je          1000A3FB
  1000A3D2: 83 E8 01           sub         eax,1
  1000A3D5: 74 20              je          1000A3F7
  1000A3D7: 83 E8 01           sub         eax,1
  1000A3DA: 74 17              je          1000A3F3
  1000A3DC: 83 E8 01           sub         eax,1
  1000A3DF: 74 0E              je          1000A3EF
  1000A3E1: 83 E8 01           sub         eax,1
  1000A3E4: 74 15              je          1000A3FB
  1000A3E6: 83 E8 03           sub         eax,3
  1000A3E9: 75 6C              jne         1000A457
  1000A3EB: 6A 10              push        10h
  1000A3ED: EB 0E              jmp         1000A3FD
  1000A3EF: 6A 12              push        12h
  1000A3F1: EB 0A              jmp         1000A3FD
  1000A3F3: 6A 11              push        11h
  1000A3F5: EB 06              jmp         1000A3FD
  1000A3F7: 6A 04              push        4
  1000A3F9: EB 02              jmp         1000A3FD
  1000A3FB: 6A 08              push        8
  1000A3FD: 5F                 pop         edi
  1000A3FE: 51                 push        ecx
  1000A3FF: 8D 46 18           lea         eax,[esi+18h]
  1000A402: 50                 push        eax
  1000A403: 57                 push        edi
  1000A404: E8 AA 01 00 00     call        1000A5B3
  1000A409: 83 C4 0C           add         esp,0Ch
  1000A40C: 85 C0              test        eax,eax
  1000A40E: 75 47              jne         1000A457
  1000A410: 8B 4B 08           mov         ecx,dword ptr [ebx+8]
  1000A413: 83 F9 10           cmp         ecx,10h
  1000A416: 74 10              je          1000A428
  1000A418: 83 F9 16           cmp         ecx,16h
  1000A41B: 74 0B              je          1000A428
  1000A41D: 83 F9 1D           cmp         ecx,1Dh
  1000A420: 74 06              je          1000A428
  1000A422: 83 65 C0 FE        and         dword ptr [ebp-40h],0FFFFFFFEh
  1000A426: EB 12              jmp         1000A43A
  1000A428: 8B 45 C0           mov         eax,dword ptr [ebp-40h]
  1000A42B: DD 46 10           fld         qword ptr [esi+10h]
  1000A42E: 83 E0 E3           and         eax,0FFFFFFE3h
  1000A431: 83 C8 03           or          eax,3
  1000A434: DD 5D B0           fstp        qword ptr [ebp-50h]
  1000A437: 89 45 C0           mov         dword ptr [ebp-40h],eax
  1000A43A: 8D 46 18           lea         eax,[esi+18h]
  1000A43D: 50                 push        eax
  1000A43E: 8D 46 08           lea         eax,[esi+8]
  1000A441: 50                 push        eax
  1000A442: 51                 push        ecx
  1000A443: 57                 push        edi
  1000A444: 8D 85 7C FF FF FF  lea         eax,[ebp+FFFFFF7Ch]
  1000A44A: 50                 push        eax
  1000A44B: 8D 45 80           lea         eax,[ebp-80h]
  1000A44E: 50                 push        eax
  1000A44F: E8 4A 03 00 00     call        1000A79E
  1000A454: 83 C4 18           add         esp,18h
  1000A457: 68 FF FF 00 00     push        0FFFFh
  1000A45C: FF B5 7C FF FF FF  push        dword ptr [ebp+FFFFFF7Ch]
  1000A462: E8 06 FD FF FF     call        1000A16D
  1000A467: 83 3E 08           cmp         dword ptr [esi],8
  1000A46A: 59                 pop         ecx
  1000A46B: 59                 pop         ecx
  1000A46C: 74 14              je          1000A482
  1000A46E: E8 F1 BE FF FF     call        10006364
  1000A473: 84 C0              test        al,al
  1000A475: 74 0B              je          1000A482
  1000A477: 56                 push        esi
  1000A478: E8 0E BF FF FF     call        1000638B
  1000A47D: 59                 pop         ecx
  1000A47E: 85 C0              test        eax,eax
  1000A480: 75 08              jne         1000A48A
  1000A482: FF 36              push        dword ptr [esi]
  1000A484: E8 2E 06 00 00     call        1000AAB7
  1000A489: 59                 pop         ecx
  1000A48A: 8B 4D FC           mov         ecx,dword ptr [ebp-4]
  1000A48D: 5F                 pop         edi
  1000A48E: 33 CD              xor         ecx,ebp
  1000A490: 5E                 pop         esi
  1000A491: E8 46 76 FF FF     call        10001ADC
  1000A496: 8B E5              mov         esp,ebp
  1000A498: 5D                 pop         ebp
  1000A499: 8B E3              mov         esp,ebx
  1000A49B: 5B                 pop         ebx
  1000A49C: C3                 ret
  1000A49D: 8B FF              mov         edi,edi
  1000A49F: 55                 push        ebp
  1000A4A0: 8B EC              mov         ebp,esp
  1000A4A2: 51                 push        ecx
  1000A4A3: 51                 push        ecx
  1000A4A4: DD 45 08           fld         qword ptr [ebp+8]
  1000A4A7: D9 FC              frndint
  1000A4A9: DD 5D F8           fstp        qword ptr [ebp-8]
  1000A4AC: DD 45 F8           fld         qword ptr [ebp-8]
  1000A4AF: C9                 leave
  1000A4B0: C3                 ret
  1000A4B1: 8B FF              mov         edi,edi
  1000A4B3: 55                 push        ebp
  1000A4B4: 8B EC              mov         ebp,esp
  1000A4B6: 8B 45 08           mov         eax,dword ptr [ebp+8]
  1000A4B9: A8 20              test        al,20h
  1000A4BB: 74 04              je          1000A4C1
  1000A4BD: 6A 05              push        5
  1000A4BF: EB 17              jmp         1000A4D8
  1000A4C1: A8 08              test        al,8
  1000A4C3: 74 05              je          1000A4CA
  1000A4C5: 33 C0              xor         eax,eax
  1000A4C7: 40                 inc         eax
  1000A4C8: 5D                 pop         ebp
  1000A4C9: C3                 ret
  1000A4CA: A8 04              test        al,4
  1000A4CC: 74 04              je          1000A4D2
  1000A4CE: 6A 02              push        2
  1000A4D0: EB 06              jmp         1000A4D8
  1000A4D2: A8 01              test        al,1
  1000A4D4: 74 05              je          1000A4DB
  1000A4D6: 6A 03              push        3
  1000A4D8: 58                 pop         eax
  1000A4D9: 5D                 pop         ebp
  1000A4DA: C3                 ret
  1000A4DB: 0F B6 C0           movzx       eax,al
  1000A4DE: 83 E0 02           and         eax,2
  1000A4E1: 03 C0              add         eax,eax
  1000A4E3: 5D                 pop         ebp
  1000A4E4: C3                 ret
  1000A4E5: 8B FF              mov         edi,edi
  1000A4E7: 53                 push        ebx
  1000A4E8: 8B DC              mov         ebx,esp
  1000A4EA: 51                 push        ecx
  1000A4EB: 51                 push        ecx
  1000A4EC: 83 E4 F0           and         esp,0FFFFFFF0h
  1000A4EF: 83 C4 04           add         esp,4
  1000A4F2: 55                 push        ebp
  1000A4F3: 8B 6B 04           mov         ebp,dword ptr [ebx+4]
  1000A4F6: 89 6C 24 04        mov         dword ptr [esp+4],ebp
  1000A4FA: 8B EC              mov         ebp,esp
  1000A4FC: 81 EC 88 00 00 00  sub         esp,88h
  1000A502: A1 10 10 01 10     mov         eax,dword ptr ds:[10011010h]
  1000A507: 33 C5              xor         eax,ebp
  1000A509: 89 45 FC           mov         dword ptr [ebp-4],eax
  1000A50C: 56                 push        esi
  1000A50D: 8B 73 20           mov         esi,dword ptr [ebx+20h]
  1000A510: 8D 43 18           lea         eax,[ebx+18h]
  1000A513: 57                 push        edi
  1000A514: 56                 push        esi
  1000A515: 50                 push        eax
  1000A516: FF 73 08           push        dword ptr [ebx+8]
  1000A519: E8 95 00 00 00     call        1000A5B3
  1000A51E: 83 C4 0C           add         esp,0Ch
  1000A521: 85 C0              test        eax,eax
  1000A523: 75 26              jne         1000A54B
  1000A525: 83 65 C0 FE        and         dword ptr [ebp-40h],0FFFFFFFEh
  1000A529: 50                 push        eax
  1000A52A: 8D 43 18           lea         eax,[ebx+18h]
  1000A52D: 50                 push        eax
  1000A52E: 8D 43 10           lea         eax,[ebx+10h]
  1000A531: 50                 push        eax
  1000A532: FF 73 0C           push        dword ptr [ebx+0Ch]
  1000A535: 8D 43 20           lea         eax,[ebx+20h]
  1000A538: FF 73 08           push        dword ptr [ebx+8]
  1000A53B: 50                 push        eax
  1000A53C: 8D 45 80           lea         eax,[ebp-80h]
  1000A53F: 50                 push        eax
  1000A540: E8 7C 02 00 00     call        1000A7C1
  1000A545: 8B 73 20           mov         esi,dword ptr [ebx+20h]
  1000A548: 83 C4 1C           add         esp,1Ch
  1000A54B: FF 73 08           push        dword ptr [ebx+8]
  1000A54E: E8 5E FF FF FF     call        1000A4B1
  1000A553: 59                 pop         ecx
  1000A554: 8B F8              mov         edi,eax
  1000A556: E8 09 BE FF FF     call        10006364
  1000A55B: 84 C0              test        al,al
  1000A55D: 74 29              je          1000A588
  1000A55F: 85 FF              test        edi,edi
  1000A561: 74 25              je          1000A588
  1000A563: DD 43 18           fld         qword ptr [ebx+18h]
  1000A566: 56                 push        esi
  1000A567: 83 EC 18           sub         esp,18h
  1000A56A: DD 5C 24 10        fstp        qword ptr [esp+10h]
  1000A56E: D9 EE              fldz
  1000A570: DD 5C 24 08        fstp        qword ptr [esp+8]
  1000A574: DD 43 10           fld         qword ptr [ebx+10h]
  1000A577: DD 1C 24           fstp        qword ptr [esp]
  1000A57A: FF 73 0C           push        dword ptr [ebx+0Ch]
  1000A57D: 57                 push        edi
  1000A57E: E8 63 05 00 00     call        1000AAE6
  1000A583: 83 C4 24           add         esp,24h
  1000A586: EB 18              jmp         1000A5A0
  1000A588: 57                 push        edi
  1000A589: E8 29 05 00 00     call        1000AAB7
  1000A58E: C7 04 24 FF FF 00  mov         dword ptr [esp],0FFFFh
            00
  1000A595: 56                 push        esi
  1000A596: E8 D2 FB FF FF     call        1000A16D
  1000A59B: DD 43 18           fld         qword ptr [ebx+18h]
  1000A59E: 59                 pop         ecx
  1000A59F: 59                 pop         ecx
  1000A5A0: 8B 4D FC           mov         ecx,dword ptr [ebp-4]
  1000A5A3: 5F                 pop         edi
  1000A5A4: 33 CD              xor         ecx,ebp
  1000A5A6: 5E                 pop         esi
  1000A5A7: E8 30 75 FF FF     call        10001ADC
  1000A5AC: 8B E5              mov         esp,ebp
  1000A5AE: 5D                 pop         ebp
  1000A5AF: 8B E3              mov         esp,ebx
  1000A5B1: 5B                 pop         ebx
  1000A5B2: C3                 ret
  1000A5B3: 8B FF              mov         edi,edi
  1000A5B5: 55                 push        ebp
  1000A5B6: 8B EC              mov         ebp,esp
  1000A5B8: 83 EC 10           sub         esp,10h
  1000A5BB: 53                 push        ebx
  1000A5BC: 8B 5D 08           mov         ebx,dword ptr [ebp+8]
  1000A5BF: 56                 push        esi
  1000A5C0: 8B F3              mov         esi,ebx
  1000A5C2: 83 E6 1F           and         esi,1Fh
  1000A5C5: F6 C3 08           test        bl,8
  1000A5C8: 74 16              je          1000A5E0
  1000A5CA: F6 45 10 01        test        byte ptr [ebp+10h],1
  1000A5CE: 74 10              je          1000A5E0
  1000A5D0: 6A 01              push        1
  1000A5D2: E8 C0 FB FF FF     call        1000A197
  1000A5D7: 59                 pop         ecx
  1000A5D8: 83 E6 F7           and         esi,0FFFFFFF7h
  1000A5DB: E9 9D 01 00 00     jmp         1000A77D
  1000A5E0: 8B C3              mov         eax,ebx
  1000A5E2: 23 45 10           and         eax,dword ptr [ebp+10h]
  1000A5E5: A8 04              test        al,4
  1000A5E7: 74 10              je          1000A5F9
  1000A5E9: 6A 04              push        4
  1000A5EB: E8 A7 FB FF FF     call        1000A197
  1000A5F0: 59                 pop         ecx
  1000A5F1: 83 E6 FB           and         esi,0FFFFFFFBh
  1000A5F4: E9 84 01 00 00     jmp         1000A77D
  1000A5F9: F6 C3 01           test        bl,1
  1000A5FC: 0F 84 9A 00 00 00  je          1000A69C
  1000A602: F6 45 10 08        test        byte ptr [ebp+10h],8
  1000A606: 0F 84 90 00 00 00  je          1000A69C
  1000A60C: 6A 08              push        8
  1000A60E: E8 84 FB FF FF     call        1000A197
  1000A613: 8B 45 10           mov         eax,dword ptr [ebp+10h]
  1000A616: 59                 pop         ecx
  1000A617: B9 00 0C 00 00     mov         ecx,0C00h
  1000A61C: 23 C1              and         eax,ecx
  1000A61E: 74 54              je          1000A674
  1000A620: 3D 00 04 00 00     cmp         eax,400h
  1000A625: 74 37              je          1000A65E
  1000A627: 3D 00 08 00 00     cmp         eax,800h
  1000A62C: 74 1A              je          1000A648
  1000A62E: 3B C1              cmp         eax,ecx
  1000A630: 75 62              jne         1000A694
  1000A632: 8B 4D 0C           mov         ecx,dword ptr [ebp+0Ch]
  1000A635: D9 EE              fldz
  1000A637: DC 19              fcomp       qword ptr [ecx]
  1000A639: DF E0              fnstsw      ax
  1000A63B: DD 05 C8 FB 00 10  fld         qword ptr ds:[1000FBC8h]
  1000A641: F6 C4 05           test        ah,5
  1000A644: 7B 4C              jnp         1000A692
  1000A646: EB 48              jmp         1000A690
  1000A648: 8B 4D 0C           mov         ecx,dword ptr [ebp+0Ch]
  1000A64B: D9 EE              fldz
  1000A64D: DC 19              fcomp       qword ptr [ecx]
  1000A64F: DF E0              fnstsw      ax
  1000A651: F6 C4 05           test        ah,5
  1000A654: 7B 2C              jnp         1000A682
  1000A656: DD 05 C8 FB 00 10  fld         qword ptr ds:[1000FBC8h]
  1000A65C: EB 32              jmp         1000A690
  1000A65E: 8B 4D 0C           mov         ecx,dword ptr [ebp+0Ch]
  1000A661: D9 EE              fldz
  1000A663: DC 19              fcomp       qword ptr [ecx]
  1000A665: DF E0              fnstsw      ax
  1000A667: F6 C4 05           test        ah,5
  1000A66A: 7A 1E              jp          1000A68A
  1000A66C: DD 05 C8 FB 00 10  fld         qword ptr ds:[1000FBC8h]
  1000A672: EB 1E              jmp         1000A692
  1000A674: 8B 4D 0C           mov         ecx,dword ptr [ebp+0Ch]
  1000A677: D9 EE              fldz
  1000A679: DC 19              fcomp       qword ptr [ecx]
  1000A67B: DF E0              fnstsw      ax
  1000A67D: F6 C4 05           test        ah,5
  1000A680: 7A 08              jp          1000A68A
  1000A682: DD 05 C0 FB 00 10  fld         qword ptr ds:[1000FBC0h]
  1000A688: EB 08              jmp         1000A692
  1000A68A: DD 05 C0 FB 00 10  fld         qword ptr ds:[1000FBC0h]
  1000A690: D9 E0              fchs
  1000A692: DD 19              fstp        qword ptr [ecx]
  1000A694: 83 E6 FE           and         esi,0FFFFFFFEh
  1000A697: E9 E1 00 00 00     jmp         1000A77D
  1000A69C: F6 C3 02           test        bl,2
  1000A69F: 0F 84 D8 00 00 00  je          1000A77D
  1000A6A5: F6 45 10 10        test        byte ptr [ebp+10h],10h
  1000A6A9: 0F 84 CE 00 00 00  je          1000A77D
  1000A6AF: 8B 45 0C           mov         eax,dword ptr [ebp+0Ch]
  1000A6B2: 57                 push        edi
  1000A6B3: 8B FB              mov         edi,ebx
  1000A6B5: C1 EF 04           shr         edi,4
  1000A6B8: DD 00              fld         qword ptr [eax]
  1000A6BA: 83 E7 01           and         edi,1
  1000A6BD: D9 EE              fldz
  1000A6BF: DD E9              fucomp      st(1)
  1000A6C1: DF E0              fnstsw      ax
  1000A6C3: F6 C4 44           test        ah,44h
  1000A6C6: 0F 8B 9C 00 00 00  jnp         1000A768
  1000A6CC: 8D 45 FC           lea         eax,[ebp-4]
  1000A6CF: 50                 push        eax
  1000A6D0: 51                 push        ecx
  1000A6D1: 51                 push        ecx
  1000A6D2: DD 1C 24           fstp        qword ptr [esp]
  1000A6D5: E8 AC 04 00 00     call        1000AB86
  1000A6DA: 8B 55 FC           mov         edx,dword ptr [ebp-4]
  1000A6DD: 83 C4 0C           add         esp,0Ch
  1000A6E0: 81 C2 00 FA FF FF  add         edx,0FFFFFA00h
  1000A6E6: DD 55 F0           fst         qword ptr [ebp-10h]
  1000A6E9: D9 EE              fldz
  1000A6EB: 81 FA CE FB FF FF  cmp         edx,0FFFFFBCEh
  1000A6F1: 7D 07              jge         1000A6FA
  1000A6F3: 33 FF              xor         edi,edi
  1000A6F5: DE C9              fmulp       st(1),st
  1000A6F7: 47                 inc         edi
  1000A6F8: EB 67              jmp         1000A761
  1000A6FA: DE D9              fcompp
  1000A6FC: DF E0              fnstsw      ax
  1000A6FE: F6 C4 41           test        ah,41h
  1000A701: 75 09              jne         1000A70C
  1000A703: C7 45 FC 01 00 00  mov         dword ptr [ebp-4],1
            00
  1000A70A: EB 04              jmp         1000A710
  1000A70C: 83 65 FC 00        and         dword ptr [ebp-4],0
  1000A710: 8B 45 F6           mov         eax,dword ptr [ebp-0Ah]
  1000A713: B9 03 FC FF FF     mov         ecx,0FFFFFC03h
  1000A718: 83 E0 0F           and         eax,0Fh
  1000A71B: 83 C8 10           or          eax,10h
  1000A71E: 66 89 45 F6        mov         word ptr [ebp-0Ah],ax
  1000A722: 3B D1              cmp         edx,ecx
  1000A724: 7D 30              jge         1000A756
  1000A726: 8B 45 F0           mov         eax,dword ptr [ebp-10h]
  1000A729: 2B CA              sub         ecx,edx
  1000A72B: 8B 55 F4           mov         edx,dword ptr [ebp-0Ch]
  1000A72E: F6 45 F0 01        test        byte ptr [ebp-10h],1
  1000A732: 74 05              je          1000A739
  1000A734: 85 FF              test        edi,edi
  1000A736: 75 01              jne         1000A739
  1000A738: 47                 inc         edi
  1000A739: D1 E8              shr         eax,1
  1000A73B: F6 45 F4 01        test        byte ptr [ebp-0Ch],1
  1000A73F: 89 45 F0           mov         dword ptr [ebp-10h],eax
  1000A742: 74 08              je          1000A74C
  1000A744: 0D 00 00 00 80     or          eax,80000000h
  1000A749: 89 45 F0           mov         dword ptr [ebp-10h],eax
  1000A74C: D1 EA              shr         edx,1
  1000A74E: 89 55 F4           mov         dword ptr [ebp-0Ch],edx
  1000A751: 83 E9 01           sub         ecx,1
  1000A754: 75 D8              jne         1000A72E
  1000A756: 83 7D FC 00        cmp         dword ptr [ebp-4],0
  1000A75A: DD 45 F0           fld         qword ptr [ebp-10h]
  1000A75D: 74 02              je          1000A761
  1000A75F: D9 E0              fchs
  1000A761: 8B 45 0C           mov         eax,dword ptr [ebp+0Ch]
  1000A764: DD 18              fstp        qword ptr [eax]
  1000A766: EB 05              jmp         1000A76D
  1000A768: 33 FF              xor         edi,edi
  1000A76A: DD D8              fstp        st(0)
  1000A76C: 47                 inc         edi
  1000A76D: 85 FF              test        edi,edi
  1000A76F: 5F                 pop         edi
  1000A770: 74 08              je          1000A77A
  1000A772: 6A 10              push        10h
  1000A774: E8 1E FA FF FF     call        1000A197
  1000A779: 59                 pop         ecx
  1000A77A: 83 E6 FD           and         esi,0FFFFFFFDh
  1000A77D: F6 C3 10           test        bl,10h
  1000A780: 74 11              je          1000A793
  1000A782: F6 45 10 20        test        byte ptr [ebp+10h],20h
  1000A786: 74 0B              je          1000A793
  1000A788: 6A 20              push        20h
  1000A78A: E8 08 FA FF FF     call        1000A197
  1000A78F: 59                 pop         ecx
  1000A790: 83 E6 EF           and         esi,0FFFFFFEFh
  1000A793: 33 C0              xor         eax,eax
  1000A795: 85 F6              test        esi,esi
  1000A797: 5E                 pop         esi
  1000A798: 0F 94 C0           sete        al
  1000A79B: 5B                 pop         ebx
  1000A79C: C9                 leave
  1000A79D: C3                 ret
  1000A79E: 8B FF              mov         edi,edi
  1000A7A0: 55                 push        ebp
  1000A7A1: 8B EC              mov         ebp,esp
  1000A7A3: 6A 00              push        0
  1000A7A5: FF 75 1C           push        dword ptr [ebp+1Ch]
  1000A7A8: FF 75 18           push        dword ptr [ebp+18h]
  1000A7AB: FF 75 14           push        dword ptr [ebp+14h]
  1000A7AE: FF 75 10           push        dword ptr [ebp+10h]
  1000A7B1: FF 75 0C           push        dword ptr [ebp+0Ch]
  1000A7B4: FF 75 08           push        dword ptr [ebp+8]
  1000A7B7: E8 05 00 00 00     call        1000A7C1
  1000A7BC: 83 C4 1C           add         esp,1Ch
  1000A7BF: 5D                 pop         ebp
  1000A7C0: C3                 ret
  1000A7C1: 8B FF              mov         edi,edi
  1000A7C3: 55                 push        ebp
  1000A7C4: 8B EC              mov         ebp,esp
  1000A7C6: 8B 45 08           mov         eax,dword ptr [ebp+8]
  1000A7C9: 33 C9              xor         ecx,ecx
  1000A7CB: 53                 push        ebx
  1000A7CC: 33 DB              xor         ebx,ebx
  1000A7CE: 43                 inc         ebx
  1000A7CF: 89 48 04           mov         dword ptr [eax+4],ecx
  1000A7D2: 8B 45 08           mov         eax,dword ptr [ebp+8]
  1000A7D5: 57                 push        edi
  1000A7D6: BF 0D 00 00 C0     mov         edi,0C000000Dh
  1000A7DB: 89 48 08           mov         dword ptr [eax+8],ecx
  1000A7DE: 8B 45 08           mov         eax,dword ptr [ebp+8]
  1000A7E1: 89 48 0C           mov         dword ptr [eax+0Ch],ecx
  1000A7E4: 8B 4D 10           mov         ecx,dword ptr [ebp+10h]
  1000A7E7: F6 C1 10           test        cl,10h
  1000A7EA: 74 0B              je          1000A7F7
  1000A7EC: 8B 45 08           mov         eax,dword ptr [ebp+8]
  1000A7EF: BF 8F 00 00 C0     mov         edi,0C000008Fh
  1000A7F4: 09 58 04           or          dword ptr [eax+4],ebx
  1000A7F7: F6 C1 02           test        cl,2
  1000A7FA: 74 0C              je          1000A808
  1000A7FC: 8B 45 08           mov         eax,dword ptr [ebp+8]
  1000A7FF: BF 93 00 00 C0     mov         edi,0C0000093h
  1000A804: 83 48 04 02        or          dword ptr [eax+4],2
  1000A808: F6 C1 01           test        cl,1
  1000A80B: 74 0C              je          1000A819
  1000A80D: 8B 45 08           mov         eax,dword ptr [ebp+8]
  1000A810: BF 91 00 00 C0     mov         edi,0C0000091h
  1000A815: 83 48 04 04        or          dword ptr [eax+4],4
  1000A819: F6 C1 04           test        cl,4
  1000A81C: 74 0C              je          1000A82A
  1000A81E: 8B 45 08           mov         eax,dword ptr [ebp+8]
  1000A821: BF 8E 00 00 C0     mov         edi,0C000008Eh
  1000A826: 83 48 04 08        or          dword ptr [eax+4],8
  1000A82A: F6 C1 08           test        cl,8
  1000A82D: 74 0C              je          1000A83B
  1000A82F: 8B 45 08           mov         eax,dword ptr [ebp+8]
  1000A832: BF 90 00 00 C0     mov         edi,0C0000090h
  1000A837: 83 48 04 10        or          dword ptr [eax+4],10h
  1000A83B: 8B 4D 08           mov         ecx,dword ptr [ebp+8]
  1000A83E: 56                 push        esi
  1000A83F: 8B 75 0C           mov         esi,dword ptr [ebp+0Ch]
  1000A842: 8B 06              mov         eax,dword ptr [esi]
  1000A844: C1 E0 04           shl         eax,4
  1000A847: F7 D0              not         eax
  1000A849: 33 41 08           xor         eax,dword ptr [ecx+8]
  1000A84C: 83 E0 10           and         eax,10h
  1000A84F: 31 41 08           xor         dword ptr [ecx+8],eax
  1000A852: 8B 4D 08           mov         ecx,dword ptr [ebp+8]
  1000A855: 8B 06              mov         eax,dword ptr [esi]
  1000A857: 03 C0              add         eax,eax
  1000A859: F7 D0              not         eax
  1000A85B: 33 41 08           xor         eax,dword ptr [ecx+8]
  1000A85E: 83 E0 08           and         eax,8
  1000A861: 31 41 08           xor         dword ptr [ecx+8],eax
  1000A864: 8B 4D 08           mov         ecx,dword ptr [ebp+8]
  1000A867: 8B 06              mov         eax,dword ptr [esi]
  1000A869: D1 E8              shr         eax,1
  1000A86B: F7 D0              not         eax
  1000A86D: 33 41 08           xor         eax,dword ptr [ecx+8]
  1000A870: 83 E0 04           and         eax,4
  1000A873: 31 41 08           xor         dword ptr [ecx+8],eax
  1000A876: 8B 4D 08           mov         ecx,dword ptr [ebp+8]
  1000A879: 8B 06              mov         eax,dword ptr [esi]
  1000A87B: C1 E8 03           shr         eax,3
  1000A87E: F7 D0              not         eax
  1000A880: 33 41 08           xor         eax,dword ptr [ecx+8]
  1000A883: 83 E0 02           and         eax,2
  1000A886: 31 41 08           xor         dword ptr [ecx+8],eax
  1000A889: 8B 06              mov         eax,dword ptr [esi]
  1000A88B: 8B 4D 08           mov         ecx,dword ptr [ebp+8]
  1000A88E: C1 E8 05           shr         eax,5
  1000A891: F7 D0              not         eax
  1000A893: 33 41 08           xor         eax,dword ptr [ecx+8]
  1000A896: 23 C3              and         eax,ebx
  1000A898: 31 41 08           xor         dword ptr [ecx+8],eax
  1000A89B: E8 50 F9 FF FF     call        1000A1F0
  1000A8A0: 8B D0              mov         edx,eax
  1000A8A2: F6 C2 01           test        dl,1
  1000A8A5: 74 07              je          1000A8AE
  1000A8A7: 8B 4D 08           mov         ecx,dword ptr [ebp+8]
  1000A8AA: 83 49 0C 10        or          dword ptr [ecx+0Ch],10h
  1000A8AE: F6 C2 04           test        dl,4
  1000A8B1: 74 07              je          1000A8BA
  1000A8B3: 8B 45 08           mov         eax,dword ptr [ebp+8]
  1000A8B6: 83 48 0C 08        or          dword ptr [eax+0Ch],8
  1000A8BA: F6 C2 08           test        dl,8
  1000A8BD: 74 07              je          1000A8C6
  1000A8BF: 8B 45 08           mov         eax,dword ptr [ebp+8]
  1000A8C2: 83 48 0C 04        or          dword ptr [eax+0Ch],4
  1000A8C6: F6 C2 10           test        dl,10h
  1000A8C9: 74 07              je          1000A8D2
  1000A8CB: 8B 45 08           mov         eax,dword ptr [ebp+8]
  1000A8CE: 83 48 0C 02        or          dword ptr [eax+0Ch],2
  1000A8D2: F6 C2 20           test        dl,20h
  1000A8D5: 74 06              je          1000A8DD
  1000A8D7: 8B 45 08           mov         eax,dword ptr [ebp+8]
  1000A8DA: 09 58 0C           or          dword ptr [eax+0Ch],ebx
  1000A8DD: 8B 06              mov         eax,dword ptr [esi]
  1000A8DF: B9 00 0C 00 00     mov         ecx,0C00h
  1000A8E4: 23 C1              and         eax,ecx
  1000A8E6: 74 35              je          1000A91D
  1000A8E8: 3D 00 04 00 00     cmp         eax,400h
  1000A8ED: 74 22              je          1000A911
  1000A8EF: 3D 00 08 00 00     cmp         eax,800h
  1000A8F4: 74 0C              je          1000A902
  1000A8F6: 3B C1              cmp         eax,ecx
  1000A8F8: 75 29              jne         1000A923
  1000A8FA: 8B 45 08           mov         eax,dword ptr [ebp+8]
  1000A8FD: 83 08 03           or          dword ptr [eax],3
  1000A900: EB 21              jmp         1000A923
  1000A902: 8B 4D 08           mov         ecx,dword ptr [ebp+8]
  1000A905: 8B 01              mov         eax,dword ptr [ecx]
  1000A907: 83 E0 FE           and         eax,0FFFFFFFEh
  1000A90A: 83 C8 02           or          eax,2
  1000A90D: 89 01              mov         dword ptr [ecx],eax
  1000A90F: EB 12              jmp         1000A923
  1000A911: 8B 4D 08           mov         ecx,dword ptr [ebp+8]
  1000A914: 8B 01              mov         eax,dword ptr [ecx]
  1000A916: 83 E0 FD           and         eax,0FFFFFFFDh
  1000A919: 0B C3              or          eax,ebx
  1000A91B: EB F0              jmp         1000A90D
  1000A91D: 8B 45 08           mov         eax,dword ptr [ebp+8]
  1000A920: 83 20 FC           and         dword ptr [eax],0FFFFFFFCh
  1000A923: 8B 06              mov         eax,dword ptr [esi]
  1000A925: B9 00 03 00 00     mov         ecx,300h
  1000A92A: 23 C1              and         eax,ecx
  1000A92C: 74 20              je          1000A94E
  1000A92E: 3D 00 02 00 00     cmp         eax,200h
  1000A933: 74 0C              je          1000A941
  1000A935: 3B C1              cmp         eax,ecx
  1000A937: 75 22              jne         1000A95B
  1000A939: 8B 45 08           mov         eax,dword ptr [ebp+8]
  1000A93C: 83 20 E3           and         dword ptr [eax],0FFFFFFE3h
  1000A93F: EB 1A              jmp         1000A95B
  1000A941: 8B 4D 08           mov         ecx,dword ptr [ebp+8]
  1000A944: 8B 01              mov         eax,dword ptr [ecx]
  1000A946: 83 E0 E7           and         eax,0FFFFFFE7h
  1000A949: 83 C8 04           or          eax,4
  1000A94C: EB 0B              jmp         1000A959
  1000A94E: 8B 4D 08           mov         ecx,dword ptr [ebp+8]
  1000A951: 8B 01              mov         eax,dword ptr [ecx]
  1000A953: 83 E0 EB           and         eax,0FFFFFFEBh
  1000A956: 83 C8 08           or          eax,8
  1000A959: 89 01              mov         dword ptr [ecx],eax
  1000A95B: 8B 45 08           mov         eax,dword ptr [ebp+8]
  1000A95E: 8B 4D 14           mov         ecx,dword ptr [ebp+14h]
  1000A961: C1 E1 05           shl         ecx,5
  1000A964: 33 08              xor         ecx,dword ptr [eax]
  1000A966: 81 E1 E0 FF 01 00  and         ecx,1FFE0h
  1000A96C: 31 08              xor         dword ptr [eax],ecx
  1000A96E: 8B 45 08           mov         eax,dword ptr [ebp+8]
  1000A971: 09 58 20           or          dword ptr [eax+20h],ebx
  1000A974: 83 7D 20 00        cmp         dword ptr [ebp+20h],0
  1000A978: 74 2C              je          1000A9A6
  1000A97A: 8B 45 08           mov         eax,dword ptr [ebp+8]
  1000A97D: 83 60 20 E1        and         dword ptr [eax+20h],0FFFFFFE1h
  1000A981: 8B 45 18           mov         eax,dword ptr [ebp+18h]
  1000A984: D9 00              fld         dword ptr [eax]
  1000A986: 8B 45 08           mov         eax,dword ptr [ebp+8]
  1000A989: D9 58 10           fstp        dword ptr [eax+10h]
  1000A98C: 8B 45 08           mov         eax,dword ptr [ebp+8]
  1000A98F: 09 58 60           or          dword ptr [eax+60h],ebx
  1000A992: 8B 45 08           mov         eax,dword ptr [ebp+8]
  1000A995: 8B 5D 1C           mov         ebx,dword ptr [ebp+1Ch]
  1000A998: 83 60 60 E1        and         dword ptr [eax+60h],0FFFFFFE1h
  1000A99C: 8B 45 08           mov         eax,dword ptr [ebp+8]
  1000A99F: D9 03              fld         dword ptr [ebx]
  1000A9A1: D9 58 50           fstp        dword ptr [eax+50h]
  1000A9A4: EB 3A              jmp         1000A9E0
  1000A9A6: 8B 4D 08           mov         ecx,dword ptr [ebp+8]
  1000A9A9: 8B 41 20           mov         eax,dword ptr [ecx+20h]
  1000A9AC: 83 E0 E3           and         eax,0FFFFFFE3h
  1000A9AF: 83 C8 02           or          eax,2
  1000A9B2: 89 41 20           mov         dword ptr [ecx+20h],eax
  1000A9B5: 8B 45 18           mov         eax,dword ptr [ebp+18h]
  1000A9B8: DD 00              fld         qword ptr [eax]
  1000A9BA: 8B 45 08           mov         eax,dword ptr [ebp+8]
  1000A9BD: DD 58 10           fstp        qword ptr [eax+10h]
  1000A9C0: 8B 45 08           mov         eax,dword ptr [ebp+8]
  1000A9C3: 09 58 60           or          dword ptr [eax+60h],ebx
  1000A9C6: 8B 4D 08           mov         ecx,dword ptr [ebp+8]
  1000A9C9: 8B 5D 1C           mov         ebx,dword ptr [ebp+1Ch]
  1000A9CC: 8B 41 60           mov         eax,dword ptr [ecx+60h]
  1000A9CF: 83 E0 E3           and         eax,0FFFFFFE3h
  1000A9D2: 83 C8 02           or          eax,2
  1000A9D5: 89 41 60           mov         dword ptr [ecx+60h],eax
  1000A9D8: 8B 45 08           mov         eax,dword ptr [ebp+8]
  1000A9DB: DD 03              fld         qword ptr [ebx]
  1000A9DD: DD 58 50           fstp        qword ptr [eax+50h]
  1000A9E0: E8 77 F7 FF FF     call        1000A15C
  1000A9E5: 8D 45 08           lea         eax,[ebp+8]
  1000A9E8: 50                 push        eax
  1000A9E9: 6A 01              push        1
  1000A9EB: 6A 00              push        0
  1000A9ED: 57                 push        edi
  1000A9EE: FF 15 74 B0 00 10  call        dword ptr ds:[1000B074h]
  1000A9F4: 8B 4D 08           mov         ecx,dword ptr [ebp+8]
  1000A9F7: 8B 41 08           mov         eax,dword ptr [ecx+8]
  1000A9FA: A8 10              test        al,10h
  1000A9FC: 74 06              je          1000AA04
  1000A9FE: 83 26 FE           and         dword ptr [esi],0FFFFFFFEh
  1000AA01: 8B 41 08           mov         eax,dword ptr [ecx+8]
  1000AA04: A8 08              test        al,8
  1000AA06: 74 06              je          1000AA0E
  1000AA08: 83 26 FB           and         dword ptr [esi],0FFFFFFFBh
  1000AA0B: 8B 41 08           mov         eax,dword ptr [ecx+8]
  1000AA0E: A8 04              test        al,4
  1000AA10: 74 06              je          1000AA18
  1000AA12: 83 26 F7           and         dword ptr [esi],0FFFFFFF7h
  1000AA15: 8B 41 08           mov         eax,dword ptr [ecx+8]
  1000AA18: A8 02              test        al,2
  1000AA1A: 74 06              je          1000AA22
  1000AA1C: 83 26 EF           and         dword ptr [esi],0FFFFFFEFh
  1000AA1F: 8B 41 08           mov         eax,dword ptr [ecx+8]
  1000AA22: A8 01              test        al,1
  1000AA24: 74 03              je          1000AA29
  1000AA26: 83 26 DF           and         dword ptr [esi],0FFFFFFDFh
  1000AA29: 8B 01              mov         eax,dword ptr [ecx]
  1000AA2B: BA FF F3 FF FF     mov         edx,0FFFFF3FFh
  1000AA30: 83 E0 03           and         eax,3
  1000AA33: 83 E8 00           sub         eax,0
  1000AA36: 74 35              je          1000AA6D
  1000AA38: 83 E8 01           sub         eax,1
  1000AA3B: 74 22              je          1000AA5F
  1000AA3D: 83 E8 01           sub         eax,1
  1000AA40: 74 0D              je          1000AA4F
  1000AA42: 83 E8 01           sub         eax,1
  1000AA45: 75 28              jne         1000AA6F
  1000AA47: 81 0E 00 0C 00 00  or          dword ptr [esi],0C00h
  1000AA4D: EB 20              jmp         1000AA6F
  1000AA4F: 8B 06              mov         eax,dword ptr [esi]
  1000AA51: 25 FF FB FF FF     and         eax,0FFFFFBFFh
  1000AA56: 0D 00 08 00 00     or          eax,800h
  1000AA5B: 89 06              mov         dword ptr [esi],eax
  1000AA5D: EB 10              jmp         1000AA6F
  1000AA5F: 8B 06              mov         eax,dword ptr [esi]
  1000AA61: 25 FF F7 FF FF     and         eax,0FFFFF7FFh
  1000AA66: 0D 00 04 00 00     or          eax,400h
  1000AA6B: EB EE              jmp         1000AA5B
  1000AA6D: 21 16              and         dword ptr [esi],edx
  1000AA6F: 8B 01              mov         eax,dword ptr [ecx]
  1000AA71: C1 E8 02           shr         eax,2
  1000AA74: 83 E0 07           and         eax,7
  1000AA77: 83 E8 00           sub         eax,0
  1000AA7A: 74 19              je          1000AA95
  1000AA7C: 83 E8 01           sub         eax,1
  1000AA7F: 74 09              je          1000AA8A
  1000AA81: 83 E8 01           sub         eax,1
  1000AA84: 75 1A              jne         1000AAA0
  1000AA86: 21 16              and         dword ptr [esi],edx
  1000AA88: EB 16              jmp         1000AAA0
  1000AA8A: 8B 06              mov         eax,dword ptr [esi]
  1000AA8C: 23 C2              and         eax,edx
  1000AA8E: 0D 00 02 00 00     or          eax,200h
  1000AA93: EB 09              jmp         1000AA9E
  1000AA95: 8B 06              mov         eax,dword ptr [esi]
  1000AA97: 23 C2              and         eax,edx
  1000AA99: 0D 00 03 00 00     or          eax,300h
  1000AA9E: 89 06              mov         dword ptr [esi],eax
  1000AAA0: 83 7D 20 00        cmp         dword ptr [ebp+20h],0
  1000AAA4: 5E                 pop         esi
  1000AAA5: 74 07              je          1000AAAE
  1000AAA7: D9 41 50           fld         dword ptr [ecx+50h]
  1000AAAA: D9 1B              fstp        dword ptr [ebx]
  1000AAAC: EB 05              jmp         1000AAB3
  1000AAAE: DD 41 50           fld         qword ptr [ecx+50h]
  1000AAB1: DD 1B              fstp        qword ptr [ebx]
  1000AAB3: 5F                 pop         edi
  1000AAB4: 5B                 pop         ebx
  1000AAB5: 5D                 pop         ebp
  1000AAB6: C3                 ret
  1000AAB7: 8B FF              mov         edi,edi
  1000AAB9: 55                 push        ebp
  1000AABA: 8B EC              mov         ebp,esp
  1000AABC: 8B 45 08           mov         eax,dword ptr [ebp+8]
  1000AABF: 83 F8 01           cmp         eax,1
  1000AAC2: 74 15              je          1000AAD9
  1000AAC4: 83 C0 FE           add         eax,0FFFFFFFEh
  1000AAC7: 83 F8 01           cmp         eax,1
  1000AACA: 77 18              ja          1000AAE4
  1000AACC: E8 D2 98 FF FF     call        100043A3
  1000AAD1: C7 00 22 00 00 00  mov         dword ptr [eax],22h
  1000AAD7: 5D                 pop         ebp
  1000AAD8: C3                 ret
  1000AAD9: E8 C5 98 FF FF     call        100043A3
  1000AADE: C7 00 21 00 00 00  mov         dword ptr [eax],21h
  1000AAE4: 5D                 pop         ebp
  1000AAE5: C3                 ret
  1000AAE6: 8B FF              mov         edi,edi
  1000AAE8: 55                 push        ebp
  1000AAE9: 8B EC              mov         ebp,esp
  1000AAEB: 8B 55 0C           mov         edx,dword ptr [ebp+0Ch]
  1000AAEE: 83 EC 20           sub         esp,20h
  1000AAF1: 33 C9              xor         ecx,ecx
  1000AAF3: 8B C1              mov         eax,ecx
  1000AAF5: 39 14 C5 38 FA 00  cmp         dword ptr [eax*8+1000FA38h],edx
            10
  1000AAFC: 74 08              je          1000AB06
  1000AAFE: 40                 inc         eax
  1000AAFF: 83 F8 1D           cmp         eax,1Dh
  1000AB02: 7C F1              jl          1000AAF5
  1000AB04: EB 07              jmp         1000AB0D
  1000AB06: 8B 0C C5 3C FA 00  mov         ecx,dword ptr [eax*8+1000FA3Ch]
            10
  1000AB0D: 89 4D E4           mov         dword ptr [ebp-1Ch],ecx
  1000AB10: 85 C9              test        ecx,ecx
  1000AB12: 74 55              je          1000AB69
  1000AB14: 8B 45 10           mov         eax,dword ptr [ebp+10h]
  1000AB17: 89 45 E8           mov         dword ptr [ebp-18h],eax
  1000AB1A: 8B 45 14           mov         eax,dword ptr [ebp+14h]
  1000AB1D: 89 45 EC           mov         dword ptr [ebp-14h],eax
  1000AB20: 8B 45 18           mov         eax,dword ptr [ebp+18h]
  1000AB23: 89 45 F0           mov         dword ptr [ebp-10h],eax
  1000AB26: 8B 45 1C           mov         eax,dword ptr [ebp+1Ch]
  1000AB29: 56                 push        esi
  1000AB2A: 8B 75 08           mov         esi,dword ptr [ebp+8]
  1000AB2D: 89 45 F4           mov         dword ptr [ebp-0Ch],eax
  1000AB30: 8B 45 20           mov         eax,dword ptr [ebp+20h]
  1000AB33: 68 FF FF 00 00     push        0FFFFh
  1000AB38: FF 75 28           push        dword ptr [ebp+28h]
  1000AB3B: 89 45 F8           mov         dword ptr [ebp-8],eax
  1000AB3E: 8B 45 24           mov         eax,dword ptr [ebp+24h]
  1000AB41: 89 75 E0           mov         dword ptr [ebp-20h],esi
  1000AB44: 89 45 FC           mov         dword ptr [ebp-4],eax
  1000AB47: E8 21 F6 FF FF     call        1000A16D
  1000AB4C: 8D 45 E0           lea         eax,[ebp-20h]
  1000AB4F: 50                 push        eax
  1000AB50: E8 36 B8 FF FF     call        1000638B
  1000AB55: 83 C4 0C           add         esp,0Ch
  1000AB58: 85 C0              test        eax,eax
  1000AB5A: 75 07              jne         1000AB63
  1000AB5C: 56                 push        esi
  1000AB5D: E8 55 FF FF FF     call        1000AAB7
  1000AB62: 59                 pop         ecx
  1000AB63: DD 45 F8           fld         qword ptr [ebp-8]
  1000AB66: 5E                 pop         esi
  1000AB67: C9                 leave
  1000AB68: C3                 ret
  1000AB69: 68 FF FF 00 00     push        0FFFFh
  1000AB6E: FF 75 28           push        dword ptr [ebp+28h]
  1000AB71: E8 F7 F5 FF FF     call        1000A16D
  1000AB76: FF 75 08           push        dword ptr [ebp+8]
  1000AB79: E8 39 FF FF FF     call        1000AAB7
  1000AB7E: DD 45 20           fld         qword ptr [ebp+20h]
  1000AB81: 83 C4 0C           add         esp,0Ch
  1000AB84: C9                 leave
  1000AB85: C3                 ret
  1000AB86: 8B FF              mov         edi,edi
  1000AB88: 55                 push        ebp
  1000AB89: 8B EC              mov         ebp,esp
  1000AB8B: DD 45 08           fld         qword ptr [ebp+8]
  1000AB8E: D9 EE              fldz
  1000AB90: DD E1              fucom       st(1)
  1000AB92: DF E0              fnstsw      ax
  1000AB94: 56                 push        esi
  1000AB95: F6 C4 44           test        ah,44h
  1000AB98: 7A 09              jp          1000ABA3
  1000AB9A: DD D9              fstp        st(1)
  1000AB9C: 33 F6              xor         esi,esi
  1000AB9E: E9 AD 00 00 00     jmp         1000AC50
  1000ABA3: 57                 push        edi
  1000ABA4: 66 8B 7D 0E        mov         di,word ptr [ebp+0Eh]
  1000ABA8: 0F B7 C7           movzx       eax,di
  1000ABAB: A9 F0 7F 00 00     test        eax,7FF0h
  1000ABB0: 75 7A              jne         1000AC2C
  1000ABB2: 8B 4D 0C           mov         ecx,dword ptr [ebp+0Ch]
  1000ABB5: 8B 55 08           mov         edx,dword ptr [ebp+8]
  1000ABB8: F7 C1 FF FF 0F 00  test        ecx,0FFFFFh
  1000ABBE: 75 04              jne         1000ABC4
  1000ABC0: 85 D2              test        edx,edx
  1000ABC2: 74 68              je          1000AC2C
  1000ABC4: DE D9              fcompp
  1000ABC6: BE 03 FC FF FF     mov         esi,0FFFFFC03h
  1000ABCB: DF E0              fnstsw      ax
  1000ABCD: 53                 push        ebx
  1000ABCE: 33 DB              xor         ebx,ebx
  1000ABD0: F6 C4 41           test        ah,41h
  1000ABD3: 75 01              jne         1000ABD6
  1000ABD5: 43                 inc         ebx
  1000ABD6: F6 45 0E 10        test        byte ptr [ebp+0Eh],10h
  1000ABDA: 75 1F              jne         1000ABFB
  1000ABDC: 03 C9              add         ecx,ecx
  1000ABDE: 89 4D 0C           mov         dword ptr [ebp+0Ch],ecx
  1000ABE1: 85 D2              test        edx,edx
  1000ABE3: 79 06              jns         1000ABEB
  1000ABE5: 83 C9 01           or          ecx,1
  1000ABE8: 89 4D 0C           mov         dword ptr [ebp+0Ch],ecx
  1000ABEB: 03 D2              add         edx,edx
  1000ABED: 4E                 dec         esi
  1000ABEE: F6 45 0E 10        test        byte ptr [ebp+0Eh],10h
  1000ABF2: 74 E8              je          1000ABDC
  1000ABF4: 66 8B 7D 0E        mov         di,word ptr [ebp+0Eh]
  1000ABF8: 89 55 08           mov         dword ptr [ebp+8],edx
  1000ABFB: B8 EF FF 00 00     mov         eax,0FFEFh
  1000AC00: 66 23 F8           and         di,ax
  1000AC03: 85 DB              test        ebx,ebx
  1000AC05: 0F B7 C7           movzx       eax,di
  1000AC08: 66 89 7D 0E        mov         word ptr [ebp+0Eh],di
  1000AC0C: 5B                 pop         ebx
  1000AC0D: 74 09              je          1000AC18
  1000AC0F: 0D 00 80 00 00     or          eax,8000h
  1000AC14: 66 89 45 0E        mov         word ptr [ebp+0Eh],ax
  1000AC18: DD 45 08           fld         qword ptr [ebp+8]
  1000AC1B: 6A 00              push        0
  1000AC1D: 51                 push        ecx
  1000AC1E: 51                 push        ecx
  1000AC1F: DD 1C 24           fstp        qword ptr [esp]
  1000AC22: E8 31 00 00 00     call        1000AC58
  1000AC27: 83 C4 0C           add         esp,0Ch
  1000AC2A: EB 23              jmp         1000AC4F
  1000AC2C: 6A 00              push        0
  1000AC2E: 51                 push        ecx
  1000AC2F: DD D8              fstp        st(0)
  1000AC31: 51                 push        ecx
  1000AC32: DD 1C 24           fstp        qword ptr [esp]
  1000AC35: E8 1E 00 00 00     call        1000AC58
  1000AC3A: 0F B7 F7           movzx       esi,di
  1000AC3D: 83 C4 0C           add         esp,0Ch
  1000AC40: C1 EE 04           shr         esi,4
  1000AC43: 81 E6 FF 07 00 00  and         esi,7FFh
  1000AC49: 81 EE FE 03 00 00  sub         esi,3FEh
  1000AC4F: 5F                 pop         edi
  1000AC50: 8B 45 10           mov         eax,dword ptr [ebp+10h]
  1000AC53: 89 30              mov         dword ptr [eax],esi
  1000AC55: 5E                 pop         esi
  1000AC56: 5D                 pop         ebp
  1000AC57: C3                 ret
  1000AC58: 8B FF              mov         edi,edi
  1000AC5A: 55                 push        ebp
  1000AC5B: 8B EC              mov         ebp,esp
  1000AC5D: 51                 push        ecx
  1000AC5E: 51                 push        ecx
  1000AC5F: 8B 4D 10           mov         ecx,dword ptr [ebp+10h]
  1000AC62: 0F B7 45 0E        movzx       eax,word ptr [ebp+0Eh]
  1000AC66: DD 45 08           fld         qword ptr [ebp+8]
  1000AC69: 25 0F 80 00 00     and         eax,800Fh
  1000AC6E: DD 5D F8           fstp        qword ptr [ebp-8]
  1000AC71: 8D 89 FE 03 00 00  lea         ecx,[ecx+000003FEh]
  1000AC77: C1 E1 04           shl         ecx,4
  1000AC7A: 0B C8              or          ecx,eax
  1000AC7C: 66 89 4D FE        mov         word ptr [ebp-2],cx
  1000AC80: DD 45 F8           fld         qword ptr [ebp-8]
  1000AC83: C9                 leave
  1000AC84: C3                 ret
  1000AC85: 8B FF              mov         edi,edi
  1000AC87: 55                 push        ebp
  1000AC88: 8B EC              mov         ebp,esp
  1000AC8A: 81 7D 0C 00 00 F0  cmp         dword ptr [ebp+0Ch],7FF00000h
            7F
  1000AC91: 8B 45 08           mov         eax,dword ptr [ebp+8]
  1000AC94: 75 07              jne         1000AC9D
  1000AC96: 85 C0              test        eax,eax
  1000AC98: 75 15              jne         1000ACAF
  1000AC9A: 40                 inc         eax
  1000AC9B: 5D                 pop         ebp
  1000AC9C: C3                 ret
  1000AC9D: 81 7D 0C 00 00 F0  cmp         dword ptr [ebp+0Ch],0FFF00000h
            FF
  1000ACA4: 75 09              jne         1000ACAF
  1000ACA6: 85 C0              test        eax,eax
  1000ACA8: 75 05              jne         1000ACAF
  1000ACAA: 6A 02              push        2
  1000ACAC: 58                 pop         eax
  1000ACAD: 5D                 pop         ebp
  1000ACAE: C3                 ret
  1000ACAF: 66 8B 4D 0E        mov         cx,word ptr [ebp+0Eh]
  1000ACB3: BA F8 7F 00 00     mov         edx,7FF8h
  1000ACB8: 66 23 CA           and         cx,dx
  1000ACBB: 66 3B CA           cmp         cx,dx
  1000ACBE: 75 04              jne         1000ACC4
  1000ACC0: 6A 03              push        3
  1000ACC2: EB E8              jmp         1000ACAC
  1000ACC4: BA F0 7F 00 00     mov         edx,7FF0h
  1000ACC9: 66 3B CA           cmp         cx,dx
  1000ACCC: 75 11              jne         1000ACDF
  1000ACCE: F7 45 0C FF FF 07  test        dword ptr [ebp+0Ch],7FFFFh
            00
  1000ACD5: 75 04              jne         1000ACDB
  1000ACD7: 85 C0              test        eax,eax
  1000ACD9: 74 04              je          1000ACDF
  1000ACDB: 6A 04              push        4
  1000ACDD: EB CD              jmp         1000ACAC
  1000ACDF: 33 C0              xor         eax,eax
  1000ACE1: 5D                 pop         ebp
  1000ACE2: C3                 ret
  1000ACE3: 8B FF              mov         edi,edi
  1000ACE5: 55                 push        ebp
  1000ACE6: 8B EC              mov         ebp,esp
  1000ACE8: 66 8B 4D 0E        mov         cx,word ptr [ebp+0Eh]
  1000ACEC: BA F0 7F 00 00     mov         edx,7FF0h
  1000ACF1: 66 8B C1           mov         ax,cx
  1000ACF4: 66 23 C2           and         ax,dx
  1000ACF7: 66 3B C2           cmp         ax,dx
  1000ACFA: 75 33              jne         1000AD2F
  1000ACFC: DD 45 08           fld         qword ptr [ebp+8]
  1000ACFF: 51                 push        ecx
  1000AD00: 51                 push        ecx
  1000AD01: DD 1C 24           fstp        qword ptr [esp]
  1000AD04: E8 7C FF FF FF     call        1000AC85
  1000AD09: 59                 pop         ecx
  1000AD0A: 59                 pop         ecx
  1000AD0B: 83 E8 01           sub         eax,1
  1000AD0E: 74 18              je          1000AD28
  1000AD10: 83 E8 01           sub         eax,1
  1000AD13: 74 0E              je          1000AD23
  1000AD15: 83 E8 01           sub         eax,1
  1000AD18: 74 05              je          1000AD1F
  1000AD1A: 33 C0              xor         eax,eax
  1000AD1C: 40                 inc         eax
  1000AD1D: 5D                 pop         ebp
  1000AD1E: C3                 ret
  1000AD1F: 6A 02              push        2
  1000AD21: EB 02              jmp         1000AD25
  1000AD23: 6A 04              push        4
  1000AD25: 58                 pop         eax
  1000AD26: 5D                 pop         ebp
  1000AD27: C3                 ret
  1000AD28: B8 00 02 00 00     mov         eax,200h
  1000AD2D: 5D                 pop         ebp
  1000AD2E: C3                 ret
  1000AD2F: 0F B7 C9           movzx       ecx,cx
  1000AD32: 81 E1 00 80 00 00  and         ecx,8000h
  1000AD38: 66 85 C0           test        ax,ax
  1000AD3B: 75 1E              jne         1000AD5B
  1000AD3D: F7 45 0C FF FF 0F  test        dword ptr [ebp+0Ch],0FFFFFh
            00
  1000AD44: 75 06              jne         1000AD4C
  1000AD46: 83 7D 08 00        cmp         dword ptr [ebp+8],0
  1000AD4A: 74 0F              je          1000AD5B
  1000AD4C: F7 D9              neg         ecx
  1000AD4E: 1B C9              sbb         ecx,ecx
  1000AD50: 83 E1 90           and         ecx,0FFFFFF90h
  1000AD53: 8D 81 80 00 00 00  lea         eax,[ecx+00000080h]
  1000AD59: 5D                 pop         ebp
  1000AD5A: C3                 ret
  1000AD5B: DD 45 08           fld         qword ptr [ebp+8]
  1000AD5E: D9 EE              fldz
  1000AD60: DA E9              fucompp
  1000AD62: DF E0              fnstsw      ax
  1000AD64: F6 C4 44           test        ah,44h
  1000AD67: 7A 0C              jp          1000AD75
  1000AD69: F7 D9              neg         ecx
  1000AD6B: 1B C9              sbb         ecx,ecx
  1000AD6D: 83 E1 E0           and         ecx,0FFFFFFE0h
  1000AD70: 8D 41 40           lea         eax,[ecx+40h]
  1000AD73: 5D                 pop         ebp
  1000AD74: C3                 ret
  1000AD75: F7 D9              neg         ecx
  1000AD77: 1B C9              sbb         ecx,ecx
  1000AD79: 81 E1 08 FF FF FF  and         ecx,0FFFFFF08h
  1000AD7F: 8D 81 00 01 00 00  lea         eax,[ecx+00000100h]
  1000AD85: 5D                 pop         ebp
  1000AD86: C3                 ret
  1000AD87: CC                 int         3
  1000AD88: CC                 int         3
  1000AD89: CC                 int         3
  1000AD8A: CC                 int         3
  1000AD8B: CC                 int         3
  1000AD8C: CC                 int         3
  1000AD8D: CC                 int         3
  1000AD8E: CC                 int         3
  1000AD8F: CC                 int         3
  1000AD90: 55                 push        ebp
  1000AD91: 8B EC              mov         ebp,esp
  1000AD93: 8B 45 08           mov         eax,dword ptr [ebp+8]
  1000AD96: 33 D2              xor         edx,edx
  1000AD98: 53                 push        ebx
  1000AD99: 56                 push        esi
  1000AD9A: 57                 push        edi
  1000AD9B: 8B 48 3C           mov         ecx,dword ptr [eax+3Ch]
  1000AD9E: 03 C8              add         ecx,eax
  1000ADA0: 0F B7 41 14        movzx       eax,word ptr [ecx+14h]
  1000ADA4: 0F B7 59 06        movzx       ebx,word ptr [ecx+6]
  1000ADA8: 83 C0 18           add         eax,18h
  1000ADAB: 03 C1              add         eax,ecx
  1000ADAD: 85 DB              test        ebx,ebx
  1000ADAF: 74 1B              je          1000ADCC
  1000ADB1: 8B 7D 0C           mov         edi,dword ptr [ebp+0Ch]
  1000ADB4: 8B 70 0C           mov         esi,dword ptr [eax+0Ch]
  1000ADB7: 3B FE              cmp         edi,esi
  1000ADB9: 72 09              jb          1000ADC4
  1000ADBB: 8B 48 08           mov         ecx,dword ptr [eax+8]
  1000ADBE: 03 CE              add         ecx,esi
  1000ADC0: 3B F9              cmp         edi,ecx
  1000ADC2: 72 0A              jb          1000ADCE
  1000ADC4: 42                 inc         edx
  1000ADC5: 83 C0 28           add         eax,28h
  1000ADC8: 3B D3              cmp         edx,ebx
  1000ADCA: 72 E8              jb          1000ADB4
  1000ADCC: 33 C0              xor         eax,eax
  1000ADCE: 5F                 pop         edi
  1000ADCF: 5E                 pop         esi
  1000ADD0: 5B                 pop         ebx
  1000ADD1: 5D                 pop         ebp
  1000ADD2: C3                 ret
  1000ADD3: CC                 int         3
  1000ADD4: CC                 int         3
  1000ADD5: CC                 int         3
  1000ADD6: CC                 int         3
  1000ADD7: CC                 int         3
  1000ADD8: CC                 int         3
  1000ADD9: CC                 int         3
  1000ADDA: CC                 int         3
  1000ADDB: CC                 int         3
  1000ADDC: CC                 int         3
  1000ADDD: CC                 int         3
  1000ADDE: CC                 int         3
  1000ADDF: CC                 int         3
  1000ADE0: 55                 push        ebp
  1000ADE1: 8B EC              mov         ebp,esp
  1000ADE3: 6A FE              push        0FFFFFFFEh
  1000ADE5: 68 A0 03 01 10     push        100103A0h
  1000ADEA: 68 50 1C 00 10     push        10001C50h
  1000ADEF: 64 A1 00 00 00 00  mov         eax,dword ptr fs:[00000000h]
  1000ADF5: 50                 push        eax
  1000ADF6: 83 EC 08           sub         esp,8
  1000ADF9: 53                 push        ebx
  1000ADFA: 56                 push        esi
  1000ADFB: 57                 push        edi
  1000ADFC: A1 10 10 01 10     mov         eax,dword ptr ds:[10011010h]
  1000AE01: 31 45 F8           xor         dword ptr [ebp-8],eax
  1000AE04: 33 C5              xor         eax,ebp
  1000AE06: 50                 push        eax
  1000AE07: 8D 45 F0           lea         eax,[ebp-10h]
  1000AE0A: 64 A3 00 00 00 00  mov         dword ptr fs:[00000000h],eax
  1000AE10: 89 65 E8           mov         dword ptr [ebp-18h],esp
  1000AE13: C7 45 FC 00 00 00  mov         dword ptr [ebp-4],0
            00
  1000AE1A: 68 00 00 00 10     push        10000000h
  1000AE1F: E8 7C 00 00 00     call        1000AEA0
  1000AE24: 83 C4 04           add         esp,4
  1000AE27: 85 C0              test        eax,eax
  1000AE29: 74 54              je          1000AE7F
  1000AE2B: 8B 45 08           mov         eax,dword ptr [ebp+8]
  1000AE2E: 2D 00 00 00 10     sub         eax,10000000h
  1000AE33: 50                 push        eax
  1000AE34: 68 00 00 00 10     push        10000000h
  1000AE39: E8 52 FF FF FF     call        1000AD90
  1000AE3E: 83 C4 08           add         esp,8
  1000AE41: 85 C0              test        eax,eax
  1000AE43: 74 3A              je          1000AE7F
  1000AE45: 8B 40 24           mov         eax,dword ptr [eax+24h]
  1000AE48: C1 E8 1F           shr         eax,1Fh
  1000AE4B: F7 D0              not         eax
  1000AE4D: 83 E0 01           and         eax,1
  1000AE50: C7 45 FC FE FF FF  mov         dword ptr [ebp-4],0FFFFFFFEh
            FF
  1000AE57: 8B 4D F0           mov         ecx,dword ptr [ebp-10h]
  1000AE5A: 64 89 0D 00 00 00  mov         dword ptr fs:[00000000h],ecx
            00
  1000AE61: 59                 pop         ecx
  1000AE62: 5F                 pop         edi
  1000AE63: 5E                 pop         esi
  1000AE64: 5B                 pop         ebx
  1000AE65: 8B E5              mov         esp,ebp
  1000AE67: 5D                 pop         ebp
  1000AE68: C3                 ret
  1000AE69: 8B 45 EC           mov         eax,dword ptr [ebp-14h]
  1000AE6C: 8B 00              mov         eax,dword ptr [eax]
  1000AE6E: 33 C9              xor         ecx,ecx
  1000AE70: 81 38 05 00 00 C0  cmp         dword ptr [eax],0C0000005h
  1000AE76: 0F 94 C1           sete        cl
  1000AE79: 8B C1              mov         eax,ecx
  1000AE7B: C3                 ret
  1000AE7C: 8B 65 E8           mov         esp,dword ptr [ebp-18h]
  1000AE7F: C7 45 FC FE FF FF  mov         dword ptr [ebp-4],0FFFFFFFEh
            FF
  1000AE86: 33 C0              xor         eax,eax
  1000AE88: 8B 4D F0           mov         ecx,dword ptr [ebp-10h]
  1000AE8B: 64 89 0D 00 00 00  mov         dword ptr fs:[00000000h],ecx
            00
  1000AE92: 59                 pop         ecx
  1000AE93: 5F                 pop         edi
  1000AE94: 5E                 pop         esi
  1000AE95: 5B                 pop         ebx
  1000AE96: 8B E5              mov         esp,ebp
  1000AE98: 5D                 pop         ebp
  1000AE99: C3                 ret
  1000AE9A: CC                 int         3
  1000AE9B: CC                 int         3
  1000AE9C: CC                 int         3
  1000AE9D: CC                 int         3
  1000AE9E: CC                 int         3
  1000AE9F: CC                 int         3
  1000AEA0: 55                 push        ebp
  1000AEA1: 8B EC              mov         ebp,esp
  1000AEA3: 8B 45 08           mov         eax,dword ptr [ebp+8]
  1000AEA6: B9 4D 5A 00 00     mov         ecx,5A4Dh
  1000AEAB: 66 39 08           cmp         word ptr [eax],cx
  1000AEAE: 75 1D              jne         1000AECD
  1000AEB0: 8B 48 3C           mov         ecx,dword ptr [eax+3Ch]
  1000AEB3: 03 C8              add         ecx,eax
  1000AEB5: 81 39 50 45 00 00  cmp         dword ptr [ecx],4550h
  1000AEBB: 75 10              jne         1000AECD
  1000AEBD: BA 0B 01 00 00     mov         edx,10Bh
  1000AEC2: 33 C0              xor         eax,eax
  1000AEC4: 66 39 51 18        cmp         word ptr [ecx+18h],dx
  1000AEC8: 0F 94 C0           sete        al
  1000AECB: 5D                 pop         ebp
  1000AECC: C3                 ret
  1000AECD: 33 C0              xor         eax,eax
  1000AECF: 5D                 pop         ebp
  1000AED0: C3                 ret
  1000AED1: CC                 int         3
  1000AED2: CC                 int         3
  1000AED3: CC                 int         3
  1000AED4: CC                 int         3
  1000AED5: CC                 int         3
  1000AED6: CC                 int         3
  1000AED7: CC                 int         3
  1000AED8: CC                 int         3
  1000AED9: CC                 int         3
  1000AEDA: CC                 int         3
  1000AEDB: CC                 int         3
  1000AEDC: CC                 int         3
  1000AEDD: CC                 int         3
  1000AEDE: CC                 int         3
  1000AEDF: CC                 int         3
  1000AEE0: 51                 push        ecx
  1000AEE1: 8D 4C 24 08        lea         ecx,[esp+8]
  1000AEE5: 2B C8              sub         ecx,eax
  1000AEE7: 83 E1 0F           and         ecx,0Fh
  1000AEEA: 03 C1              add         eax,ecx
  1000AEEC: 1B C9              sbb         ecx,ecx
  1000AEEE: 0B C1              or          eax,ecx
  1000AEF0: 59                 pop         ecx
  1000AEF1: E9 1A 00 00 00     jmp         1000AF10
  1000AEF6: 51                 push        ecx
  1000AEF7: 8D 4C 24 08        lea         ecx,[esp+8]
  1000AEFB: 2B C8              sub         ecx,eax
  1000AEFD: 83 E1 07           and         ecx,7
  1000AF00: 03 C1              add         eax,ecx
  1000AF02: 1B C9              sbb         ecx,ecx
  1000AF04: 0B C1              or          eax,ecx
  1000AF06: 59                 pop         ecx
  1000AF07: E9 04 00 00 00     jmp         1000AF10
  1000AF0C: CC                 int         3
  1000AF0D: CC                 int         3
  1000AF0E: CC                 int         3
  1000AF0F: CC                 int         3
  1000AF10: 51                 push        ecx
  1000AF11: 8D 4C 24 04        lea         ecx,[esp+4]
  1000AF15: 2B C8              sub         ecx,eax
  1000AF17: 1B C0              sbb         eax,eax
  1000AF19: F7 D0              not         eax
  1000AF1B: 23 C8              and         ecx,eax
  1000AF1D: 8B C4              mov         eax,esp
  1000AF1F: 25 00 F0 FF FF     and         eax,0FFFFF000h
  1000AF24: 3B C8              cmp         ecx,eax
  1000AF26: 72 0A              jb          1000AF32
  1000AF28: 8B C1              mov         eax,ecx
  1000AF2A: 59                 pop         ecx
  1000AF2B: 94                 xchg        eax,esp
  1000AF2C: 8B 00              mov         eax,dword ptr [eax]
  1000AF2E: 89 04 24           mov         dword ptr [esp],eax
  1000AF31: C3                 ret
  1000AF32: 2D 00 10 00 00     sub         eax,1000h
  1000AF37: 85 00              test        dword ptr [eax],eax
  1000AF39: EB E9              jmp         1000AF24
  1000AF3B: CC                 int         3
  1000AF3C: CC                 int         3
  1000AF3D: CC                 int         3
  1000AF3E: CC                 int         3
  1000AF3F: CC                 int         3
  1000AF40: 55                 push        ebp
  1000AF41: 8B EC              mov         ebp,esp
  1000AF43: 51                 push        ecx
  1000AF44: 83 3D B8 18 01 10  cmp         dword ptr ds:[100118B8h],1
            01
  1000AF4B: 7C 66              jl          1000AFB3
  1000AF4D: 81 7D 08 B4 02 00  cmp         dword ptr [ebp+8],0C00002B4h
            C0
  1000AF54: 74 09              je          1000AF5F
  1000AF56: 81 7D 08 B5 02 00  cmp         dword ptr [ebp+8],0C00002B5h
            C0
  1000AF5D: 75 54              jne         1000AFB3
  1000AF5F: 0F AE 5D FC        stmxcsr     dword ptr [ebp-4]
  1000AF63: 8B 45 FC           mov         eax,dword ptr [ebp-4]
  1000AF66: 83 F0 3F           xor         eax,3Fh
  1000AF69: A8 81              test        al,81h
  1000AF6B: 74 3F              je          1000AFAC
  1000AF6D: A9 04 02 00 00     test        eax,204h
  1000AF72: 75 07              jne         1000AF7B
  1000AF74: B8 8E 00 00 C0     mov         eax,0C000008Eh
  1000AF79: C9                 leave
  1000AF7A: C3                 ret
  1000AF7B: A9 02 01 00 00     test        eax,102h
  1000AF80: 74 2A              je          1000AFAC
  1000AF82: A9 08 04 00 00     test        eax,408h
  1000AF87: 75 07              jne         1000AF90
  1000AF89: B8 91 00 00 C0     mov         eax,0C0000091h
  1000AF8E: C9                 leave
  1000AF8F: C3                 ret
  1000AF90: A9 10 08 00 00     test        eax,810h
  1000AF95: 75 07              jne         1000AF9E
  1000AF97: B8 93 00 00 C0     mov         eax,0C0000093h
  1000AF9C: C9                 leave
  1000AF9D: C3                 ret
  1000AF9E: A9 20 10 00 00     test        eax,1020h
  1000AFA3: 75 0E              jne         1000AFB3
  1000AFA5: B8 8F 00 00 C0     mov         eax,0C000008Fh
  1000AFAA: C9                 leave
  1000AFAB: C3                 ret
  1000AFAC: B8 90 00 00 C0     mov         eax,0C0000090h
  1000AFB1: C9                 leave
  1000AFB2: C3                 ret
  1000AFB3: 8B 45 08           mov         eax,dword ptr [ebp+8]
  1000AFB6: C9                 leave
  1000AFB7: C3                 ret

  Summary

        2000 .data
        6000 .rdata
        1000 .reloc
        A000 .text
